(lp0
(lp1
I0
aI0
aI0
aI0
aI0
aI0
aI0
aI0
aI0
aI0
aI0
aI0
aI0
aI0
aI0
aI0
aI0
aI0
aI0
aI0
aI0
aI0
aI0
aI0
aI0
aI0
aI0
aI0
aa(lp2
I0
aI0
aI0
aI0
aI0
aI0
aI0
acnumpy.core.multiarray
scalar
p3
(cnumpy
dtype
p4
(S'f4'
p5
I0
I1
tp6
Rp7
(I3
S'<'
p8
NNNI-1
I-1
I0
tp9
bS'\xeb\xe8\x90@'
p10
tp11
Rp12
ag3
(g7
S'X\xe2,>'
p13
tp14
Rp15
ag3
(g7
S'{\xce\xba='
p16
tp17
Rp18
ag3
(g7
S'\xb5:/='
p19
tp20
Rp21
ag3
(g7
S'lE\x88@'
p22
tp23
Rp24
ag3
(g7
S'\xfa\xd9\xb9>'
p25
tp26
Rp27
ag3
(g7
S'\xa6W\xb4<'
p28
tp29
Rp30
ag3
(g7
S'\x8c\xe2\xb5<'
p31
tp32
Rp33
ag3
(g7
S'"\xfa\xeb='
p34
tp35
Rp36
ag3
(g7
S';\xcc@>'
p37
tp38
Rp39
aa(lp40
g3
(g7
S'\x92;\xcc='
p41
tp42
Rp43
ag3
(g7
S'R}l@'
p44
tp45
Rp46
ag3
(g7
S'`\xebQ>'
p47
tp48
Rp49
ag3
(g7
S'\xd9\xeau@'
p50
tp51
Rp52
ag3
(g7
S'\xbe<i@'
p53
tp54
Rp55
ag3
(g7
S'0\xe0\x00>'
p56
tp57
Rp58
ag3
(g7
S'\x9c\x00\xb2='
p59
tp60
Rp61
ag3
(g7
S'\xd1d\x00>'
p62
tp63
Rp64
ag3
(g7
S'\x0f\x92X@'
p65
tp66
Rp67
ag3
(g7
S'kr\xf9<'
p68
tp69
Rp70
ag3
(g7
S'\xd5i\\@'
p71
tp72
Rp73
ag3
(g7
S'\x90\x9a\xb3<'
p74
tp75
Rp76
ag3
(g7
S'$G$='
p77
tp78
Rp79
aa(lp80
g3
(g7
S'\x1d_Q@'
p81
tp82
Rp83
ag3
(g7
S'\x18kN@'
p84
tp85
Rp86
ag3
(g7
S'\x04T\x1d<'
p87
tp88
Rp89
ag3
(g7
S'\x9b\xc5\xe7<'
p90
tp91
Rp92
ag3
(g7
S'\xcf\x9e\x0bA'
p93
tp94
Rp95
ag3
(g7
S'\xf2R\xcd<'
p96
tp97
Rp98
ag3
(g7
S'\xe7\xb0\xb2@'
p99
tp100
Rp101
ag3
(g7
S'\xa8$\xb6@'
p102
tp103
Rp104
ag3
(g7
S'\xc9=u<'
p105
tp106
Rp107
ag3
(g7
S'\xc3+\xb1@'
p108
tp109
Rp110
ag3
(g7
S'\xb0X\xc0<'
p111
tp112
Rp113
ag3
(g7
S'\xaf,B@'
p114
tp115
Rp116
ag3
(g7
S'\x12\xe6$='
p117
tp118
Rp119
ag3
(g7
S'\xa9lA@'
p120
tp121
Rp122
ag3
(g7
S'\xa9\x1c,@'
p123
tp124
Rp125
ag3
(g7
S'\xf4B\x8e='
p126
tp127
Rp128
ag3
(g7
S'\x01\xb3S='
p129
tp130
Rp131
ag3
(g7
S'~\xea\x8a='
p132
tp133
Rp134
ag3
(g7
S'd[\xb4@'
p135
tp136
Rp137
ag3
(g7
S'Z\x02B='
p138
tp139
Rp140
ag3
(g7
S'D\xe78@'
p141
tp142
Rp143
ag3
(g7
S',\xc6U='
p144
tp145
Rp146
ag3
(g7
S'd\xa46@'
p147
tp148
Rp149
ag3
(g7
S'\x14S\x18='
p150
tp151
Rp152
ag3
(g7
S'\xbe\x07*@'
p153
tp154
Rp155
ag3
(g7
S'\xf9\xd67@'
p156
tp157
Rp158
ag3
(g7
S'[\x94\xe7<'
p159
tp160
Rp161
ag3
(g7
S'\x17\xb34@'
p162
tp163
Rp164
ag3
(g7
S'r\xc4\xb0@'
p165
tp166
Rp167
ag3
(g7
S"\xd5\x99'@"
p168
tp169
Rp170
ag3
(g7
S'\xf5s\xfd<'
p171
tp172
Rp173
ag3
(g7
S'~\xe0;@'
p174
tp175
Rp176
aa(lp177
g3
(g7
S'\xc7\xf2\xe7<'
p178
tp179
Rp180
ag3
(g7
S'\xc5\x14\x81='
p181
tp182
Rp183
ag3
(g7
S'\n\x8f\xc3<'
p184
tp185
Rp186
ag3
(g7
S',\xb8\xf3<'
p187
tp188
Rp189
ag3
(g7
S'\x04&\xb3@'
p190
tp191
Rp192
ag3
(g7
S'1r\xbd<'
p193
tp194
Rp195
ag3
(g7
S'H\xa7.@'
p196
tp197
Rp198
ag3
(g7
S'\x86F\x82<'
p199
tp200
Rp201
ag3
(g7
S'\xc7\xf7\x92<'
p202
tp203
Rp204
ag3
(g7
S'}\x86H='
p205
tp206
Rp207
ag3
(g7
S'\n\x16X='
p208
tp209
Rp210
ag3
(g7
S'\xa9\x1a\xf1;'
p211
tp212
Rp213
ag3
(g7
S'\x17T2<'
p214
tp215
Rp216
ag3
(g7
S'\x8c\xcb+@'
p217
tp218
Rp219
ag3
(g7
S'D\xb80@'
p220
tp221
Rp222
ag3
(g7
S'\xc9\x96H='
p223
tp224
Rp225
ag3
(g7
S'{h(@'
p226
tp227
Rp228
ag3
(g7
S':a+@'
p229
tp230
Rp231
ag3
(g7
S'3\xac2@'
p232
tp233
Rp234
ag3
(g7
S'\x85\xd8\x1f<'
p235
tp236
Rp237
ag3
(g7
S'\xe9\x1c\xc6='
p238
tp239
Rp240
ag3
(g7
S'C\xaa\x19<'
p241
tp242
Rp243
ag3
(g7
S'\xd5\xef*@'
p244
tp245
Rp246
ag3
(g7
S'\xb2n4<'
p247
tp248
Rp249
ag3
(g7
S'xY\x05<'
p250
tp251
Rp252
ag3
(g7
S':\xdb\x1e<'
p253
tp254
Rp255
ag3
(g7
S'\xc2\x19\xdf='
p256
tp257
Rp258
ag3
(g7
S'\x1eXf='
p259
tp260
Rp261
ag3
(g7
S'"Im='
p262
tp263
Rp264
ag3
(g7
S'&\x1a7@'
p265
tp266
Rp267
ag3
(g7
S'_\xc3]='
p268
tp269
Rp270
ag3
(g7
S'\x82\xd9\x06<'
p271
tp272
Rp273
aa(lp274
g3
(g7
S')p\xe6='
p275
tp276
Rp277
ag3
(g7
S'\xd1\x05,@'
p278
tp279
Rp280
ag3
(g7
S'?\x96-@'
p281
tp282
Rp283
ag3
(g7
S'\xdb\xfay='
p284
tp285
Rp286
ag3
(g7
S'\xa3\x14\xc3='
p287
tp288
Rp289
ag3
(g7
S'\xdc\xdf-@'
p290
tp291
Rp292
ag3
(g7
S'XD8='
p293
tp294
Rp295
ag3
(g7
S'\xf5\x1d\x0b>'
p296
tp297
Rp298
ag3
(g7
S"'\xff\xaf="
p299
tp300
Rp301
ag3
(g7
S'9=n='
p302
tp303
Rp304
ag3
(g7
S'*~\xcf='
p305
tp306
Rp307
ag3
(g7
S'\x7fl*<'
p308
tp309
Rp310
ag3
(g7
S'\xf5&\x05='
p311
tp312
Rp313
ag3
(g7
S'\xd4\xd3\xe7<'
p314
tp315
Rp316
ag3
(g7
S'\x8e\x0fG='
p317
tp318
Rp319
ag3
(g7
S'\x1e\x86\x90<'
p320
tp321
Rp322
ag3
(g7
S'\xd7\x1d\x14='
p323
tp324
Rp325
ag3
(g7
S'r\x0bf='
p326
tp327
Rp328
ag3
(g7
S'\xd0\x00q='
p329
tp330
Rp331
ag3
(g7
S'\x14a3@'
p332
tp333
Rp334
ag3
(g7
S'\xa0\xc8\\='
p335
tp336
Rp337
ag3
(g7
S'T\xd6\xb1<'
p338
tp339
Rp340
ag3
(g7
S'{\xba-@'
p341
tp342
Rp343
ag3
(g7
S'\x85z*@'
p344
tp345
Rp346
ag3
(g7
S'R\xa0|='
p347
tp348
Rp349
ag3
(g7
S'|a)@'
p350
tp351
Rp352
ag3
(g7
S'\xfe:}='
p353
tp354
Rp355
ag3
(g7
S'[\xa3v='
p356
tp357
Rp358
ag3
(g7
S'\xd7\x80\x1e<'
p359
tp360
Rp361
ag3
(g7
S'\xeeQ\x16<'
p362
tp363
Rp364
ag3
(g7
S'f\xc47<'
p365
tp366
Rp367
ag3
(g7
S'do\xa3;'
p368
tp369
Rp370
aa(lp371
g3
(g7
S';\xb9\xac;'
p372
tp373
Rp374
ag3
(g7
S'\xbcQ\x14<'
p375
tp376
Rp377
ag3
(g7
S'~\xacc<'
p378
tp379
Rp380
ag3
(g7
S'\xa2\x0fy='
p381
tp382
Rp383
ag3
(g7
S'.\xbdC<'
p384
tp385
Rp386
ag3
(g7
S'\xb5\xa7m='
p387
tp388
Rp389
ag3
(g7
S'%\xcfk='
p390
tp391
Rp392
ag3
(g7
S'<\x98a<'
p393
tp394
Rp395
ag3
(g7
S'\xb0*8<'
p396
tp397
Rp398
ag3
(g7
S'I\x0c\xec;'
p399
tp400
Rp401
ag3
(g7
S'n\x97m<'
p402
tp403
Rp404
ag3
(g7
S'd3\xa2;'
p405
tp406
Rp407
ag3
(g7
S'\xfcAU='
p408
tp409
Rp410
ag3
(g7
S'\xb6\xba\x14>'
p411
tp412
Rp413
ag3
(g7
S'\xf7\xc1W='
p414
tp415
Rp416
ag3
(g7
S'\xe7\t\xcf='
p417
tp418
Rp419
ag3
(g7
S'\x84\xcd\xad@'
p420
tp421
Rp422
ag3
(g7
S'sV/@'
p423
tp424
Rp425
ag3
(g7
S'\x1c\\\xb9;'
p426
tp427
Rp428
ag3
(g7
S'\x92\xb2Y='
p429
tp430
Rp431
ag3
(g7
S'\xc0\x9a_='
p432
tp433
Rp434
ag3
(g7
S'M\xab\x8e<'
p435
tp436
Rp437
ag3
(g7
S'\xb9\x98w<'
p438
tp439
Rp440
ag3
(g7
S'\x96\xd8\x83<'
p441
tp442
Rp443
ag3
(g7
S'd\xb1\xe5<'
p444
tp445
Rp446
ag3
(g7
S'\xf3/\xb7<'
p447
tp448
Rp449
ag3
(g7
S'\xdc\xc7\x80<'
p450
tp451
Rp452
ag3
(g7
S'\x8cm\xd0;'
p453
tp454
Rp455
ag3
(g7
S'\xf8`\xa6@'
p456
tp457
Rp458
ag3
(g7
S'L\x98\xf1='
p459
tp460
Rp461
ag3
(g7
S'\x84\xce\x1d='
p462
tp463
Rp464
ag3
(g7
S's\xbb)@'
p465
tp466
Rp467
aa(lp468
g3
(g7
S'\xa55\x81<'
p469
tp470
Rp471
ag3
(g7
S'WJ\x1c='
p472
tp473
Rp474
ag3
(g7
S'\xc4B-<'
p475
tp476
Rp477
ag3
(g7
S'\xc8\x8a\x19='
p478
tp479
Rp480
ag3
(g7
S'\x10\x88$@'
p481
tp482
Rp483
ag3
(g7
S'\xd1\xbc\x1c='
p484
tp485
Rp486
ag3
(g7
S'\x8c\xb0\xbf<'
p487
tp488
Rp489
ag3
(g7
S'|\xc7=='
p490
tp491
Rp492
ag3
(g7
S'Ir\xbb<'
p493
tp494
Rp495
ag3
(g7
S'\x16\xa5\xb9<'
p496
tp497
Rp498
ag3
(g7
S'\xfbh6='
p499
tp500
Rp501
ag3
(g7
S'?\r\xce<'
p502
tp503
Rp504
ag3
(g7
S'\x81\x9f\x91<'
p505
tp506
Rp507
ag3
(g7
S'\x80\xe3y='
p508
tp509
Rp510
ag3
(g7
S'\xa4|\x9d<'
p511
tp512
Rp513
ag3
(g7
S'\xe4\x82\x1a='
p514
tp515
Rp516
ag3
(g7
S'\xbe\x0e\xb5@'
p517
tp518
Rp519
ag3
(g7
S'\xac\x812@'
p520
tp521
Rp522
ag3
(g7
S'\x03\x1c\x12='
p523
tp524
Rp525
ag3
(g7
S'\xe9\xd0^='
p526
tp527
Rp528
ag3
(g7
S'4%\x94<'
p529
tp530
Rp531
ag3
(g7
S'\xd0f\xc7<'
p532
tp533
Rp534
ag3
(g7
S'\x0b3\x99<'
p535
tp536
Rp537
ag3
(g7
S'\x89-\x82<'
p538
tp539
Rp540
ag3
(g7
S'.\x8c\x86='
p541
tp542
Rp543
ag3
(g7
S'\xcd\xd0,@'
p544
tp545
Rp546
ag3
(g7
S'\xf0\xeeu='
p547
tp548
Rp549
ag3
(g7
S'qN\xab@'
p550
tp551
Rp552
ag3
(g7
S'\x87\x1c=<'
p553
tp554
Rp555
ag3
(g7
S'nQh='
p556
tp557
Rp558
ag3
(g7
S'\xa5\xa3\x88;'
p559
tp560
Rp561
ag3
(g7
S'<G3;'
p562
tp563
Rp564
aa(lp565
g3
(g7
S'\x84\xfeu;'
p566
tp567
Rp568
ag3
(g7
S'P\x03T='
p569
tp570
Rp571
ag3
(g7
S'\xaa\xf22@'
p572
tp573
Rp574
ag3
(g7
S'w\xd5\x14;'
p575
tp576
Rp577
ag3
(g7
S'\x9eQf='
p578
tp579
Rp580
ag3
(g7
S'<\xf0*@'
p581
tp582
Rp583
ag3
(g7
S'4\xb0\x8c<'
p584
tp585
Rp586
ag3
(g7
S'\xdb\xdcW<'
p587
tp588
Rp589
ag3
(g7
S'\t\xb7Z<'
p590
tp591
Rp592
ag3
(g7
S'dl-@'
p593
tp594
Rp595
ag3
(g7
S'|\xe9i<'
p596
tp597
Rp598
ag3
(g7
S'\x8f\x17[<'
p599
tp600
Rp601
ag3
(g7
S'\x1bq,<'
p602
tp603
Rp604
ag3
(g7
S'\xc0Vp<'
p605
tp606
Rp607
ag3
(g7
S'd\x8a\x83<'
p608
tp609
Rp610
ag3
(g7
S'\xa2Et='
p611
tp612
Rp613
ag3
(g7
S'8\xaf+@'
p614
tp615
Rp616
ag3
(g7
S'\x95o`<'
p617
tp618
Rp619
ag3
(g7
S'd\xaa(@'
p620
tp621
Rp622
ag3
(g7
S'\\\x92j<'
p623
tp624
Rp625
ag3
(g7
S'3\xf9B<'
p626
tp627
Rp628
ag3
(g7
S'\xcc\xe9y<'
p629
tp630
Rp631
ag3
(g7
S'{\x1a\x1e<'
p632
tp633
Rp634
ag3
(g7
S' \xfcp='
p635
tp636
Rp637
ag3
(g7
S'\xd1\x928<'
p638
tp639
Rp640
aa(lp641
g3
(g7
S'%3\xff;'
p642
tp643
Rp644
ag3
(g7
S'\xcf\x84\xd8='
p645
tp646
Rp647
ag3
(g7
S'\x0c\x89o='
p648
tp649
Rp650
ag3
(g7
S'\xccM]='
p651
tp652
Rp653
ag3
(g7
S'\xfc\xd6*@'
p654
tp655
Rp656
ag3
(g7
S'y\xff\x14<'
p657
tp658
Rp659
ag3
(g7
S'\xfc\xcd,<'
p660
tp661
Rp662
ag3
(g7
S'\xec\x1b\x1b<'
p663
tp664
Rp665
ag3
(g7
S'0,\x06;'
p666
tp667
Rp668
ag3
(g7
S"\xa0\xea'@"
p669
tp670
Rp671
ag3
(g7
S'\xa7\xb0b='
p672
tp673
Rp674
ag3
(g7
S'\xb4RW<'
p675
tp676
Rp677
ag3
(g7
S'\x14\xaeR='
p678
tp679
Rp680
ag3
(g7
S'\x1b$}<'
p681
tp682
Rp683
ag3
(g7
S'\x16\x92\xde;'
p684
tp685
Rp686
ag3
(g7
S",\xd6'@"
p687
tp688
Rp689
ag3
(g7
S'\x94j\xd7='
p690
tp691
Rp692
ag3
(g7
S'\x93\xfc <'
p693
tp694
Rp695
ag3
(g7
S'\xcb\xf7\t<'
p696
tp697
Rp698
ag3
(g7
S'\x05\x04i='
p699
tp700
Rp701
ag3
(g7
S'\xcc<]='
p702
tp703
Rp704
ag3
(g7
S'\xdb\xfb0@'
p705
tp706
Rp707
ag3
(g7
S'\xaf\x81/<'
p708
tp709
Rp710
ag3
(g7
S'\xf4K\t<'
p711
tp712
Rp713
ag3
(g7
S'\x91\xf2Y='
p714
tp715
Rp716
ag3
(g7
S'\xd6\xc7\xcd='
p717
tp718
Rp719
ag3
(g7
S'\x83.\x1d>'
p720
tp721
Rp722
ag3
(g7
S'_|\x85<'
p723
tp724
Rp725
ag3
(g7
S'\xde(P<'
p726
tp727
Rp728
ag3
(g7
S'\xbc\x06k='
p729
tp730
Rp731
ag3
(g7
S'\xa6\xca\xbf<'
p732
tp733
Rp734
ag3
(g7
S'\xcfqc='
p735
tp736
Rp737
aa(lp738
g3
(g7
S'.3.@'
p739
tp740
Rp741
ag3
(g7
S'i[\x7f='
p742
tp743
Rp744
ag3
(g7
S'\xa7\xa5\xb9<'
p745
tp746
Rp747
ag3
(g7
S'8\xe1b='
p748
tp749
Rp750
ag3
(g7
S'P\xe9h='
p751
tp752
Rp753
ag3
(g7
S'\x1cLL<'
p754
tp755
Rp756
ag3
(g7
S'~\xedq='
p757
tp758
Rp759
ag3
(g7
S'\xfda\x87<'
p760
tp761
Rp762
ag3
(g7
S'> r='
p763
tp764
Rp765
ag3
(g7
S'pu)@'
p766
tp767
Rp768
ag3
(g7
S'\xe4-\x8d<'
p769
tp770
Rp771
ag3
(g7
S'\x89;\x14<'
p772
tp773
Rp774
ag3
(g7
S'|\x85-@'
p775
tp776
Rp777
ag3
(g7
S'\xbc\x06)@'
p778
tp779
Rp780
ag3
(g7
S'<\x9c\x0b<'
p781
tp782
Rp783
ag3
(g7
S'\x97`d='
p784
tp785
Rp786
ag3
(g7
S'\\pj='
p787
tp788
Rp789
ag3
(g7
S'|Ve='
p790
tp791
Rp792
ag3
(g7
S'c\xb1\x14<'
p793
tp794
Rp795
ag3
(g7
S'\xde\xddO='
p796
tp797
Rp798
ag3
(g7
S'\xd7\xcf`='
p799
tp800
Rp801
ag3
(g7
S'D\x96\xce;'
p802
tp803
Rp804
ag3
(g7
S'\x15\x17\xca='
p805
tp806
Rp807
ag3
(g7
S'\xc2\xdb5<'
p808
tp809
Rp810
ag3
(g7
S'\xef\xde+@'
p811
tp812
Rp813
ag3
(g7
S'\x94X"<'
p814
tp815
Rp816
ag3
(g7
S'\xc4\xbfW='
p817
tp818
Rp819
ag3
(g7
S'\x0c\x02\xbc='
p820
tp821
Rp822
ag3
(g7
S'\xdd\x94\xc0='
p823
tp824
Rp825
ag3
(g7
S'\xff\x05)@'
p826
tp827
Rp828
ag3
(g7
S'\xacGE='
p829
tp830
Rp831
ag3
(g7
S'\xbf\xc1S='
p832
tp833
Rp834
aa(lp835
g3
(g7
S'\xce\xb6)@'
p836
tp837
Rp838
ag3
(g7
S'\xe0YN='
p839
tp840
Rp841
ag3
(g7
S'\xba\xc8\x0c>'
p842
tp843
Rp844
ag3
(g7
S'\x8e\xc0\xbc;'
p845
tp846
Rp847
ag3
(g7
S'\x9b\xb1%<'
p848
tp849
Rp850
ag3
(g7
S'f\xa7H='
p851
tp852
Rp853
ag3
(g7
S'{\x07U='
p854
tp855
Rp856
ag3
(g7
S'\xd8T)@'
p857
tp858
Rp859
ag3
(g7
S'\xcf\xf83@'
p860
tp861
Rp862
ag3
(g7
S'K\x07\xc4='
p863
tp864
Rp865
ag3
(g7
S'\x89+)@'
p866
tp867
Rp868
ag3
(g7
S'\x07\xee\xdf;'
p869
tp870
Rp871
ag3
(g7
S't?R='
p872
tp873
Rp874
ag3
(g7
S'W\x8c\xa2;'
p875
tp876
Rp877
ag3
(g7
S'\\\xab\x81<'
p878
tp879
Rp880
ag3
(g7
S'\x9f\x8c\x0e>'
p881
tp882
Rp883
ag3
(g7
S'\x94-L<'
p884
tp885
Rp886
ag3
(g7
S'0\x1d)@'
p887
tp888
Rp889
ag3
(g7
S't\xe6\xfc;'
p890
tp891
Rp892
ag3
(g7
S'3\xdeY='
p893
tp894
Rp895
ag3
(g7
S'>\xedW='
p896
tp897
Rp898
ag3
(g7
S'\xaeF)<'
p899
tp900
Rp901
ag3
(g7
S'\xe18`='
p902
tp903
Rp904
ag3
(g7
S'L\xfe\xcb='
p905
tp906
Rp907
ag3
(g7
S'@\xebF='
p908
tp909
Rp910
ag3
(g7
S'\x0fR4<'
p911
tp912
Rp913
ag3
(g7
S'6\x19c='
p914
tp915
Rp916
ag3
(g7
S'<\xbb\t<'
p917
tp918
Rp919
ag3
(g7
S'\x1b\x81\xc9='
p920
tp921
Rp922
ag3
(g7
S'l\n3<'
p923
tp924
Rp925
ag3
(g7
S'\xe7\xfc(@'
p926
tp927
Rp928
ag3
(g7
S'\x94>\xca='
p929
tp930
Rp931
aa(lp932
g3
(g7
S'\x92\xec\x10>'
p933
tp934
Rp935
ag3
(g7
S'X\xb2b='
p936
tp937
Rp938
ag3
(g7
S'L\xcf\xc3='
p939
tp940
Rp941
ag3
(g7
S'>4X='
p942
tp943
Rp944
ag3
(g7
S'}\xdd\xc1='
p945
tp946
Rp947
ag3
(g7
S'.$9<'
p948
tp949
Rp950
ag3
(g7
S'a\x10*<'
p951
tp952
Rp953
ag3
(g7
S'\x10\xaf\x05>'
p954
tp955
Rp956
ag3
(g7
S'`\x03P='
p957
tp958
Rp959
ag3
(g7
S'\xd1\x84B<'
p960
tp961
Rp962
ag3
(g7
S'\x06\x84\x9a='
p963
tp964
Rp965
ag3
(g7
S'TP(='
p966
tp967
Rp968
ag3
(g7
S'D\x053='
p969
tp970
Rp971
ag3
(g7
S'A\xaf\xa5;'
p972
tp973
Rp974
ag3
(g7
S'\x07yI<'
p975
tp976
Rp977
ag3
(g7
S'hg\xc9;'
p978
tp979
Rp980
ag3
(g7
S'\xd6t\x1a='
p981
tp982
Rp983
ag3
(g7
S'\xe2\xc6\x07<'
p984
tp985
Rp986
ag3
(g7
S';h\x16='
p987
tp988
Rp989
ag3
(g7
S'o\xe4+@'
p990
tp991
Rp992
ag3
(g7
S' d\x10<'
p993
tp994
Rp995
ag3
(g7
S'\x89O(='
p996
tp997
Rp998
ag3
(g7
S'\xc1s5@'
p999
tp1000
Rp1001
ag3
(g7
S'35\xcd;'
p1002
tp1003
Rp1004
ag3
(g7
S'D\xc82@'
p1005
tp1006
Rp1007
ag3
(g7
S'\x9e\xb0\xa0='
p1008
tp1009
Rp1010
ag3
(g7
S'\xcd\x80\x92='
p1011
tp1012
Rp1013
ag3
(g7
S'E\xa70@'
p1014
tp1015
Rp1016
ag3
(g7
S'\x9cd\xa3='
p1017
tp1018
Rp1019
ag3
(g7
S'\x80I5='
p1020
tp1021
Rp1022
ag3
(g7
S';\x02\xe6='
p1023
tp1024
Rp1025
ag3
(g7
S'\x99\x06\x1a<'
p1026
tp1027
Rp1028
aa(lp1029
g3
(g7
S'cG\xd4;'
p1030
tp1031
Rp1032
ag3
(g7
S'\x12\xe0\x02<'
p1033
tp1034
Rp1035
ag3
(g7
S'u\x02\xcf;'
p1036
tp1037
Rp1038
ag3
(g7
S'~G+@'
p1039
tp1040
Rp1041
ag3
(g7
S'\xbc\x03\xdb;'
p1042
tp1043
Rp1044
ag3
(g7
S'\x0c1\xa8='
p1045
tp1046
Rp1047
ag3
(g7
S'H\x18+@'
p1048
tp1049
Rp1050
ag3
(g7
S'g\x12;='
p1051
tp1052
Rp1053
ag3
(g7
S'\xeb\x1e+@'
p1054
tp1055
Rp1056
ag3
(g7
S'L\xe5\xb1='
p1057
tp1058
Rp1059
ag3
(g7
S'\x81\xc7@='
p1060
tp1061
Rp1062
ag3
(g7
S'\xdb\x14\xb8='
p1063
tp1064
Rp1065
ag3
(g7
S'\x96?H='
p1066
tp1067
Rp1068
ag3
(g7
S'\xa0"\xe6;'
p1069
tp1070
Rp1071
ag3
(g7
S'@\x10\xfe;'
p1072
tp1073
Rp1074
ag3
(g7
S'W\x02\t<'
p1075
tp1076
Rp1077
ag3
(g7
S'zJ2@'
p1078
tp1079
Rp1080
ag3
(g7
S':\x8cI='
p1081
tp1082
Rp1083
ag3
(g7
S'\xb2\x0bH='
p1084
tp1085
Rp1086
ag3
(g7
S'\x87\x84J='
p1087
tp1088
Rp1089
ag3
(g7
S'\x19*v;'
p1090
tp1091
Rp1092
ag3
(g7
S' \xb2=='
p1093
tp1094
Rp1095
ag3
(g7
S'\xb4\xb6\xd7;'
p1096
tp1097
Rp1098
ag3
(g7
S'\xff\x82D='
p1099
tp1100
Rp1101
ag3
(g7
S'\x0c\x1f<='
p1102
tp1103
Rp1104
ag3
(g7
S'\xccb2='
p1105
tp1106
Rp1107
ag3
(g7
S'\x11f@;'
p1108
tp1109
Rp1110
ag3
(g7
S'\x0e[\xb3='
p1111
tp1112
Rp1113
ag3
(g7
S'\xf7N\xeb;'
p1114
tp1115
Rp1116
ag3
(g7
S'h\x0bA='
p1117
tp1118
Rp1119
ag3
(g7
S'\xeb\xab\xd8;'
p1120
tp1121
Rp1122
ag3
(g7
S'\x1ff;='
p1123
tp1124
Rp1125
aa(lp1126
g3
(g7
S')\xbc\xb2='
p1127
tp1128
Rp1129
ag3
(g7
S'\xb2\x8f\xd4;'
p1130
tp1131
Rp1132
ag3
(g7
S'\xdd`\x1d='
p1133
tp1134
Rp1135
ag3
(g7
S'r\x0b\x7f;'
p1136
tp1137
Rp1138
ag3
(g7
S'g\xa2\xf3<'
p1139
tp1140
Rp1141
ag3
(g7
S';|\xce;'
p1142
tp1143
Rp1144
ag3
(g7
S';\x19,@'
p1145
tp1146
Rp1147
ag3
(g7
S'\xadl\xdf<'
p1148
tp1149
Rp1150
ag3
(g7
S'\xba\xfc/@'
p1151
tp1152
Rp1153
ag3
(g7
S'`lt='
p1154
tp1155
Rp1156
ag3
(g7
S'\x97\xe0{='
p1157
tp1158
Rp1159
ag3
(g7
S'DQ1@'
p1160
tp1161
Rp1162
ag3
(g7
S'U%5='
p1163
tp1164
Rp1165
ag3
(g7
S'\xf3\x85\xae@'
p1166
tp1167
Rp1168
ag3
(g7
S'[\x0eI='
p1169
tp1170
Rp1171
ag3
(g7
S'\xed\x02\x08<'
p1172
tp1173
Rp1174
ag3
(g7
S'\xe2\x1d+<'
p1175
tp1176
Rp1177
ag3
(g7
S'\xc5i)<'
p1178
tp1179
Rp1180
ag3
(g7
S'\x01\x88\x15<'
p1181
tp1182
Rp1183
ag3
(g7
S'2\\\xbe;'
p1184
tp1185
Rp1186
ag3
(g7
S'\x94`+@'
p1187
tp1188
Rp1189
ag3
(g7
S'\x04\x93F='
p1190
tp1191
Rp1192
ag3
(g7
S'P\xc2\x0f<'
p1193
tp1194
Rp1195
ag3
(g7
S'\x9f\x94-@'
p1196
tp1197
Rp1198
ag3
(g7
S'<\xa0P<'
p1199
tp1200
Rp1201
ag3
(g7
S'\xd4\xe0\xae='
p1202
tp1203
Rp1204
ag3
(g7
S'\xa7)0<'
p1205
tp1206
Rp1207
ag3
(g7
S'\xf8\xf6\xbb='
p1208
tp1209
Rp1210
ag3
(g7
S't\xde)<'
p1211
tp1212
Rp1213
ag3
(g7
S'\xe3\xde\xd4;'
p1214
tp1215
Rp1216
ag3
(g7
S'\x80\xe08<'
p1217
tp1218
Rp1219
ag3
(g7
S',q\x19<'
p1220
tp1221
Rp1222
aa(lp1223
g3
(g7
S'\x8c[\x0e<'
p1224
tp1225
Rp1226
ag3
(g7
S'5m\xd0;'
p1227
tp1228
Rp1229
ag3
(g7
S'g\x0f\x84;'
p1230
tp1231
Rp1232
ag3
(g7
S'\xa71\x9c;'
p1233
tp1234
Rp1235
ag3
(g7
S'Z\xb6;='
p1236
tp1237
Rp1238
ag3
(g7
S'\xb2\xf9\xf7;'
p1239
tp1240
Rp1241
ag3
(g7
S'{\x90;='
p1242
tp1243
Rp1244
ag3
(g7
S'\xe1Q\xab='
p1245
tp1246
Rp1247
ag3
(g7
S'$3@='
p1248
tp1249
Rp1250
ag3
(g7
S'\x15f\xf5;'
p1251
tp1252
Rp1253
ag3
(g7
S'+Z\xb8;'
p1254
tp1255
Rp1256
ag3
(g7
S'\xdd\xb3\x16='
p1257
tp1258
Rp1259
ag3
(g7
S'\x9f\xd1\xa1='
p1260
tp1261
Rp1262
ag3
(g7
S't\x152@'
p1263
tp1264
Rp1265
ag3
(g7
S'\xb4\x170='
p1266
tp1267
Rp1268
ag3
(g7
S'\xa3\xf4\xa4='
p1269
tp1270
Rp1271
ag3
(g7
S'\x99\xcf\xc3;'
p1272
tp1273
Rp1274
ag3
(g7
S' dp;'
p1275
tp1276
Rp1277
ag3
(g7
S'\xe7\x8a\xf9;'
p1278
tp1279
Rp1280
ag3
(g7
S're\xa5='
p1281
tp1282
Rp1283
ag3
(g7
S'<\xa52='
p1284
tp1285
Rp1286
ag3
(g7
S'\x93\xcf\xcc;'
p1287
tp1288
Rp1289
ag3
(g7
S'\xef\xdb\xcf;'
p1290
tp1291
Rp1292
ag3
(g7
S' r\xca;'
p1293
tp1294
Rp1295
ag3
(g7
S'\xa0 \xc7;'
p1296
tp1297
Rp1298
ag3
(g7
S'<\xa3.='
p1299
tp1300
Rp1301
ag3
(g7
S'\x89\xfe-='
p1302
tp1303
Rp1304
ag3
(g7
S'\xad\x03\x19='
p1305
tp1306
Rp1307
ag3
(g7
S'<\x8f"='
p1308
tp1309
Rp1310
ag3
(g7
S"\x8b\xc9'="
p1311
tp1312
Rp1313
ag3
(g7
S'\xa5x\xd5='
p1314
tp1315
Rp1316
ag3
(g7
S'\xe3\xea\x9c;'
p1317
tp1318
Rp1319
aa(lp1320
g3
(g7
S'n\x95\x9d;'
p1321
tp1322
Rp1323
ag3
(g7
S'$T\x05='
p1324
tp1325
Rp1326
ag3
(g7
S'gWO;'
p1327
tp1328
Rp1329
ag3
(g7
S'\x95\xc9\x12='
p1330
tp1331
Rp1332
ag3
(g7
S'\xdc\x9e\x8e;'
p1333
tp1334
Rp1335
ag3
(g7
S'\x19\xee7;'
p1336
tp1337
Rp1338
ag3
(g7
S'\x1e\x1a\xe4;'
p1339
tp1340
Rp1341
ag3
(g7
S'Ry\x8f='
p1342
tp1343
Rp1344
ag3
(g7
S'\x8f\xff\xde;'
p1345
tp1346
Rp1347
ag3
(g7
S"'\xcei="
p1348
tp1349
Rp1350
ag3
(g7
S'\xb5>t='
p1351
tp1352
Rp1353
ag3
(g7
S'\xa2-{='
p1354
tp1355
Rp1356
ag3
(g7
S'\x9e6\xec<'
p1357
tp1358
Rp1359
ag3
(g7
S'O\xa3\x19;'
p1360
tp1361
Rp1362
ag3
(g7
S'\x10\xa2\xbb:'
p1363
tp1364
Rp1365
ag3
(g7
S'(\xd8\xc5='
p1366
tp1367
Rp1368
aa(lp1369
g3
(g7
S'm\xcb2@'
p1370
tp1371
Rp1372
ag3
(g7
S'\x9eW\xd5<'
p1373
tp1374
Rp1375
ag3
(g7
S'\xa7.\xaa;'
p1376
tp1377
Rp1378
ag3
(g7
S'\xb9\xde\xd7<'
p1379
tp1380
Rp1381
ag3
(g7
S'\x04d\xb6='
p1382
tp1383
Rp1384
ag3
(g7
S'\xc4\xcb2;'
p1385
tp1386
Rp1387
ag3
(g7
S'\xe8\x0f\xa8;'
p1388
tp1389
Rp1390
ag3
(g7
S'PX\xaa='
p1391
tp1392
Rp1393
ag3
(g7
S'\xe4Ax='
p1394
tp1395
Rp1396
ag3
(g7
S'\xfcv\x96;'
p1397
tp1398
Rp1399
ag3
(g7
S'\x94\xac\xf6:'
p1400
tp1401
Rp1402
ag3
(g7
S'\xe2\x9e_='
p1403
tp1404
Rp1405
ag3
(g7
S'\x7f\xda\x19;'
p1406
tp1407
Rp1408
ag3
(g7
S'\xa2\x0e\xde<'
p1409
tp1410
Rp1411
ag3
(g7
S'\xa7%\xf7:'
p1412
tp1413
Rp1414
ag3
(g7
S'\xb4\xff\xbd:'
p1415
tp1416
Rp1417
ag3
(g7
S'/<S;'
p1418
tp1419
Rp1420
ag3
(g7
S'\xb4\xb1\xbe<'
p1421
tp1422
Rp1423
ag3
(g7
S'\xb7\xf6\xf2:'
p1424
tp1425
Rp1426
ag3
(g7
S'Z"\xe2<'
p1427
tp1428
Rp1429
ag3
(g7
S'\x9f$a='
p1430
tp1431
Rp1432
ag3
(g7
S'\x1b\xda\x89;'
p1433
tp1434
Rp1435
ag3
(g7
S't\xabD='
p1436
tp1437
Rp1438
ag3
(g7
S'\x0f\xd6`;'
p1439
tp1440
Rp1441
ag3
(g7
S'\xf9\xd3\xcb:'
p1442
tp1443
Rp1444
ag3
(g7
S'\x9e\xc4\x0e;'
p1445
tp1446
Rp1447
ag3
(g7
S'b\xacz:'
p1448
tp1449
Rp1450
ag3
(g7
S'$~\x98:'
p1451
tp1452
Rp1453
ag3
(g7
S'\xc7\xbc\xe5:'
p1454
tp1455
Rp1456
ag3
(g7
S'\xe3\xf0+;'
p1457
tp1458
Rp1459
ag3
(g7
S'\x1fq\x01;'
p1460
tp1461
Rp1462
ag3
(g7
S'\x88i7@'
p1463
tp1464
Rp1465
aa(lp1466
g3
(g7
S'\xa0\x12\xd1<'
p1467
tp1468
Rp1469
ag3
(g7
S'W\xcc\x90;'
p1470
tp1471
Rp1472
ag3
(g7
S'\x95\xfb3@'
p1473
tp1474
Rp1475
ag3
(g7
S'\xa9\x8f\xf3<'
p1476
tp1477
Rp1478
ag3
(g7
S'5\xcb\x1c<'
p1479
tp1480
Rp1481
ag3
(g7
S'\xc7J\x18<'
p1482
tp1483
Rp1484
ag3
(g7
S'\xdfv\x00<'
p1485
tp1486
Rp1487
ag3
(g7
S'7c\xf7<'
p1488
tp1489
Rp1490
ag3
(g7
S'\t\xba3@'
p1491
tp1492
Rp1493
ag3
(g7
S'$\x0bq='
p1494
tp1495
Rp1496
ag3
(g7
S'\x00l\xfe<'
p1497
tp1498
Rp1499
ag3
(g7
S'\x1aw\xe2<'
p1500
tp1501
Rp1502
ag3
(g7
S'\x9aS\x9c;'
p1503
tp1504
Rp1505
ag3
(g7
S'e\x1f\xa3;'
p1506
tp1507
Rp1508
ag3
(g7
S'\xe3e\xaf='
p1509
tp1510
Rp1511
ag3
(g7
S'\xc5\xe0\xee<'
p1512
tp1513
Rp1514
ag3
(g7
S'w>\xe2:'
p1515
tp1516
Rp1517
ag3
(g7
S'@\xab\xfc<'
p1518
tp1519
Rp1520
ag3
(g7
S'\xbex\xff:'
p1521
tp1522
Rp1523
ag3
(g7
S'\x02[\xf39'
p1524
tp1525
Rp1526
ag3
(g7
S'W\xcf\x03='
p1527
tp1528
Rp1529
ag3
(g7
S'8\t@:'
p1530
tp1531
Rp1532
ag3
(g7
S'\xa1\x85+@'
p1533
tp1534
Rp1535
ag3
(g7
S'\xdd\x91\x96;'
p1536
tp1537
Rp1538
ag3
(g7
S'\xb4Qa;'
p1539
tp1540
Rp1541
ag3
(g7
S'.\x16\x12='
p1542
tp1543
Rp1544
ag3
(g7
S'\x06\xb4O;'
p1545
tp1546
Rp1547
ag3
(g7
S'[\xf4\xbf<'
p1548
tp1549
Rp1550
ag3
(g7
S'B>g='
p1551
tp1552
Rp1553
ag3
(g7
S'5\xfe\xd0<'
p1554
tp1555
Rp1556
ag3
(g7
S'\x8fg:@'
p1557
tp1558
Rp1559
ag3
(g7
S'\x9e\xea\x1c<'
p1560
tp1561
Rp1562
aa(lp1563
g3
(g7
S'\xbb"\x1f<'
p1564
tp1565
Rp1566
ag3
(g7
S'\xb7<\xf6;'
p1567
tp1568
Rp1569
ag3
(g7
S'\xae\xd3s;'
p1570
tp1571
Rp1572
ag3
(g7
S'\x8b<C<'
p1573
tp1574
Rp1575
ag3
(g7
S'O\xc8\x18='
p1576
tp1577
Rp1578
ag3
(g7
S'L\xfa\x07;'
p1579
tp1580
Rp1581
ag3
(g7
S'l\xe4\xb9='
p1582
tp1583
Rp1584
ag3
(g7
S'\x91\xce\xac;'
p1585
tp1586
Rp1587
ag3
(g7
S'\x87\\9@'
p1588
tp1589
Rp1590
ag3
(g7
S'\x10\x8f\x8f;'
p1591
tp1592
Rp1593
ag3
(g7
S'\x12;\xab;'
p1594
tp1595
Rp1596
ag3
(g7
S',\x90\x0c;'
p1597
tp1598
Rp1599
ag3
(g7
S'\x8c\x98+@'
p1600
tp1601
Rp1602
ag3
(g7
S'\xa0-\xa2;'
p1603
tp1604
Rp1605
ag3
(g7
S'\xab\xe1\xcb;'
p1606
tp1607
Rp1608
ag3
(g7
S'WD\xbb<'
p1609
tp1610
Rp1611
ag3
(g7
S' w\xe9;'
p1612
tp1613
Rp1614
ag3
(g7
S'\x82u7@'
p1615
tp1616
Rp1617
ag3
(g7
S'L\x04v;'
p1618
tp1619
Rp1620
ag3
(g7
S'\xdf\x16\xc6<'
p1621
tp1622
Rp1623
ag3
(g7
S'\xd4+1@'
p1624
tp1625
Rp1626
ag3
(g7
S'\xfc\xcc3@'
p1627
tp1628
Rp1629
ag3
(g7
S'\xc7\xbc_;'
p1630
tp1631
Rp1632
ag3
(g7
S'\x96\x80\x85;'
p1633
tp1634
Rp1635
ag3
(g7
S'$\xb7\x00;'
p1636
tp1637
Rp1638
ag3
(g7
S'I\xd8\x8b='
p1639
tp1640
Rp1641
ag3
(g7
S'j\x94_;'
p1642
tp1643
Rp1644
ag3
(g7
S'\x04w\x96;'
p1645
tp1646
Rp1647
ag3
(g7
S'\xbf!\xc7;'
p1648
tp1649
Rp1650
ag3
(g7
S'\xfb"\x81;'
p1651
tp1652
Rp1653
ag3
(g7
S'O\xb9\xd6='
p1654
tp1655
Rp1656
ag3
(g7
S'P\xf6\xce;'
p1657
tp1658
Rp1659
aa(lp1660
g3
(g7
S'\xe5q\xb0;'
p1661
tp1662
Rp1663
ag3
(g7
S'<\xad\x80;'
p1664
tp1665
Rp1666
ag3
(g7
S'0\xf7\x01='
p1667
tp1668
Rp1669
ag3
(g7
S'\x10\xbe\x86;'
p1670
tp1671
Rp1672
ag3
(g7
S'+\x96\x0f<'
p1673
tp1674
Rp1675
ag3
(g7
S'E*d='
p1676
tp1677
Rp1678
ag3
(g7
S'd7K;'
p1679
tp1680
Rp1681
ag3
(g7
S'<\xc2\xf6<'
p1682
tp1683
Rp1684
ag3
(g7
S'}\xba\xa9;'
p1685
tp1686
Rp1687
ag3
(g7
S'\x94\xca\x80;'
p1688
tp1689
Rp1690
ag3
(g7
S'\x07\x98\x07='
p1691
tp1692
Rp1693
ag3
(g7
S'\xae\xed\xfa<'
p1694
tp1695
Rp1696
ag3
(g7
S'7\xc1\xec:'
p1697
tp1698
Rp1699
ag3
(g7
S'{\x9c\x06='
p1700
tp1701
Rp1702
ag3
(g7
S'\xe0\x96\x8d;'
p1703
tp1704
Rp1705
ag3
(g7
S'\xc2`\x84;'
p1706
tp1707
Rp1708
ag3
(g7
S'\x92\'"='
p1709
tp1710
Rp1711
ag3
(g7
S'\x81%\x03='
p1712
tp1713
Rp1714
ag3
(g7
S'\x840\x14='
p1715
tp1716
Rp1717
ag3
(g7
S'\x1aM\x07='
p1718
tp1719
Rp1720
ag3
(g7
S'\xf5\xca\x13='
p1721
tp1722
Rp1723
ag3
(g7
S'K\xe1\r;'
p1724
tp1725
Rp1726
ag3
(g7
S'!>\r='
p1727
tp1728
Rp1729
ag3
(g7
S'\x81\xdd\x01='
p1730
tp1731
Rp1732
ag3
(g7
S'd\x0fJ;'
p1733
tp1734
Rp1735
ag3
(g7
S'\xc3\x81\x04='
p1736
tp1737
Rp1738
ag3
(g7
S'\xbf\xee\xc3='
p1739
tp1740
Rp1741
ag3
(g7
S'<y\t;'
p1742
tp1743
Rp1744
ag3
(g7
S'9\x90\x1c;'
p1745
tp1746
Rp1747
ag3
(g7
S'"\xea$;'
p1748
tp1749
Rp1750
ag3
(g7
S'\xa42V;'
p1751
tp1752
Rp1753
ag3
(g7
S'\x10\x01\x01='
p1754
tp1755
Rp1756
aa(lp1757
g3
(g7
S'[\x1c\xea<'
p1758
tp1759
Rp1760
ag3
(g7
S'\xee<";'
p1761
tp1762
Rp1763
ag3
(g7
S'UA\x1d;'
p1764
tp1765
Rp1766
ag3
(g7
S'\xec\xa1i='
p1767
tp1768
Rp1769
ag3
(g7
S'\xf1\x1a*;'
p1770
tp1771
Rp1772
ag3
(g7
S'\xe0\x15\xf5<'
p1773
tp1774
Rp1775
ag3
(g7
S')z3@'
p1776
tp1777
Rp1778
ag3
(g7
S'\xab\xe4f='
p1779
tp1780
Rp1781
ag3
(g7
S'qC\xd8<'
p1782
tp1783
Rp1784
ag3
(g7
S'\xac\x04\xfd:'
p1785
tp1786
Rp1787
ag3
(g7
S'\xa4t\x03='
p1788
tp1789
Rp1790
ag3
(g7
S'\xbe\x80\xf8<'
p1791
tp1792
Rp1793
ag3
(g7
S'l\xe5\x97:'
p1794
tp1795
Rp1796
ag3
(g7
S'7\x03\xbe:'
p1797
tp1798
Rp1799
ag3
(g7
S'\x96\xcc8@'
p1800
tp1801
Rp1802
ag3
(g7
S'\xa0\xb7!;'
p1803
tp1804
Rp1805
ag3
(g7
S'\xce+&;'
p1806
tp1807
Rp1808
ag3
(g7
S'\x96q$;'
p1809
tp1810
Rp1811
ag3
(g7
S'&\x82\x02='
p1812
tp1813
Rp1814
ag3
(g7
S'5C\xb7;'
p1815
tp1816
Rp1817
ag3
(g7
S'\xd9h\xa8;'
p1818
tp1819
Rp1820
ag3
(g7
S'\x86\xb53@'
p1821
tp1822
Rp1823
ag3
(g7
S'\xeb\xb1\x92;'
p1824
tp1825
Rp1826
ag3
(g7
S'\xcf\x84\xaf;'
p1827
tp1828
Rp1829
ag3
(g7
S'=\x88\xb9;'
p1830
tp1831
Rp1832
ag3
(g7
S'W1\x1f;'
p1833
tp1834
Rp1835
ag3
(g7
S'\x0e\x92\xd7<'
p1836
tp1837
Rp1838
ag3
(g7
S'\xd9\xf3\x01;'
p1839
tp1840
Rp1841
ag3
(g7
S')\xe09;'
p1842
tp1843
Rp1844
ag3
(g7
S'\xffK.@'
p1845
tp1846
Rp1847
ag3
(g7
S'\xdc\xb2\x06='
p1848
tp1849
Rp1850
ag3
(g7
S'\xb0\xe5\x06='
p1851
tp1852
Rp1853
aa(lp1854
g3
(g7
S'\xc4\xaa\x12;'
p1855
tp1856
Rp1857
ag3
(g7
S'\xfc\xdc\x0c='
p1858
tp1859
Rp1860
ag3
(g7
S'\xbf\x16\x10='
p1861
tp1862
Rp1863
ag3
(g7
S'Bj\x00;'
p1864
tp1865
Rp1866
ag3
(g7
S'\x8b\xc5\xf7:'
p1867
tp1868
Rp1869
ag3
(g7
S'\x16\x96\x8c='
p1870
tp1871
Rp1872
ag3
(g7
S'\xd5\xeb\x8b='
p1873
tp1874
Rp1875
ag3
(g7
S'\xb5\r\x13='
p1876
tp1877
Rp1878
ag3
(g7
S'4\xa2\t='
p1879
tp1880
Rp1881
ag3
(g7
S'\x8b\x97\x80:'
p1882
tp1883
Rp1884
ag3
(g7
S'\n?\x07='
p1885
tp1886
Rp1887
ag3
(g7
S't\xca\x08;'
p1888
tp1889
Rp1890
ag3
(g7
S'p\xb1\x15;'
p1891
tp1892
Rp1893
ag3
(g7
S'z\xea\x14;'
p1894
tp1895
Rp1896
ag3
(g7
S'\x14L\x15='
p1897
tp1898
Rp1899
ag3
(g7
S'\xa9\xa2\x82='
p1900
tp1901
Rp1902
ag3
(g7
S'\x1c*\xe2:'
p1903
tp1904
Rp1905
ag3
(g7
S'O\xa43@'
p1906
tp1907
Rp1908
ag3
(g7
S'\x89\xf7\xf0<'
p1909
tp1910
Rp1911
ag3
(g7
S'\x85\xa4\xfa<'
p1912
tp1913
Rp1914
ag3
(g7
S'\x926X;'
p1915
tp1916
Rp1917
ag3
(g7
S'\x9f\x183@'
p1918
tp1919
Rp1920
ag3
(g7
S'D\xbb\xb7;'
p1921
tp1922
Rp1923
ag3
(g7
S'\xd7A\xaa;'
p1924
tp1925
Rp1926
ag3
(g7
S'`H\xd2;'
p1927
tp1928
Rp1929
ag3
(g7
S'\x94\xad\xbb<'
p1930
tp1931
Rp1932
ag3
(g7
S'.\xaf\xbc;'
p1933
tp1934
Rp1935
ag3
(g7
S'\xfbR\xc1;'
p1936
tp1937
Rp1938
ag3
(g7
S'M\x15\xc3<'
p1939
tp1940
Rp1941
ag3
(g7
S'\xfd\xd2D='
p1942
tp1943
Rp1944
ag3
(g7
S'\xe0ef;'
p1945
tp1946
Rp1947
ag3
(g7
S'd?M='
p1948
tp1949
Rp1950
aa(lp1951
g3
(g7
S'l\xcd,;'
p1952
tp1953
Rp1954
ag3
(g7
S'\x92*B;'
p1955
tp1956
Rp1957
ag3
(g7
S'm\xd6\xbf<'
p1958
tp1959
Rp1960
ag3
(g7
S'\xc9\xe2\xcc<'
p1961
tp1962
Rp1963
ag3
(g7
S'\x0e\xc82@'
p1964
tp1965
Rp1966
ag3
(g7
S'+\xdc\xc2:'
p1967
tp1968
Rp1969
ag3
(g7
S'\x13T\x14='
p1970
tp1971
Rp1972
ag3
(g7
S'\xc7o\xc4='
p1973
tp1974
Rp1975
ag3
(g7
S'\xca\x16)@'
p1976
tp1977
Rp1978
ag3
(g7
S'"Mx;'
p1979
tp1980
Rp1981
ag3
(g7
S'\xd7\xd9\xc0;'
p1982
tp1983
Rp1984
ag3
(g7
S'\xbdT2@'
p1985
tp1986
Rp1987
ag3
(g7
S'\x83\x17\xac;'
p1988
tp1989
Rp1990
ag3
(g7
S'<\xab\xc3<'
p1991
tp1992
Rp1993
ag3
(g7
S'\xf6R\x1e<'
p1994
tp1995
Rp1996
ag3
(g7
S'\xfd\x98E<'
p1997
tp1998
Rp1999
ag3
(g7
S'\xe0@\xd5<'
p2000
tp2001
Rp2002
ag3
(g7
S'\x0f\x82\x05='
p2003
tp2004
Rp2005
ag3
(g7
S'\xc7\xd4\xf3;'
p2006
tp2007
Rp2008
ag3
(g7
S'\xc7\xb20@'
p2009
tp2010
Rp2011
ag3
(g7
S'2m\xf7:'
p2012
tp2013
Rp2014
ag3
(g7
S'\x92\xc0\x04<'
p2015
tp2016
Rp2017
ag3
(g7
S'$\x99\x94;'
p2018
tp2019
Rp2020
ag3
(g7
S'\x9df\x85='
p2021
tp2022
Rp2023
ag3
(g7
S'\x96I/@'
p2024
tp2025
Rp2026
ag3
(g7
S'S\x1f\\;'
p2027
tp2028
Rp2029
ag3
(g7
S'!\x8f\x1d='
p2030
tp2031
Rp2032
ag3
(g7
S'\x9b\xe0,@'
p2033
tp2034
Rp2035
ag3
(g7
S'\x1c\xd5!='
p2036
tp2037
Rp2038
ag3
(g7
S'\x1760@'
p2039
tp2040
Rp2041
ag3
(g7
S'\x98\x19,='
p2042
tp2043
Rp2044
ag3
(g7
S'#\x16(<'
p2045
tp2046
Rp2047
aa(lp2048
g3
(g7
S'\xcf\xfc.='
p2049
tp2050
Rp2051
ag3
(g7
S"\x94\xae'="
p2052
tp2053
Rp2054
ag3
(g7
S'\xf7\xaa/@'
p2055
tp2056
Rp2057
ag3
(g7
S'\xa9\xb2\xed;'
p2058
tp2059
Rp2060
ag3
(g7
S'c\xb7\x15<'
p2061
tp2062
Rp2063
ag3
(g7
S'\x88b>='
p2064
tp2065
Rp2066
ag3
(g7
S'D\x04\x1b<'
p2067
tp2068
Rp2069
ag3
(g7
S'.\xda\x96='
p2070
tp2071
Rp2072
ag3
(g7
S'a\xa8.='
p2073
tp2074
Rp2075
ag3
(g7
S'%$\xf1<'
p2076
tp2077
Rp2078
ag3
(g7
S'!R;<'
p2079
tp2080
Rp2081
ag3
(g7
S'\xb6{\x96='
p2082
tp2083
Rp2084
ag3
(g7
S'\xebV\xe9<'
p2085
tp2086
Rp2087
ag3
(g7
S'\xd1\x8dX<'
p2088
tp2089
Rp2090
ag3
(g7
S'U+\x85<'
p2091
tp2092
Rp2093
ag3
(g7
S'\xf7\xf4@<'
p2094
tp2095
Rp2096
ag3
(g7
S'\x94>\t<'
p2097
tp2098
Rp2099
ag3
(g7
S'\x1a6\x87;'
p2100
tp2101
Rp2102
ag3
(g7
S'\xe1\x9d1@'
p2103
tp2104
Rp2105
ag3
(g7
S'\x1fp\x96;'
p2106
tp2107
Rp2108
ag3
(g7
S'%f\xeb<'
p2109
tp2110
Rp2111
ag3
(g7
S'\xdb!R='
p2112
tp2113
Rp2114
ag3
(g7
S'\xd6\xe9.@'
p2115
tp2116
Rp2117
ag3
(g7
S'\x04\xd1\xf1<'
p2118
tp2119
Rp2120
ag3
(g7
S'W|\xef<'
p2121
tp2122
Rp2123
ag3
(g7
S'2\x8bv;'
p2124
tp2125
Rp2126
ag3
(g7
S'\xe8\\\x9e;'
p2127
tp2128
Rp2129
ag3
(g7
S'[\xc3\x90;'
p2130
tp2131
Rp2132
ag3
(g7
S'\xc2\xe9-='
p2133
tp2134
Rp2135
ag3
(g7
S'\x85/\x8c='
p2136
tp2137
Rp2138
ag3
(g7
S'\x1a\xcb\xa6;'
p2139
tp2140
Rp2141
ag3
(g7
S'\x03\x91\xa2;'
p2142
tp2143
Rp2144
aa(lp2145
g3
(g7
S'B\xa1\xbf;'
p2146
tp2147
Rp2148
ag3
(g7
S'R\xba\x15;'
p2149
tp2150
Rp2151
ag3
(g7
S'\x14\xcct;'
p2152
tp2153
Rp2154
ag3
(g7
S'\xacS*='
p2155
tp2156
Rp2157
ag3
(g7
S'\xa9\xb7%='
p2158
tp2159
Rp2160
ag3
(g7
S'\xd4\x0b\x8b;'
p2161
tp2162
Rp2163
ag3
(g7
S'\x03.\x17='
p2164
tp2165
Rp2166
ag3
(g7
S'\x0b\xa5\x9d='
p2167
tp2168
Rp2169
ag3
(g7
S'\xef\xf1\xb0;'
p2170
tp2171
Rp2172
ag3
(g7
S'\xa0\x9b,@'
p2173
tp2174
Rp2175
ag3
(g7
S'4TE;'
p2176
tp2177
Rp2178
ag3
(g7
S'\xbb\xe3\x06;'
p2179
tp2180
Rp2181
ag3
(g7
S'e\x06\x1f='
p2182
tp2183
Rp2184
ag3
(g7
S'\x82o,@'
p2185
tp2186
Rp2187
ag3
(g7
S"\xb8$'="
p2188
tp2189
Rp2190
ag3
(g7
S"\xfe3'="
p2191
tp2192
Rp2193
ag3
(g7
S'\xf4\x1c\x1f='
p2194
tp2195
Rp2196
ag3
(g7
S'|}\xe7='
p2197
tp2198
Rp2199
ag3
(g7
S'\x98E%='
p2200
tp2201
Rp2202
ag3
(g7
S'\x9f!\x86;'
p2203
tp2204
Rp2205
ag3
(g7
S'\x049S;'
p2206
tp2207
Rp2208
ag3
(g7
S'\xff\x83\xa0='
p2209
tp2210
Rp2211
ag3
(g7
S'\xd9\xe8\x95='
p2212
tp2213
Rp2214
ag3
(g7
S'\x9d\xa6I;'
p2215
tp2216
Rp2217
ag3
(g7
S'RU\x9b='
p2218
tp2219
Rp2220
ag3
(g7
S'\xdd\xc4A;'
p2221
tp2222
Rp2223
ag3
(g7
S',\xd65;'
p2224
tp2225
Rp2226
ag3
(g7
S'V+\x91='
p2227
tp2228
Rp2229
ag3
(g7
S'm\xaf\x91;'
p2230
tp2231
Rp2232
ag3
(g7
S'j\xe8.@'
p2233
tp2234
Rp2235
ag3
(g7
S'.\x8aA;'
p2236
tp2237
Rp2238
ag3
(g7
S'l. ;'
p2239
tp2240
Rp2241
aa(lp2242
g3
(g7
S'\x14\xe4 ='
p2243
tp2244
Rp2245
ag3
(g7
S'\xabMq;'
p2246
tp2247
Rp2248
ag3
(g7
S'v\xc1\x0f='
p2249
tp2250
Rp2251
ag3
(g7
S'N\xf3.@'
p2252
tp2253
Rp2254
ag3
(g7
S'\xea\xd2\x05='
p2255
tp2256
Rp2257
ag3
(g7
S'\x13\xba\x98;'
p2258
tp2259
Rp2260
ag3
(g7
S'+\x03_;'
p2261
tp2262
Rp2263
ag3
(g7
S'\xaa\xa7\xdc;'
p2264
tp2265
Rp2266
ag3
(g7
S'\xa9\x0f\xa0;'
p2267
tp2268
Rp2269
ag3
(g7
S'i\x1d\xda;'
p2270
tp2271
Rp2272
ag3
(g7
S'\x8c_\xd5<'
p2273
tp2274
Rp2275
ag3
(g7
S'\xf7c0='
p2276
tp2277
Rp2278
ag3
(g7
S'\xe4\xec\xd2;'
p2279
tp2280
Rp2281
ag3
(g7
S'\t\xc3I;'
p2282
tp2283
Rp2284
ag3
(g7
S'\xc5\xa9\xfd;'
p2285
tp2286
Rp2287
ag3
(g7
S',D\x90;'
p2288
tp2289
Rp2290
ag3
(g7
S'\xd9\xbb\xe6<'
p2291
tp2292
Rp2293
ag3
(g7
S'\x7f\xe9\xdd;'
p2294
tp2295
Rp2296
ag3
(g7
S'o0\x04='
p2297
tp2298
Rp2299
ag3
(g7
S'\xfc\x96\xf2;'
p2300
tp2301
Rp2302
ag3
(g7
S'r\x1c\x83='
p2303
tp2304
Rp2305
ag3
(g7
S'\x99\x00\xaf;'
p2306
tp2307
Rp2308
ag3
(g7
S'\x83\t@;'
p2309
tp2310
Rp2311
ag3
(g7
S'D@\x1f;'
p2312
tp2313
Rp2314
ag3
(g7
S'>\xef-;'
p2315
tp2316
Rp2317
ag3
(g7
S'O\x10R;'
p2318
tp2319
Rp2320
ag3
(g7
S'\xbcQ\x9c;'
p2321
tp2322
Rp2323
ag3
(g7
S'4\x82\xe7<'
p2324
tp2325
Rp2326
ag3
(g7
S'\xe4\xb8\xfb<'
p2327
tp2328
Rp2329
ag3
(g7
S'\xce>\xf7<'
p2330
tp2331
Rp2332
ag3
(g7
S'P\\\xf7:'
p2333
tp2334
Rp2335
ag3
(g7
S'*\x8b\x86='
p2336
tp2337
Rp2338
aa(lp2339
g3
(g7
S'\x91\xba2@'
p2340
tp2341
Rp2342
ag3
(g7
S'\xfb\x813;'
p2343
tp2344
Rp2345
ag3
(g7
S'r-\xb3<'
p2346
tp2347
Rp2348
ag3
(g7
S'\xb6\xa6\x9d;'
p2349
tp2350
Rp2351
ag3
(g7
S'\x04w\xfa;'
p2352
tp2353
Rp2354
ag3
(g7
S'\t\x9b\x14='
p2355
tp2356
Rp2357
ag3
(g7
S'\x04v\x0e='
p2358
tp2359
Rp2360
ag3
(g7
S'\xfbW\xde;'
p2361
tp2362
Rp2363
ag3
(g7
S'\xc8\xe0\x05='
p2364
tp2365
Rp2366
ag3
(g7
S'\xc9\x02d='
p2367
tp2368
Rp2369
ag3
(g7
S'\xc2#\xdd;'
p2370
tp2371
Rp2372
ag3
(g7
S'\x0f\x1f4@'
p2373
tp2374
Rp2375
ag3
(g7
S"'\x19\xfc<"
p2376
tp2377
Rp2378
ag3
(g7
S'\xcd&\x01='
p2379
tp2380
Rp2381
ag3
(g7
S'v\xba@='
p2382
tp2383
Rp2384
ag3
(g7
S'\x8c\x02\x0c='
p2385
tp2386
Rp2387
ag3
(g7
S'u\xf3\x96;'
p2388
tp2389
Rp2390
ag3
(g7
S'\x9c\xd5>;'
p2391
tp2392
Rp2393
ag3
(g7
S'BTP='
p2394
tp2395
Rp2396
ag3
(g7
S'\xf4\xc6\x17='
p2397
tp2398
Rp2399
ag3
(g7
S't\x8a@;'
p2400
tp2401
Rp2402
ag3
(g7
S'\x9f\xc0\x08='
p2403
tp2404
Rp2405
ag3
(g7
S'\x0c\x07y;'
p2406
tp2407
Rp2408
ag3
(g7
S'bL\xb6;'
p2409
tp2410
Rp2411
ag3
(g7
S'\xe6\x0bO='
p2412
tp2413
Rp2414
ag3
(g7
S'\xd6;3@'
p2415
tp2416
Rp2417
ag3
(g7
S'\xcet$;'
p2418
tp2419
Rp2420
ag3
(g7
S'{\xcb\xe0:'
p2421
tp2422
Rp2423
ag3
(g7
S'\xb6)`='
p2424
tp2425
Rp2426
ag3
(g7
S'Tb\x01='
p2427
tp2428
Rp2429
ag3
(g7
S'R\xfd\x17='
p2430
tp2431
Rp2432
ag3
(g7
S'\x9b\x1f/;'
p2433
tp2434
Rp2435
aa(lp2436
g3
(g7
S'N+\xbe:'
p2437
tp2438
Rp2439
ag3
(g7
S'\xa0\\\x15='
p2440
tp2441
Rp2442
ag3
(g7
S'9\x1f\x11='
p2443
tp2444
Rp2445
ag3
(g7
S'\xda\x0e\x16;'
p2446
tp2447
Rp2448
ag3
(g7
S'\x84\x98\xf7:'
p2449
tp2450
Rp2451
ag3
(g7
S'\x0ei\xeb:'
p2452
tp2453
Rp2454
ag3
(g7
S'\xbd\xd2\xce='
p2455
tp2456
Rp2457
ag3
(g7
S'\x9f\xe5\x11='
p2458
tp2459
Rp2460
ag3
(g7
S'\xbbv\x06='
p2461
tp2462
Rp2463
ag3
(g7
S'\xfe\x8e\xe3:'
p2464
tp2465
Rp2466
ag3
(g7
S'\x06\xb2\t='
p2467
tp2468
Rp2469
ag3
(g7
S'"\xa1\x15='
p2470
tp2471
Rp2472
ag3
(g7
S'\xd2\x1d\x13='
p2473
tp2474
Rp2475
ag3
(g7
S'\\u\xea<'
p2476
tp2477
Rp2478
ag3
(g7
S'\xfe\xc24@'
p2479
tp2480
Rp2481
ag3
(g7
S']|I='
p2482
tp2483
Rp2484
ag3
(g7
S'\x16\xe2\xb8='
p2485
tp2486
Rp2487
ag3
(g7
S'\xdbz\xc7<'
p2488
tp2489
Rp2490
ag3
(g7
S'\x04\x84\xfe<'
p2491
tp2492
Rp2493
ag3
(g7
S'\xe1i\x0f='
p2494
tp2495
Rp2496
ag3
(g7
S"'Q6@"
p2497
tp2498
Rp2499
ag3
(g7
S'\xb1\xc5\x8d<'
p2500
tp2501
Rp2502
ag3
(g7
S'\x7f\xb7\x13='
p2503
tp2504
Rp2505
ag3
(g7
S'\xd5o\xfb;'
p2506
tp2507
Rp2508
ag3
(g7
S'\x97\xf8\xf5<'
p2509
tp2510
Rp2511
ag3
(g7
S'\x12\x1a\xc5;'
p2512
tp2513
Rp2514
ag3
(g7
S'\xa4\xa6\x06='
p2515
tp2516
Rp2517
ag3
(g7
S'\x14\xab\x0c<'
p2518
tp2519
Rp2520
ag3
(g7
S'\xbc\x94\xc1;'
p2521
tp2522
Rp2523
ag3
(g7
S'\xcb\x8f\x9c<'
p2524
tp2525
Rp2526
ag3
(g7
S'\x0c\x15\x94;'
p2527
tp2528
Rp2529
ag3
(g7
S'.\x7f\xad<'
p2530
tp2531
Rp2532
aa(lp2533
g3
(g7
S'\xd4\xf9Y='
p2534
tp2535
Rp2536
ag3
(g7
S'\xa6^\xb7<'
p2537
tp2538
Rp2539
ag3
(g7
S'\x02\x8a\xe4;'
p2540
tp2541
Rp2542
ag3
(g7
S'l>\x88;'
p2543
tp2544
Rp2545
ag3
(g7
S'\xfd\x8e\xcd<'
p2546
tp2547
Rp2548
ag3
(g7
S'0\xe5\xc0<'
p2549
tp2550
Rp2551
ag3
(g7
S'gT+@'
p2552
tp2553
Rp2554
ag3
(g7
S'2\x94m='
p2555
tp2556
Rp2557
ag3
(g7
S'\xa7\x18\xa0;'
p2558
tp2559
Rp2560
ag3
(g7
S'\xbc\xd4\x86='
p2561
tp2562
Rp2563
ag3
(g7
S'\xb1\x81\xb2<'
p2564
tp2565
Rp2566
ag3
(g7
S'y];<'
p2567
tp2568
Rp2569
ag3
(g7
S'\xd2\xd0\x17<'
p2570
tp2571
Rp2572
ag3
(g7
S'\xaeN\xa4<'
p2573
tp2574
Rp2575
ag3
(g7
S' N\xb1<'
p2576
tp2577
Rp2578
ag3
(g7
S'\xb4\x10\xdd<'
p2579
tp2580
Rp2581
ag3
(g7
S'\x89\xaf"<'
p2582
tp2583
Rp2584
ag3
(g7
S'\xac\xdd3<'
p2585
tp2586
Rp2587
ag3
(g7
S'\x922\xa9<'
p2588
tp2589
Rp2590
ag3
(g7
S'LP\xab<'
p2591
tp2592
Rp2593
ag3
(g7
S'\x96\xe4\x0b='
p2594
tp2595
Rp2596
ag3
(g7
S' \xed6@'
p2597
tp2598
Rp2599
ag3
(g7
S'\xd4\xef\xe0;'
p2600
tp2601
Rp2602
ag3
(g7
S' \xe5\xd4<'
p2603
tp2604
Rp2605
ag3
(g7
S'^a\x02='
p2606
tp2607
Rp2608
ag3
(g7
S'i\xa4c='
p2609
tp2610
Rp2611
ag3
(g7
S'\x9c\xb0?;'
p2612
tp2613
Rp2614
ag3
(g7
S'\xd1\xbc\t='
p2615
tp2616
Rp2617
ag3
(g7
S'^\xdd\x7f;'
p2618
tp2619
Rp2620
ag3
(g7
S'\xc7\x053;'
p2621
tp2622
Rp2623
ag3
(g7
S'\xe0\x89\x0c;'
p2624
tp2625
Rp2626
ag3
(g7
S'\xeai\x1c='
p2627
tp2628
Rp2629
aa(lp2630
g3
(g7
S'\xc9\xfd\xd9<'
p2631
tp2632
Rp2633
ag3
(g7
S'\xc3\nT='
p2634
tp2635
Rp2636
ag3
(g7
S'\xbc\x17\x13='
p2637
tp2638
Rp2639
ag3
(g7
S'\xafE4;'
p2640
tp2641
Rp2642
ag3
(g7
S'\xdc\xb1\xf0<'
p2643
tp2644
Rp2645
ag3
(g7
S'\x13Z.@'
p2646
tp2647
Rp2648
ag3
(g7
S'k^@;'
p2649
tp2650
Rp2651
ag3
(g7
S'\x97\xdeN='
p2652
tp2653
Rp2654
ag3
(g7
S'\xeb\xe7\xe6:'
p2655
tp2656
Rp2657
ag3
(g7
S'\x89\xcc\x16='
p2658
tp2659
Rp2660
ag3
(g7
S'\x1c\xb8\x0f;'
p2661
tp2662
Rp2663
ag3
(g7
S'l$\xe5<'
p2664
tp2665
Rp2666
ag3
(g7
S'\x8a\x97\xbb;'
p2667
tp2668
Rp2669
ag3
(g7
S'\x100\xaa<'
p2670
tp2671
Rp2672
ag3
(g7
S'\xd9\xad\xb0;'
p2673
tp2674
Rp2675
ag3
(g7
S'T\x04-='
p2676
tp2677
Rp2678
ag3
(g7
S'3\xf9X;'
p2679
tp2680
Rp2681
ag3
(g7
S'\xf5l\x0e='
p2682
tp2683
Rp2684
ag3
(g7
S'C"\x0f='
p2685
tp2686
Rp2687
ag3
(g7
S'\x82\xf6\x98<'
p2688
tp2689
Rp2690
ag3
(g7
S'$\xfd\xa4<'
p2691
tp2692
Rp2693
ag3
(g7
S'\xea\x7f*='
p2694
tp2695
Rp2696
ag3
(g7
S'\xf4k8@'
p2697
tp2698
Rp2699
ag3
(g7
S'x\x07)@'
p2700
tp2701
Rp2702
ag3
(g7
S'\x85\x93m;'
p2703
tp2704
Rp2705
ag3
(g7
S'\xd1|\x91;'
p2706
tp2707
Rp2708
ag3
(g7
S'\x0fv\xcf<'
p2709
tp2710
Rp2711
ag3
(g7
S'\x05+\xff<'
p2712
tp2713
Rp2714
ag3
(g7
S'\x1cP\x0c<'
p2715
tp2716
Rp2717
ag3
(g7
S'\x8c\x89\xd0<'
p2718
tp2719
Rp2720
ag3
(g7
S'\x04\x8c\xe4;'
p2721
tp2722
Rp2723
ag3
(g7
S'\x9b\xcc <'
p2724
tp2725
Rp2726
aa(lp2727
g3
(g7
S'"a\xbd;'
p2728
tp2729
Rp2730
ag3
(g7
S'\xd9\x82\xc1;'
p2731
tp2732
Rp2733
ag3
(g7
S'\xf9\x18\xce<'
p2734
tp2735
Rp2736
ag3
(g7
S'\x8d\xab\xc6<'
p2737
tp2738
Rp2739
ag3
(g7
S'N\x8e\x95='
p2740
tp2741
Rp2742
ag3
(g7
S'\x01\xbe-='
p2743
tp2744
Rp2745
ag3
(g7
S'\xd8\x94\xb9<'
p2746
tp2747
Rp2748
ag3
(g7
S'\n\x90\x8e;'
p2749
tp2750
Rp2751
ag3
(g7
S'7\xceK='
p2752
tp2753
Rp2754
ag3
(g7
S'L;\x81='
p2755
tp2756
Rp2757
ag3
(g7
S'x.\xce<'
p2758
tp2759
Rp2760
ag3
(g7
S'n\x0e\x80;'
p2761
tp2762
Rp2763
ag3
(g7
S'\xfb\xe9\x84='
p2764
tp2765
Rp2766
ag3
(g7
S'\x92j\xbc<'
p2767
tp2768
Rp2769
ag3
(g7
S'\xee\x01\xba<'
p2770
tp2771
Rp2772
ag3
(g7
S'\xb6\xa2?='
p2773
tp2774
Rp2775
ag3
(g7
S'\x04~k;'
p2776
tp2777
Rp2778
ag3
(g7
S'!\xe1\xab<'
p2779
tp2780
Rp2781
ag3
(g7
S'\xba0\x1e='
p2782
tp2783
Rp2784
ag3
(g7
S',i\xb4;'
p2785
tp2786
Rp2787
ag3
(g7
S'\x02\xcb\xa5;'
p2788
tp2789
Rp2790
ag3
(g7
S'\x19\x8b\xa8;'
p2791
tp2792
Rp2793
ag3
(g7
S'\xc5\xa8\xc1<'
p2794
tp2795
Rp2796
ag3
(g7
S'\x1e\x10\x9f;'
p2797
tp2798
Rp2799
ag3
(g7
S'K\xbb\xb1<'
p2800
tp2801
Rp2802
ag3
(g7
S'mc\x91;'
p2803
tp2804
Rp2805
ag3
(g7
S'\xc7;`;'
p2806
tp2807
Rp2808
ag3
(g7
S"\x06'\t<"
p2809
tp2810
Rp2811
ag3
(g7
S'\x94\xd5\x00='
p2812
tp2813
Rp2814
ag3
(g7
S'\xa3\x97\x8a;'
p2815
tp2816
Rp2817
ag3
(g7
S'\x03\xc4\xaa<'
p2818
tp2819
Rp2820
ag3
(g7
S'\x8a\xcb*='
p2821
tp2822
Rp2823
aa(lp2824
g3
(g7
S'Cb\xb0;'
p2825
tp2826
Rp2827
ag3
(g7
S'\x1a.\xa4<'
p2828
tp2829
Rp2830
ag3
(g7
S't\x07Y;'
p2831
tp2832
Rp2833
ag3
(g7
S'\\{\xc4<'
p2834
tp2835
Rp2836
ag3
(g7
S'\xcb\x1d\xf5<'
p2837
tp2838
Rp2839
ag3
(g7
S'\x8e\xc6\xc6<'
p2840
tp2841
Rp2842
ag3
(g7
S'\xb9E\x91:'
p2843
tp2844
Rp2845
ag3
(g7
S'4\x11:;'
p2846
tp2847
Rp2848
ag3
(g7
S"\xf5'\xff:"
p2849
tp2850
Rp2851
ag3
(g7
S',\x1d\xeb<'
p2852
tp2853
Rp2854
ag3
(g7
S'\nK\x80='
p2855
tp2856
Rp2857
ag3
(g7
S'\x1c\xf9{;'
p2858
tp2859
Rp2860
ag3
(g7
S'\xf0\xa6\xb0<'
p2861
tp2862
Rp2863
ag3
(g7
S'\x1e\x0b\xbf<'
p2864
tp2865
Rp2866
ag3
(g7
S'g#\xdb<'
p2867
tp2868
Rp2869
ag3
(g7
S'6/1@'
p2870
tp2871
Rp2872
ag3
(g7
S'\x0c\xf6\xc1<'
p2873
tp2874
Rp2875
ag3
(g7
S'\x89A\x02;'
p2876
tp2877
Rp2878
ag3
(g7
S'\x9c\xd5\x90:'
p2879
tp2880
Rp2881
ag3
(g7
S'\x15\x84W='
p2882
tp2883
Rp2884
ag3
(g7
S'\xf9~v:'
p2885
tp2886
Rp2887
ag3
(g7
S'\x9c\xa1j='
p2888
tp2889
Rp2890
ag3
(g7
S'B;|:'
p2891
tp2892
Rp2893
ag3
(g7
S'\xcd\xd7\xb8='
p2894
tp2895
Rp2896
ag3
(g7
S'\xdf$\x08='
p2897
tp2898
Rp2899
ag3
(g7
S'\xc4e\x08='
p2900
tp2901
Rp2902
ag3
(g7
S'I)\xef<'
p2903
tp2904
Rp2905
ag3
(g7
S'|\x1d\xe6<'
p2906
tp2907
Rp2908
ag3
(g7
S'i\xda\x05='
p2909
tp2910
Rp2911
ag3
(g7
S'Lqg:'
p2912
tp2913
Rp2914
ag3
(g7
S'\xf4\xf5\xcb<'
p2915
tp2916
Rp2917
ag3
(g7
S'k\x9a\xbf<'
p2918
tp2919
Rp2920
aa(lp2921
g3
(g7
S'$\x12\xa6:'
p2922
tp2923
Rp2924
ag3
(g7
S'\xa6,\x83:'
p2925
tp2926
Rp2927
ag3
(g7
S'\xc4\r\xcf<'
p2928
tp2929
Rp2930
ag3
(g7
S'\x0b\x85k;'
p2931
tp2932
Rp2933
ag3
(g7
S'|e\xb3<'
p2934
tp2935
Rp2936
ag3
(g7
S'\x84Kp;'
p2937
tp2938
Rp2939
ag3
(g7
S'1\xdc\xba<'
p2940
tp2941
Rp2942
ag3
(g7
S'\\1\xa9:'
p2943
tp2944
Rp2945
ag3
(g7
S'(d ;'
p2946
tp2947
Rp2948
ag3
(g7
S'G\xa5\t;'
p2949
tp2950
Rp2951
ag3
(g7
S'\xed\xea\x00='
p2952
tp2953
Rp2954
ag3
(g7
S'\xe4\xdb\xae<'
p2955
tp2956
Rp2957
ag3
(g7
S'\xf8\xf1\xa8:'
p2958
tp2959
Rp2960
ag3
(g7
S'2I0='
p2961
tp2962
Rp2963
ag3
(g7
S'\xba\xa0\xcb<'
p2964
tp2965
Rp2966
ag3
(g7
S'\xfc\xe8\xa2<'
p2967
tp2968
Rp2969
ag3
(g7
S'4\r6@'
p2970
tp2971
Rp2972
ag3
(g7
S' \xf0\x9a:'
p2973
tp2974
Rp2975
ag3
(g7
S'\xd7\xea]='
p2976
tp2977
Rp2978
ag3
(g7
S'%\xce\x849'
p2979
tp2980
Rp2981
ag3
(g7
S'\x1bW@='
p2982
tp2983
Rp2984
ag3
(g7
S'\x19J2@'
p2985
tp2986
Rp2987
ag3
(g7
S'YM":'
p2988
tp2989
Rp2990
ag3
(g7
S'\xa257@'
p2991
tp2992
Rp2993
ag3
(g7
S'\xe3@\xd7:'
p2994
tp2995
Rp2996
ag3
(g7
S'\x18\xb3\xa39'
p2997
tp2998
Rp2999
ag3
(g7
S'\xc4\xe4U:'
p3000
tp3001
Rp3002
ag3
(g7
S';\xfal='
p3003
tp3004
Rp3005
ag3
(g7
S'\xacV~='
p3006
tp3007
Rp3008
ag3
(g7
S'GbE;'
p3009
tp3010
Rp3011
ag3
(g7
S'h6\xbd;'
p3012
tp3013
Rp3014
ag3
(g7
S'\xcf\x10\x9f='
p3015
tp3016
Rp3017
aa(lp3018
g3
(g7
S'\xbc\xceB;'
p3019
tp3020
Rp3021
ag3
(g7
S'\x84OA;'
p3022
tp3023
Rp3024
ag3
(g7
S'\xacr\xc7<'
p3025
tp3026
Rp3027
ag3
(g7
S'v;\x01;'
p3028
tp3029
Rp3030
ag3
(g7
S'\x0c\xdc\xdd<'
p3031
tp3032
Rp3033
ag3
(g7
S'w\xc7\xef:'
p3034
tp3035
Rp3036
ag3
(g7
S'\xce\x08l='
p3037
tp3038
Rp3039
ag3
(g7
S'\xa2\x021@'
p3040
tp3041
Rp3042
ag3
(g7
S'\xe1]\x07='
p3043
tp3044
Rp3045
ag3
(g7
S'\xb9^\xd9:'
p3046
tp3047
Rp3048
ag3
(g7
S'\xb8\x8f\x01;'
p3049
tp3050
Rp3051
ag3
(g7
S'\x99\xf9\xa7='
p3052
tp3053
Rp3054
ag3
(g7
S'\xa8\x98\x85='
p3055
tp3056
Rp3057
ag3
(g7
S'\xd0Yw='
p3058
tp3059
Rp3060
ag3
(g7
S'\xc7.m9'
p3061
tp3062
Rp3063
ag3
(g7
S'\xb8>\x05='
p3064
tp3065
Rp3066
ag3
(g7
S'\x0c\x08\xca<'
p3067
tp3068
Rp3069
ag3
(g7
S'1\x91\xc6<'
p3070
tp3071
Rp3072
ag3
(g7
S'[\xa8W='
p3073
tp3074
Rp3075
ag3
(g7
S'\xc5\xf0\x08='
p3076
tp3077
Rp3078
ag3
(g7
S'6@\xbc<'
p3079
tp3080
Rp3081
ag3
(g7
S'\x85\xe7\xb1<'
p3082
tp3083
Rp3084
ag3
(g7
S'\x11$\xb2<'
p3085
tp3086
Rp3087
aa(lp3088
g3
(g7
S'4\x96\xa0<'
p3089
tp3090
Rp3091
ag3
(g7
S'\xb7\x8c(;'
p3092
tp3093
Rp3094
ag3
(g7
S'\\\xb8\xb0<'
p3095
tp3096
Rp3097
ag3
(g7
S'\x92\x91~;'
p3098
tp3099
Rp3100
ag3
(g7
S'\xc2\x1b\xfa<'
p3101
tp3102
Rp3103
ag3
(g7
S'\xf0\xf3\xb6<'
p3104
tp3105
Rp3106
ag3
(g7
S't\xf1\xb0;'
p3107
tp3108
Rp3109
ag3
(g7
S'\xec\xaa\x07='
p3110
tp3111
Rp3112
ag3
(g7
S'\x8a\x9e\xb5<'
p3113
tp3114
Rp3115
ag3
(g7
S'~e\x8b;'
p3116
tp3117
Rp3118
ag3
(g7
S'\xad\xd1\x93<'
p3119
tp3120
Rp3121
ag3
(g7
S'\xe7\xdev;'
p3122
tp3123
Rp3124
ag3
(g7
S'\x9e\xe2!='
p3125
tp3126
Rp3127
ag3
(g7
S'\xe4\xa8*;'
p3128
tp3129
Rp3130
ag3
(g7
S'\xf2\xd64='
p3131
tp3132
Rp3133
ag3
(g7
S'\xe4|\x12;'
p3134
tp3135
Rp3136
ag3
(g7
S'p\xe5\xee<'
p3137
tp3138
Rp3139
ag3
(g7
S'\xa7\xf5\x86;'
p3140
tp3141
Rp3142
ag3
(g7
S'U\xfc2@'
p3143
tp3144
Rp3145
ag3
(g7
S'\x96\xa77@'
p3146
tp3147
Rp3148
ag3
(g7
S'r\x99\xa2='
p3149
tp3150
Rp3151
ag3
(g7
S'\xb4\x1c\xf1:'
p3152
tp3153
Rp3154
ag3
(g7
S'b8\x0c='
p3155
tp3156
Rp3157
ag3
(g7
S'T\x93\x03='
p3158
tp3159
Rp3160
ag3
(g7
S'73\xb2:'
p3161
tp3162
Rp3163
ag3
(g7
S'\xd6\xcf\t='
p3164
tp3165
Rp3166
ag3
(g7
S'\x9e\x1d\xfe:'
p3167
tp3168
Rp3169
ag3
(g7
S'[\xe5\x08='
p3170
tp3171
Rp3172
ag3
(g7
S'\x1c\x94\x07='
p3173
tp3174
Rp3175
ag3
(g7
S'\xc7g\x0e='
p3176
tp3177
Rp3178
ag3
(g7
S'4\xba\xb6:'
p3179
tp3180
Rp3181
ag3
(g7
S'~\xcc\xee<'
p3182
tp3183
Rp3184
aa(lp3185
g3
(g7
S'V\x14\x88:'
p3186
tp3187
Rp3188
ag3
(g7
S'\xc7\xfcl='
p3189
tp3190
Rp3191
ag3
(g7
S'\x0e7\x07;'
p3192
tp3193
Rp3194
ag3
(g7
S'\x0cC\x06='
p3195
tp3196
Rp3197
ag3
(g7
S'\x12d\n='
p3198
tp3199
Rp3200
ag3
(g7
S'\x1d\x06\x86:'
p3201
tp3202
Rp3203
ag3
(g7
S'\xdce\x07='
p3204
tp3205
Rp3206
ag3
(g7
S'av\x00='
p3207
tp3208
Rp3209
ag3
(g7
S'\xba\xf8.@'
p3210
tp3211
Rp3212
ag3
(g7
S'\xbe\xd7\xcf<'
p3213
tp3214
Rp3215
ag3
(g7
S'mV\xc0<'
p3216
tp3217
Rp3218
ag3
(g7
S'\x9c\x90O='
p3219
tp3220
Rp3221
ag3
(g7
S'\xb2x\x8d='
p3222
tp3223
Rp3224
ag3
(g7
S'\xb8\x83\x18='
p3225
tp3226
Rp3227
ag3
(g7
S'\x92\xdd\xe9<'
p3228
tp3229
Rp3230
ag3
(g7
S'\x94X\xcb<'
p3231
tp3232
Rp3233
ag3
(g7
S'\x9cq\xb9<'
p3234
tp3235
Rp3236
ag3
(g7
S's\xa4\x87='
p3237
tp3238
Rp3239
ag3
(g7
S'`%\xda<'
p3240
tp3241
Rp3242
ag3
(g7
S'\x0f\xd0\x17='
p3243
tp3244
Rp3245
ag3
(g7
S'\xa1\xcf\x10='
p3246
tp3247
Rp3248
ag3
(g7
S'=O\x8c<'
p3249
tp3250
Rp3251
ag3
(g7
S'\xcb\x9eh<'
p3252
tp3253
Rp3254
ag3
(g7
S'r\xa8\x9b<'
p3255
tp3256
Rp3257
ag3
(g7
S'\xc4{\x07<'
p3258
tp3259
Rp3260
ag3
(g7
S'#:2<'
p3261
tp3262
Rp3263
ag3
(g7
S'\xc3\xb3\xde<'
p3264
tp3265
Rp3266
ag3
(g7
S'\xaa\x07\xd7<'
p3267
tp3268
Rp3269
ag3
(g7
S'\xe0\x0c\x85<'
p3270
tp3271
Rp3272
ag3
(g7
S'\x84d*@'
p3273
tp3274
Rp3275
ag3
(g7
S'\xb4P\x00<'
p3276
tp3277
Rp3278
ag3
(g7
S'\xd0O\xd6<'
p3279
tp3280
Rp3281
aa(lp3282
g3
(g7
S'\xdfK\xc8<'
p3283
tp3284
Rp3285
ag3
(g7
S'\xd2\x94\x04='
p3286
tp3287
Rp3288
ag3
(g7
S'/\xe36='
p3289
tp3290
Rp3291
ag3
(g7
S'Bo\x8d<'
p3292
tp3293
Rp3294
ag3
(g7
S'\x8a\x99)='
p3295
tp3296
Rp3297
ag3
(g7
S'\xcb2\xce<'
p3298
tp3299
Rp3300
ag3
(g7
S'u\x06\x0b='
p3301
tp3302
Rp3303
ag3
(g7
S'm\xc0\xbb<'
p3304
tp3305
Rp3306
ag3
(g7
S'k\x8b\xb4<'
p3307
tp3308
Rp3309
ag3
(g7
S'\x12\xc1\x0f<'
p3310
tp3311
Rp3312
ag3
(g7
S'\xd9.Y<'
p3313
tp3314
Rp3315
ag3
(g7
S'\xaaY\x08='
p3316
tp3317
Rp3318
ag3
(g7
S'?\xfe\x10='
p3319
tp3320
Rp3321
ag3
(g7
S'\x9b\x14\xe0<'
p3322
tp3323
Rp3324
ag3
(g7
S'\x1b\xea\xdb<'
p3325
tp3326
Rp3327
ag3
(g7
S'$\xca\x03<'
p3328
tp3329
Rp3330
ag3
(g7
S'\xac\x17\xed<'
p3331
tp3332
Rp3333
ag3
(g7
S'\xf4\xf3\xd4;'
p3334
tp3335
Rp3336
ag3
(g7
S'S\x1b\xb5;'
p3337
tp3338
Rp3339
ag3
(g7
S'\x13p\x02='
p3340
tp3341
Rp3342
ag3
(g7
S'\xcb\xda\xe3<'
p3343
tp3344
Rp3345
ag3
(g7
S'\x92\xf6\xa8;'
p3346
tp3347
Rp3348
ag3
(g7
S'i\x83C='
p3349
tp3350
Rp3351
ag3
(g7
S'\x1c\x87\xe8<'
p3352
tp3353
Rp3354
ag3
(g7
S'd\x01\xf9:'
p3355
tp3356
Rp3357
ag3
(g7
S'6\x90\x8b;'
p3358
tp3359
Rp3360
ag3
(g7
S'T\xb8\xf9<'
p3361
tp3362
Rp3363
ag3
(g7
S'n\xea\xc8<'
p3364
tp3365
Rp3366
ag3
(g7
S'!\xf52='
p3367
tp3368
Rp3369
ag3
(g7
S'\xbc\\\xc1<'
p3370
tp3371
Rp3372
ag3
(g7
S'\x13\xb5\xbc<'
p3373
tp3374
Rp3375
ag3
(g7
S'|\xff/@'
p3376
tp3377
Rp3378
aa(lp3379
g3
(g7
S'\x90\x95\xc5<'
p3380
tp3381
Rp3382
ag3
(g7
S'K\\;;'
p3383
tp3384
Rp3385
ag3
(g7
S'I\x07\xe8:'
p3386
tp3387
Rp3388
ag3
(g7
S'\x7f\xf1\x07;'
p3389
tp3390
Rp3391
ag3
(g7
S'p\xa2\xe5<'
p3392
tp3393
Rp3394
ag3
(g7
S'\x13\x03\x0c='
p3395
tp3396
Rp3397
ag3
(g7
S'\xb1\x81\xb8:'
p3398
tp3399
Rp3400
ag3
(g7
S'\xacW\xf9<'
p3401
tp3402
Rp3403
ag3
(g7
S';\x95\xc5:'
p3404
tp3405
Rp3406
ag3
(g7
S'\x16\xba\x99:'
p3407
tp3408
Rp3409
ag3
(g7
S"'s1@"
p3410
tp3411
Rp3412
ag3
(g7
S'\xf87\x02='
p3413
tp3414
Rp3415
ag3
(g7
S'\xfa1\x89='
p3416
tp3417
Rp3418
ag3
(g7
S'_\xac\xe2:'
p3419
tp3420
Rp3421
ag3
(g7
S'\xecu\x17='
p3422
tp3423
Rp3424
ag3
(g7
S'\xccI\xa3:'
p3425
tp3426
Rp3427
ag3
(g7
S'4\xec\xd1='
p3428
tp3429
Rp3430
ag3
(g7
S'  \x95:'
p3431
tp3432
Rp3433
ag3
(g7
S')\xfc\xbd:'
p3434
tp3435
Rp3436
ag3
(g7
S'\xdb\x890@'
p3437
tp3438
Rp3439
ag3
(g7
S'\xfer\t='
p3440
tp3441
Rp3442
aa(lp3443
g3
(g7
S'\xacC/;'
p3444
tp3445
Rp3446
ag3
(g7
S'\xdc\xc8\xda:'
p3447
tp3448
Rp3449
ag3
(g7
S'\xdcs2@'
p3450
tp3451
Rp3452
ag3
(g7
S'\xfe\x1a3@'
p3453
tp3454
Rp3455
ag3
(g7
S'\x1a\xf8.;'
p3456
tp3457
Rp3458
ag3
(g7
S',g\x12='
p3459
tp3460
Rp3461
ag3
(g7
S'-*!='
p3462
tp3463
Rp3464
ag3
(g7
S';\x1f\x8e='
p3465
tp3466
Rp3467
ag3
(g7
S'p\xdb\x0f='
p3468
tp3469
Rp3470
ag3
(g7
S'F"\x8e='
p3471
tp3472
Rp3473
ag3
(g7
S"'\xae\x1c<"
p3474
tp3475
Rp3476
ag3
(g7
S'\xd0\x96\xf0<'
p3477
tp3478
Rp3479
ag3
(g7
S"'-\xdf<"
p3480
tp3481
Rp3482
ag3
(g7
S'\x9a]\x06<'
p3483
tp3484
Rp3485
ag3
(g7
S'\xa7\xcb#='
p3486
tp3487
Rp3488
ag3
(g7
S' \x94\xe7;'
p3489
tp3490
Rp3491
ag3
(g7
S'7\xc2\x84;'
p3492
tp3493
Rp3494
ag3
(g7
S'\xeaK\x8e='
p3495
tp3496
Rp3497
ag3
(g7
S';\xbc9@'
p3498
tp3499
Rp3500
ag3
(g7
S'&\x82\xda<'
p3501
tp3502
Rp3503
ag3
(g7
S'(\xfa\xb6;'
p3504
tp3505
Rp3506
ag3
(g7
S'O\xf2$='
p3507
tp3508
Rp3509
ag3
(g7
S'Eq\xe9;'
p3510
tp3511
Rp3512
ag3
(g7
S'\x90\xbd\xef<'
p3513
tp3514
Rp3515
ag3
(g7
S'\xc9\x15e<'
p3516
tp3517
Rp3518
ag3
(g7
S'k\xb8\xe8<'
p3519
tp3520
Rp3521
ag3
(g7
S'\xd6.\x84<'
p3522
tp3523
Rp3524
ag3
(g7
S'\xb7\xf6\xff<'
p3525
tp3526
Rp3527
ag3
(g7
S'`qM<'
p3528
tp3529
Rp3530
ag3
(g7
S'\x90f\x95<'
p3531
tp3532
Rp3533
ag3
(g7
S'\xac\xd1\xe4<'
p3534
tp3535
Rp3536
ag3
(g7
S'[\x05\xbb<'
p3537
tp3538
Rp3539
aa(lp3540
g3
(g7
S'\x8da\x05<'
p3541
tp3542
Rp3543
ag3
(g7
S'\xc50e<'
p3544
tp3545
Rp3546
ag3
(g7
S'\x0b\xa4p<'
p3547
tp3548
Rp3549
ag3
(g7
S'%\t\x0c='
p3550
tp3551
Rp3552
ag3
(g7
S'\xdeQ)@'
p3553
tp3554
Rp3555
ag3
(g7
S'Vj\xb1;'
p3556
tp3557
Rp3558
ag3
(g7
S'\xe9x\xa9;'
p3559
tp3560
Rp3561
ag3
(g7
S'\xc7\x9d/<'
p3562
tp3563
Rp3564
ag3
(g7
S'\xa1\x7f\x8f<'
p3565
tp3566
Rp3567
ag3
(g7
S'\xef\xc2<<'
p3568
tp3569
Rp3570
ag3
(g7
S'[-\xc6<'
p3571
tp3572
Rp3573
ag3
(g7
S'\x1e\xa2\xc7<'
p3574
tp3575
Rp3576
ag3
(g7
S'\xbfK[<'
p3577
tp3578
Rp3579
ag3
(g7
S'\xefi\x85<'
p3580
tp3581
Rp3582
ag3
(g7
S'\x8c\x1d\xa7<'
p3583
tp3584
Rp3585
ag3
(g7
S'\x03\xc69@'
p3586
tp3587
Rp3588
ag3
(g7
S'0\x15Z<'
p3589
tp3590
Rp3591
ag3
(g7
S'<k\xe4<'
p3592
tp3593
Rp3594
ag3
(g7
S'\x9e\xd5/<'
p3595
tp3596
Rp3597
ag3
(g7
S'\xb0r\x18='
p3598
tp3599
Rp3600
ag3
(g7
S'l\xdc\xed;'
p3601
tp3602
Rp3603
ag3
(g7
S'\xcc\xd5\xca;'
p3604
tp3605
Rp3606
ag3
(g7
S'{\xb8\xd6<'
p3607
tp3608
Rp3609
ag3
(g7
S'\xe1B)@'
p3610
tp3611
Rp3612
ag3
(g7
S'\xa9n\x17<'
p3613
tp3614
Rp3615
ag3
(g7
S')\x80\xfd<'
p3616
tp3617
Rp3618
ag3
(g7
S'8\x95\xd0;'
p3619
tp3620
Rp3621
ag3
(g7
S'\xd3\x0e\xa4='
p3622
tp3623
Rp3624
ag3
(g7
S'B<\xd0;'
p3625
tp3626
Rp3627
ag3
(g7
S'\xb5\xf6\x10<'
p3628
tp3629
Rp3630
ag3
(g7
S'\x8e\x91\xdb;'
p3631
tp3632
Rp3633
ag3
(g7
S'\xb6\x11\x04<'
p3634
tp3635
Rp3636
aa(lp3637
g3
(g7
S'\x87\xc6\xed;'
p3638
tp3639
Rp3640
ag3
(g7
S"'D/@"
p3641
tp3642
Rp3643
ag3
(g7
S'~\x1as;'
p3644
tp3645
Rp3646
ag3
(g7
S'B\xa9\xf7<'
p3647
tp3648
Rp3649
ag3
(g7
S'5\x86\x8f='
p3650
tp3651
Rp3652
ag3
(g7
S'$\xc1\x07='
p3653
tp3654
Rp3655
ag3
(g7
S'\xa1\xde\x95='
p3656
tp3657
Rp3658
ag3
(g7
S'\x03\x9b\x89;'
p3659
tp3660
Rp3661
ag3
(g7
S'\xb2\xa7\xcf;'
p3662
tp3663
Rp3664
ag3
(g7
S'\xc4\x18\xd0;'
p3665
tp3666
Rp3667
ag3
(g7
S'\x84\x99$='
p3668
tp3669
Rp3670
ag3
(g7
S'\xea\x982@'
p3671
tp3672
Rp3673
ag3
(g7
S'B\xf7x;'
p3674
tp3675
Rp3676
ag3
(g7
S'\x9e\xe5\x98;'
p3677
tp3678
Rp3679
ag3
(g7
S'u\xad*='
p3680
tp3681
Rp3682
ag3
(g7
S'\x85\xc1\xe8;'
p3683
tp3684
Rp3685
ag3
(g7
S'hV*='
p3686
tp3687
Rp3688
ag3
(g7
S'\xbf\x8c\x15<'
p3689
tp3690
Rp3691
ag3
(g7
S's@\x11='
p3692
tp3693
Rp3694
ag3
(g7
S'\x9e\xd9J<'
p3695
tp3696
Rp3697
ag3
(g7
S'\xeeF\xc2<'
p3698
tp3699
Rp3700
ag3
(g7
S'd\x9e/@'
p3701
tp3702
Rp3703
ag3
(g7
S'I4\xd8;'
p3704
tp3705
Rp3706
ag3
(g7
S'\xfa\xe6\x1f='
p3707
tp3708
Rp3709
ag3
(g7
S'bZ\x9d;'
p3710
tp3711
Rp3712
ag3
(g7
S'{z\x8e='
p3713
tp3714
Rp3715
ag3
(g7
S'\xba\x15\x86='
p3716
tp3717
Rp3718
ag3
(g7
S'\xb4z\xb1;'
p3719
tp3720
Rp3721
ag3
(g7
S'\xfb\x18\x94='
p3722
tp3723
Rp3724
ag3
(g7
S'7\xd4\x85='
p3725
tp3726
Rp3727
ag3
(g7
S'b\xd4\x93='
p3728
tp3729
Rp3730
ag3
(g7
S'\xaa\xa10@'
p3731
tp3732
Rp3733
aa(lp3734
g3
(g7
S'\x0e\x95\xa7;'
p3735
tp3736
Rp3737
ag3
(g7
S'\xe0\xab\x1d='
p3738
tp3739
Rp3740
ag3
(g7
S"[;';"
p3741
tp3742
Rp3743
ag3
(g7
S'J\xc1+='
p3744
tp3745
Rp3746
ag3
(g7
S' j)='
p3747
tp3748
Rp3749
ag3
(g7
S'\xac\xbdw;'
p3750
tp3751
Rp3752
ag3
(g7
S'\x03t&='
p3753
tp3754
Rp3755
ag3
(g7
S'\x9d\x13\x08='
p3756
tp3757
Rp3758
ag3
(g7
S'\xb8\\\x94='
p3759
tp3760
Rp3761
ag3
(g7
S'E!!='
p3762
tp3763
Rp3764
ag3
(g7
S'\xae\x0b+@'
p3765
tp3766
Rp3767
ag3
(g7
S'{ \x8a='
p3768
tp3769
Rp3770
ag3
(g7
S'\x0bu\xf0<'
p3771
tp3772
Rp3773
ag3
(g7
S'\xfb\xf6\xfc<'
p3774
tp3775
Rp3776
ag3
(g7
S'\x0f\x9d\xc5='
p3777
tp3778
Rp3779
ag3
(g7
S'\xd4\x06\x1e='
p3780
tp3781
Rp3782
ag3
(g7
S'n\x14\xb7;'
p3783
tp3784
Rp3785
ag3
(g7
S'\x12.\x8b='
p3786
tp3787
Rp3788
ag3
(g7
S'\x85i,<'
p3789
tp3790
Rp3791
ag3
(g7
S'\x89\x0c5<'
p3792
tp3793
Rp3794
ag3
(g7
S'\x17\xc5\x05='
p3795
tp3796
Rp3797
ag3
(g7
S'\xe3\x84&='
p3798
tp3799
Rp3800
ag3
(g7
S'*\xfbC='
p3801
tp3802
Rp3803
ag3
(g7
S'\x0b,\xeb;'
p3804
tp3805
Rp3806
ag3
(g7
S'\xde\x8c\xea;'
p3807
tp3808
Rp3809
ag3
(g7
S'\xfb`O<'
p3810
tp3811
Rp3812
ag3
(g7
S'T\xefP='
p3813
tp3814
Rp3815
ag3
(g7
S'\x10e\xae<'
p3816
tp3817
Rp3818
ag3
(g7
S')U\xec;'
p3819
tp3820
Rp3821
ag3
(g7
S'\x14b\xf6<'
p3822
tp3823
Rp3824
ag3
(g7
S'2[\xed<'
p3825
tp3826
Rp3827
ag3
(g7
S'\xa6zL='
p3828
tp3829
Rp3830
aa(lp3831
g3
(g7
S'\x9c\xc5O='
p3832
tp3833
Rp3834
ag3
(g7
S'?\x151<'
p3835
tp3836
Rp3837
ag3
(g7
S',\xa5\x81;'
p3838
tp3839
Rp3840
ag3
(g7
S'\x85\x86\x00<'
p3841
tp3842
Rp3843
ag3
(g7
S'<\xc8\x1b<'
p3844
tp3845
Rp3846
ag3
(g7
S'\n\xc8\x8e;'
p3847
tp3848
Rp3849
ag3
(g7
S'\xf6A\x91;'
p3850
tp3851
Rp3852
ag3
(g7
S'\x07\xc4\xb0;'
p3853
tp3854
Rp3855
ag3
(g7
S'B"\xa6;'
p3856
tp3857
Rp3858
ag3
(g7
S'\x1c\x1a\x86;'
p3859
tp3860
Rp3861
ag3
(g7
S'\x80k\xa3;'
p3862
tp3863
Rp3864
ag3
(g7
S'\x0f\xc9\x00='
p3865
tp3866
Rp3867
ag3
(g7
S'tG\xcd<'
p3868
tp3869
Rp3870
ag3
(g7
S'%\x14\xd4<'
p3871
tp3872
Rp3873
ag3
(g7
S';\xfe\xdf<'
p3874
tp3875
Rp3876
ag3
(g7
S'Mh\x91;'
p3877
tp3878
Rp3879
ag3
(g7
S'\x93\x1c\x11;'
p3880
tp3881
Rp3882
ag3
(g7
S'Z\xe4\n;'
p3883
tp3884
Rp3885
ag3
(g7
S'\xe6M\xcf:'
p3886
tp3887
Rp3888
ag3
(g7
S'\xe3<\x81='
p3889
tp3890
Rp3891
ag3
(g7
S'|e\xdc<'
p3892
tp3893
Rp3894
ag3
(g7
S'D"h='
p3895
tp3896
Rp3897
ag3
(g7
S'\xf3\x1c\x89;'
p3898
tp3899
Rp3900
ag3
(g7
S'\x03\x96\xdd<'
p3901
tp3902
Rp3903
ag3
(g7
S'-B\x90;'
p3904
tp3905
Rp3906
ag3
(g7
S'\x02\x85\x01='
p3907
tp3908
Rp3909
ag3
(g7
S'\xc3|\xa9;'
p3910
tp3911
Rp3912
ag3
(g7
S'l\xa1H;'
p3913
tp3914
Rp3915
ag3
(g7
S'\x97\xee\x0b='
p3916
tp3917
Rp3918
ag3
(g7
S'>\x8a\xb0:'
p3919
tp3920
Rp3921
ag3
(g7
S'l\x99\x0b='
p3922
tp3923
Rp3924
ag3
(g7
S'\xd4\xf1\xff<'
p3925
tp3926
Rp3927
aa(lp3928
g3
(g7
S'd\x0e\xcf<'
p3929
tp3930
Rp3931
ag3
(g7
S'\x1f7c='
p3932
tp3933
Rp3934
ag3
(g7
S'\xca\xd1\x05='
p3935
tp3936
Rp3937
ag3
(g7
S'06`;'
p3938
tp3939
Rp3940
ag3
(g7
S'\xfc,\x05='
p3941
tp3942
Rp3943
ag3
(g7
S'\xd3d\xb7='
p3944
tp3945
Rp3946
ag3
(g7
S'\x83\x80\x96='
p3947
tp3948
Rp3949
ag3
(g7
S'\xb3\xd2\x12;'
p3950
tp3951
Rp3952
ag3
(g7
S'\xc4\xaf\xe9<'
p3953
tp3954
Rp3955
ag3
(g7
S'\xe4sV='
p3956
tp3957
Rp3958
ag3
(g7
S'\xa7\xdd\x9b='
p3959
tp3960
Rp3961
ag3
(g7
S'\x98\xd7\xa9;'
p3962
tp3963
Rp3964
ag3
(g7
S'\x0e\x94i;'
p3965
tp3966
Rp3967
ag3
(g7
S'@&\x91<'
p3968
tp3969
Rp3970
ag3
(g7
S'\xc5\xe6\x80;'
p3971
tp3972
Rp3973
ag3
(g7
S'\xc65$='
p3974
tp3975
Rp3976
ag3
(g7
S'\xf1\xfa\x8f<'
p3977
tp3978
Rp3979
ag3
(g7
S']\\\x1e='
p3980
tp3981
Rp3982
ag3
(g7
S'1\x0f\xa8<'
p3983
tp3984
Rp3985
ag3
(g7
S'%\x03^;'
p3986
tp3987
Rp3988
ag3
(g7
S'\xf7\xc0\x87<'
p3989
tp3990
Rp3991
ag3
(g7
S'\xcb\xe21='
p3992
tp3993
Rp3994
ag3
(g7
S',\xcb9@'
p3995
tp3996
Rp3997
ag3
(g7
S'\xcc\xddp;'
p3998
tp3999
Rp4000
ag3
(g7
S'\x87\x18:='
p4001
tp4002
Rp4003
ag3
(g7
S'\xd5\xfa\t='
p4004
tp4005
Rp4006
aa(lp4007
g3
(g7
S'$\xf0$;'
p4008
tp4009
Rp4010
ag3
(g7
S'\xe6\xbb\x99;'
p4011
tp4012
Rp4013
ag3
(g7
S'8R7='
p4014
tp4015
Rp4016
ag3
(g7
S'0\x8e\x17<'
p4017
tp4018
Rp4019
ag3
(g7
S'\xeb\xbd\x85<'
p4020
tp4021
Rp4022
ag3
(g7
S"v'\x07<"
p4023
tp4024
Rp4025
ag3
(g7
S'WG\xfd<'
p4026
tp4027
Rp4028
ag3
(g7
S'\x00\xb9\xe8;'
p4029
tp4030
Rp4031
ag3
(g7
S'\x07\x16G;'
p4032
tp4033
Rp4034
ag3
(g7
S'\x9d_?;'
p4035
tp4036
Rp4037
ag3
(g7
S'\xfdZ\x1f;'
p4038
tp4039
Rp4040
ag3
(g7
S'\xde(\x96<'
p4041
tp4042
Rp4043
ag3
(g7
S'\xb2e\x0e;'
p4044
tp4045
Rp4046
ag3
(g7
S'A\xa0?='
p4047
tp4048
Rp4049
ag3
(g7
S'M\x9d\xab:'
p4050
tp4051
Rp4052
ag3
(g7
S'D\xbc\x9e;'
p4053
tp4054
Rp4055
ag3
(g7
S'\xf5u\xc7<'
p4056
tp4057
Rp4058
ag3
(g7
S'\x1c\x92j:'
p4059
tp4060
Rp4061
ag3
(g7
S'r\x9f\xf6:'
p4062
tp4063
Rp4064
ag3
(g7
S'\xe8\xea\xb1<'
p4065
tp4066
Rp4067
ag3
(g7
S'\xccU\xee<'
p4068
tp4069
Rp4070
ag3
(g7
S':\xed2='
p4071
tp4072
Rp4073
ag3
(g7
S'\xb9\xc1\xc2<'
p4074
tp4075
Rp4076
ag3
(g7
S'us\xd4:'
p4077
tp4078
Rp4079
ag3
(g7
S';R\xfc:'
p4080
tp4081
Rp4082
ag3
(g7
S'\xd1\x96\x9b:'
p4083
tp4084
Rp4085
ag3
(g7
S'\x82b\xbb<'
p4086
tp4087
Rp4088
ag3
(g7
S'\xfc7\xb2<'
p4089
tp4090
Rp4091
ag3
(g7
S'L\xbd\xee:'
p4092
tp4093
Rp4094
ag3
(g7
S'X\xd2\x03;'
p4095
tp4096
Rp4097
ag3
(g7
S'\x0c\x11\xbb<'
p4098
tp4099
Rp4100
ag3
(g7
S'b]o;'
p4101
tp4102
Rp4103
aa(lp4104
g3
(g7
S'\x1c\xa3\xb5<'
p4105
tp4106
Rp4107
ag3
(g7
S'H\xbf\x00;'
p4108
tp4109
Rp4110
ag3
(g7
S'\x12\x17\x05;'
p4111
tp4112
Rp4113
ag3
(g7
S'\x1d\x9f\x01;'
p4114
tp4115
Rp4116
ag3
(g7
S' \x1dp='
p4117
tp4118
Rp4119
ag3
(g7
S'F\x7f\x9f<'
p4120
tp4121
Rp4122
ag3
(g7
S'qI\xa0<'
p4123
tp4124
Rp4125
ag3
(g7
S'\xe8\xc4*@'
p4126
tp4127
Rp4128
ag3
(g7
S'\xde\x9a\xa7<'
p4129
tp4130
Rp4131
ag3
(g7
S'\xdcg\xa7<'
p4132
tp4133
Rp4134
ag3
(g7
S'\xf3\x10\xd8;'
p4135
tp4136
Rp4137
ag3
(g7
S'\xb7\xa8\xf5;'
p4138
tp4139
Rp4140
ag3
(g7
S'\xf4T@<'
p4141
tp4142
Rp4143
ag3
(g7
S'e\x0fo<'
p4144
tp4145
Rp4146
ag3
(g7
S'@\xccf<'
p4147
tp4148
Rp4149
ag3
(g7
S'wt*@'
p4150
tp4151
Rp4152
ag3
(g7
S'\xb0\x7f*@'
p4153
tp4154
Rp4155
ag3
(g7
S'[\xf8:='
p4156
tp4157
Rp4158
ag3
(g7
S'E\x03j='
p4159
tp4160
Rp4161
ag3
(g7
S'\xf9\xac\x90='
p4162
tp4163
Rp4164
ag3
(g7
S'\x83S\xa0='
p4165
tp4166
Rp4167
ag3
(g7
S'2\xa0\xaa='
p4168
tp4169
Rp4170
ag3
(g7
S'\x1b5\xc8='
p4171
tp4172
Rp4173
ag3
(g7
S'\x07,\xf8='
p4174
tp4175
Rp4176
ag3
(g7
S'\xc5\xe4*='
p4177
tp4178
Rp4179
ag3
(g7
S'M\xaaL@'
p4180
tp4181
Rp4182
ag3
(g7
S'\t\x81D='
p4183
tp4184
Rp4185
ag3
(g7
S'\xd8d\xa6='
p4186
tp4187
Rp4188
ag3
(g7
S'\x1d\xc3\x8f='
p4189
tp4190
Rp4191
ag3
(g7
S'\xc4-\xfa<'
p4192
tp4193
Rp4194
ag3
(g7
S'4`\x9b<'
p4195
tp4196
Rp4197
ag3
(g7
S'\xf2O;='
p4198
tp4199
Rp4200
aa(lp4201
g3
(g7
S'p\x97p='
p4202
tp4203
Rp4204
ag3
(g7
S'E\xbf\xdc<'
p4205
tp4206
Rp4207
ag3
(g7
S'\xae\xe0x='
p4208
tp4209
Rp4210
ag3
(g7
S'\x19\x80\xe4<'
p4211
tp4212
Rp4213
ag3
(g7
S'>]\xfc<'
p4214
tp4215
Rp4216
ag3
(g7
S'$?\xb8<'
p4217
tp4218
Rp4219
ag3
(g7
S'8\xf5\x8a<'
p4220
tp4221
Rp4222
ag3
(g7
S'qR\x0f='
p4223
tp4224
Rp4225
ag3
(g7
S'\xf4\xc3\x99<'
p4226
tp4227
Rp4228
ag3
(g7
S'\xcb\x92}<'
p4229
tp4230
Rp4231
ag3
(g7
S'\x93\xce\x0c<'
p4232
tp4233
Rp4234
ag3
(g7
S'n\x11\xfa<'
p4235
tp4236
Rp4237
ag3
(g7
S'8\xb0G<'
p4238
tp4239
Rp4240
ag3
(g7
S'l8\x07<'
p4241
tp4242
Rp4243
ag3
(g7
S"\xeb'\xf8;"
p4244
tp4245
Rp4246
ag3
(g7
S'u\xd1\xbf<'
p4247
tp4248
Rp4249
ag3
(g7
S']\xa7N='
p4250
tp4251
Rp4252
ag3
(g7
S'\xe3\x8b\x11<'
p4253
tp4254
Rp4255
ag3
(g7
S'\x0c\xb2P;'
p4256
tp4257
Rp4258
ag3
(g7
S']R\xbb;'
p4259
tp4260
Rp4261
ag3
(g7
S'\x14\xc2\xa3;'
p4262
tp4263
Rp4264
ag3
(g7
S'\xfc\x0b/='
p4265
tp4266
Rp4267
ag3
(g7
S'1\xfe(='
p4268
tp4269
Rp4270
ag3
(g7
S'\x17\xa8\xa6;'
p4271
tp4272
Rp4273
ag3
(g7
S'5}\x16='
p4274
tp4275
Rp4276
ag3
(g7
S'\xddH\x97;'
p4277
tp4278
Rp4279
ag3
(g7
S'\x01\xc4\xdb;'
p4280
tp4281
Rp4282
ag3
(g7
S'\xf3\n\x0f='
p4283
tp4284
Rp4285
ag3
(g7
S'N\xd8\x85;'
p4286
tp4287
Rp4288
ag3
(g7
S't\xab.@'
p4289
tp4290
Rp4291
ag3
(g7
S'N\xe2\x1a='
p4292
tp4293
Rp4294
ag3
(g7
S'\x91\x02\x1f='
p4295
tp4296
Rp4297
aa(lp4298
g3
(g7
S'\xeeT"='
p4299
tp4300
Rp4301
ag3
(g7
S'\x0c\xe0!='
p4302
tp4303
Rp4304
ag3
(g7
S'\x9d\xa6:;'
p4305
tp4306
Rp4307
ag3
(g7
S"P\x8e'="
p4308
tp4309
Rp4310
ag3
(g7
S'\x1c\x13%='
p4311
tp4312
Rp4313
ag3
(g7
S'D\xf3\x07;'
p4314
tp4315
Rp4316
ag3
(g7
S'\x98e\x1d;'
p4317
tp4318
Rp4319
ag3
(g7
S'\xe4q"='
p4320
tp4321
Rp4322
ag3
(g7
S'j\x88\x1c='
p4323
tp4324
Rp4325
ag3
(g7
S'\xbf}\x18='
p4326
tp4327
Rp4328
ag3
(g7
S'\x97\x8f\x14='
p4329
tp4330
Rp4331
ag3
(g7
S'"\xf3\x1d='
p4332
tp4333
Rp4334
ag3
(g7
S'\xf4\xf5\x91='
p4335
tp4336
Rp4337
aa(lp4338
g3
(g7
S'\xb9\xcde;'
p4339
tp4340
Rp4341
ag3
(g7
S'\x0b\xc9\x8f='
p4342
tp4343
Rp4344
ag3
(g7
S' M{;'
p4345
tp4346
Rp4347
ag3
(g7
S'\x91t\x06='
p4348
tp4349
Rp4350
ag3
(g7
S'\x02\xf3|;'
p4351
tp4352
Rp4353
ag3
(g7
S'Ml4@'
p4354
tp4355
Rp4356
ag3
(g7
S'\xb0\xe9\x19;'
p4357
tp4358
Rp4359
ag3
(g7
S'\xbe\xe4\xf2<'
p4360
tp4361
Rp4362
ag3
(g7
S'w\xd6H;'
p4363
tp4364
Rp4365
ag3
(g7
S'\x8f\xf5\x03='
p4366
tp4367
Rp4368
ag3
(g7
S'%g\xf0<'
p4369
tp4370
Rp4371
ag3
(g7
S'.ML<'
p4372
tp4373
Rp4374
ag3
(g7
S'\xa5\x06~<'
p4375
tp4376
Rp4377
ag3
(g7
S'mj\xb2<'
p4378
tp4379
Rp4380
ag3
(g7
S'\xe1\xd6@<'
p4381
tp4382
Rp4383
ag3
(g7
S'\r5\x14<'
p4384
tp4385
Rp4386
ag3
(g7
S'"N_<'
p4387
tp4388
Rp4389
ag3
(g7
S'd\x92\x0b='
p4390
tp4391
Rp4392
ag3
(g7
S'l\xdb\xf1<'
p4393
tp4394
Rp4395
ag3
(g7
S'd\x98\xe5;'
p4396
tp4397
Rp4398
ag3
(g7
S'Y\x92\x12<'
p4399
tp4400
Rp4401
ag3
(g7
S'\xccz\x18<'
p4402
tp4403
Rp4404
ag3
(g7
S'<\xbf\xea;'
p4405
tp4406
Rp4407
ag3
(g7
S',4\xe4<'
p4408
tp4409
Rp4410
ag3
(g7
S'\x0f*\xbf;'
p4411
tp4412
Rp4413
ag3
(g7
S'\x19c\xf9<'
p4414
tp4415
Rp4416
ag3
(g7
S'\xb8x\x94;'
p4417
tp4418
Rp4419
ag3
(g7
S'h\xd5H='
p4420
tp4421
Rp4422
ag3
(g7
S'\xf4q\\;'
p4423
tp4424
Rp4425
ag3
(g7
S'\xa2\xce\xd0;'
p4426
tp4427
Rp4428
ag3
(g7
S'\xe9A\x87;'
p4429
tp4430
Rp4431
ag3
(g7
S'\x9en6;'
p4432
tp4433
Rp4434
aa(lp4435
g3
(g7
S'\x06\x11\x03;'
p4436
tp4437
Rp4438
ag3
(g7
S'W`V='
p4439
tp4440
Rp4441
ag3
(g7
S'iW\xbe<'
p4442
tp4443
Rp4444
ag3
(g7
S'\x14;\xc5<'
p4445
tp4446
Rp4447
ag3
(g7
S'\n#[;'
p4448
tp4449
Rp4450
ag3
(g7
S'!\x92\x10='
p4451
tp4452
Rp4453
ag3
(g7
S'\xa4z\x03;'
p4454
tp4455
Rp4456
ag3
(g7
S'UIg;'
p4457
tp4458
Rp4459
ag3
(g7
S'\xca\xd5\x1f='
p4460
tp4461
Rp4462
ag3
(g7
S'4z\x0c;'
p4463
tp4464
Rp4465
ag3
(g7
S'\xd96w='
p4466
tp4467
Rp4468
ag3
(g7
S'\xb9\xc8\xec<'
p4469
tp4470
Rp4471
ag3
(g7
S'\xc8f=;'
p4472
tp4473
Rp4474
ag3
(g7
S'AwK:'
p4475
tp4476
Rp4477
ag3
(g7
S'\xf7j\x02;'
p4478
tp4479
Rp4480
ag3
(g7
S'VE\xd8<'
p4481
tp4482
Rp4483
ag3
(g7
S',\xfd\x10='
p4484
tp4485
Rp4486
ag3
(g7
S'\x13q\x0b='
p4487
tp4488
Rp4489
ag3
(g7
S'a\xaf.@'
p4490
tp4491
Rp4492
aa(lp4493
g3
(g7
S'\x9cWj='
p4494
tp4495
Rp4496
ag3
(g7
S'\xd6I\x06;'
p4497
tp4498
Rp4499
ag3
(g7
S';^\xc4<'
p4500
tp4501
Rp4502
ag3
(g7
S'\x02\xf8\xc9;'
p4503
tp4504
Rp4505
ag3
(g7
S'\x86\xb0\r<'
p4506
tp4507
Rp4508
ag3
(g7
S'E\x82\xc1<'
p4509
tp4510
Rp4511
ag3
(g7
S'\xa3\xee)<'
p4512
tp4513
Rp4514
ag3
(g7
S'\x0c\xc21<'
p4515
tp4516
Rp4517
ag3
(g7
S'\x1c\x13\x0e='
p4518
tp4519
Rp4520
ag3
(g7
S'\xb2\x05\x89<'
p4521
tp4522
Rp4523
ag3
(g7
S'\x0e(\xf8;'
p4524
tp4525
Rp4526
ag3
(g7
S'\x8a?\xda;'
p4527
tp4528
Rp4529
ag3
(g7
S'B\xd2\xc4<'
p4530
tp4531
Rp4532
ag3
(g7
S'EG\xc5<'
p4533
tp4534
Rp4535
ag3
(g7
S'\xdc\xe1x;'
p4536
tp4537
Rp4538
ag3
(g7
S't\x9e\xa9<'
p4539
tp4540
Rp4541
ag3
(g7
S's\xa7\x1c='
p4542
tp4543
Rp4544
ag3
(g7
S'\xe9,v;'
p4545
tp4546
Rp4547
ag3
(g7
S'\xd8\x8a\x86;'
p4548
tp4549
Rp4550
ag3
(g7
S'\xb4f\x98;'
p4551
tp4552
Rp4553
ag3
(g7
S'\xcbx\xb3<'
p4554
tp4555
Rp4556
ag3
(g7
S'\xf9\xbc.@'
p4557
tp4558
Rp4559
ag3
(g7
S'\x94\x1f\xaf;'
p4560
tp4561
Rp4562
ag3
(g7
S'Kl\xaf<'
p4563
tp4564
Rp4565
ag3
(g7
S'D\x04\xa4<'
p4566
tp4567
Rp4568
ag3
(g7
S'\x90\xea7@'
p4569
tp4570
Rp4571
ag3
(g7
S'L\x18\xdf;'
p4572
tp4573
Rp4574
ag3
(g7
S'\xdc8\x83;'
p4575
tp4576
Rp4577
ag3
(g7
S'D\x0b\xf9:'
p4578
tp4579
Rp4580
ag3
(g7
S'\xb3\xd1B='
p4581
tp4582
Rp4583
ag3
(g7
S'\x9d\xe55='
p4584
tp4585
Rp4586
ag3
(g7
S'\xb35.@'
p4587
tp4588
Rp4589
aa(lp4590
g3
(g7
S'\xc5\xe7\x01;'
p4591
tp4592
Rp4593
ag3
(g7
S'E\xa2\xe8<'
p4594
tp4595
Rp4596
ag3
(g7
S'\xde\xa5\xf0<'
p4597
tp4598
Rp4599
ag3
(g7
S'}\x92\xb9<'
p4600
tp4601
Rp4602
ag3
(g7
S'nm\xc0;'
p4603
tp4604
Rp4605
ag3
(g7
S'\x1e\xa0\xbe;'
p4606
tp4607
Rp4608
ag3
(g7
S'\xce\x1b\x8d='
p4609
tp4610
Rp4611
ag3
(g7
S'\xb4:\xcd;'
p4612
tp4613
Rp4614
ag3
(g7
S'\xda\xc7-@'
p4615
tp4616
Rp4617
ag3
(g7
S'e+\xe7<'
p4618
tp4619
Rp4620
ag3
(g7
S'\xd0}\xe5<'
p4621
tp4622
Rp4623
ag3
(g7
S'\x02\x805<'
p4624
tp4625
Rp4626
ag3
(g7
S'\xec\\;<'
p4627
tp4628
Rp4629
ag3
(g7
S'zY.<'
p4630
tp4631
Rp4632
ag3
(g7
S'k0m='
p4633
tp4634
Rp4635
ag3
(g7
S'\xdb\xfeg<'
p4636
tp4637
Rp4638
ag3
(g7
S'0}:@'
p4639
tp4640
Rp4641
ag3
(g7
S'\xd4\xa6\xfa;'
p4642
tp4643
Rp4644
ag3
(g7
S'\x90\x807@'
p4645
tp4646
Rp4647
ag3
(g7
S'\x85\xa6X='
p4648
tp4649
Rp4650
ag3
(g7
S'\x07W\xe7<'
p4651
tp4652
Rp4653
ag3
(g7
S'\xd3\x94@;'
p4654
tp4655
Rp4656
ag3
(g7
S'\r\xe6\x81;'
p4657
tp4658
Rp4659
ag3
(g7
S'\xc8\xad\x92;'
p4660
tp4661
Rp4662
ag3
(g7
S'\xact(@'
p4663
tp4664
Rp4665
ag3
(g7
S'g\x8a\xac;'
p4666
tp4667
Rp4668
ag3
(g7
S'F\x96\xab;'
p4669
tp4670
Rp4671
ag3
(g7
S"8\xc5'<"
p4672
tp4673
Rp4674
ag3
(g7
S'g-\xb0@'
p4675
tp4676
Rp4677
ag3
(g7
S'\xe2\x82_<'
p4678
tp4679
Rp4680
ag3
(g7
S'-F?='
p4681
tp4682
Rp4683
ag3
(g7
S'P3O<'
p4684
tp4685
Rp4686
aa(lp4687
g3
(g7
S'\x08"\x01>'
p4688
tp4689
Rp4690
ag3
(g7
S'\x05\xadE='
p4691
tp4692
Rp4693
ag3
(g7
S'C!\x8d<'
p4694
tp4695
Rp4696
ag3
(g7
S'f\x1b[='
p4697
tp4698
Rp4699
ag3
(g7
S'?\xe46<'
p4700
tp4701
Rp4702
ag3
(g7
S'\xbd\x97P<'
p4703
tp4704
Rp4705
ag3
(g7
S'\xc9\xdbU<'
p4706
tp4707
Rp4708
ag3
(g7
S'\x04NG='
p4709
tp4710
Rp4711
ag3
(g7
S'\xce\x8e\xf8;'
p4712
tp4713
Rp4714
ag3
(g7
S'L.\xae;'
p4715
tp4716
Rp4717
ag3
(g7
S'U\xf1Y;'
p4718
tp4719
Rp4720
ag3
(g7
S'l\x844;'
p4721
tp4722
Rp4723
ag3
(g7
S'\xa9\xf7~;'
p4724
tp4725
Rp4726
ag3
(g7
S'\x00])='
p4727
tp4728
Rp4729
ag3
(g7
S'\xe93\xc0;'
p4730
tp4731
Rp4732
ag3
(g7
S'\x05N\x8a;'
p4733
tp4734
Rp4735
ag3
(g7
S'\xcc\xb6\xa9='
p4736
tp4737
Rp4738
ag3
(g7
S'hh7='
p4739
tp4740
Rp4741
ag3
(g7
S'\x14+8='
p4742
tp4743
Rp4744
ag3
(g7
S'\x07\x166='
p4745
tp4746
Rp4747
ag3
(g7
S'\xcf\x88)@'
p4748
tp4749
Rp4750
ag3
(g7
S'\xd7_\xe6;'
p4751
tp4752
Rp4753
ag3
(g7
S'74\x88;'
p4754
tp4755
Rp4756
ag3
(g7
S'\xd0\xc1\xd8<'
p4757
tp4758
Rp4759
ag3
(g7
S'8"G<'
p4760
tp4761
Rp4762
ag3
(g7
S'\xf2/\x05='
p4763
tp4764
Rp4765
ag3
(g7
S'\xaer\x18='
p4766
tp4767
Rp4768
ag3
(g7
S"'h6<"
p4769
tp4770
Rp4771
ag3
(g7
S'5s*<'
p4772
tp4773
Rp4774
ag3
(g7
S'\xa3\x82<<'
p4775
tp4776
Rp4777
ag3
(g7
S'|\xdf\xfa<'
p4778
tp4779
Rp4780
ag3
(g7
S'\x8a\x1a;<'
p4781
tp4782
Rp4783
aa(lp4784
g3
(g7
S'\xa7\xe8H='
p4785
tp4786
Rp4787
ag3
(g7
S'\xab1\xe6<'
p4788
tp4789
Rp4790
ag3
(g7
S'\x1c\x933@'
p4791
tp4792
Rp4793
ag3
(g7
S'\xd0\x1b\x00<'
p4794
tp4795
Rp4796
ag3
(g7
S'&*\xd5<'
p4797
tp4798
Rp4799
ag3
(g7
S'\x9fQ\x00='
p4800
tp4801
Rp4802
ag3
(g7
S'\x04#8<'
p4803
tp4804
Rp4805
ag3
(g7
S'|am='
p4806
tp4807
Rp4808
ag3
(g7
S'\xbc[;<'
p4809
tp4810
Rp4811
ag3
(g7
S'\x1cO\t='
p4812
tp4813
Rp4814
ag3
(g7
S'\xffHA='
p4815
tp4816
Rp4817
ag3
(g7
S"\x8cT'@"
p4818
tp4819
Rp4820
ag3
(g7
S'k6\xce='
p4821
tp4822
Rp4823
ag3
(g7
S'\x99\xc8\xf7<'
p4824
tp4825
Rp4826
ag3
(g7
S'\x8c6\x82='
p4827
tp4828
Rp4829
ag3
(g7
S'\xb9=\xdd;'
p4830
tp4831
Rp4832
ag3
(g7
S'.\x02q='
p4833
tp4834
Rp4835
ag3
(g7
S'\x8c*\xa3;'
p4836
tp4837
Rp4838
ag3
(g7
S'+\xc7\x13='
p4839
tp4840
Rp4841
ag3
(g7
S'\xe9\xe3\xe0;'
p4842
tp4843
Rp4844
ag3
(g7
S'K>\xfe;'
p4845
tp4846
Rp4847
ag3
(g7
S'<A\x03='
p4848
tp4849
Rp4850
ag3
(g7
S'T\x9c\x05<'
p4851
tp4852
Rp4853
ag3
(g7
S'4a+<'
p4854
tp4855
Rp4856
ag3
(g7
S'\xb1d\x92='
p4857
tp4858
Rp4859
ag3
(g7
S'\xa1\x7f"='
p4860
tp4861
Rp4862
ag3
(g7
S'\xc47\x82;'
p4863
tp4864
Rp4865
ag3
(g7
S'\x05\x1b\xfc:'
p4866
tp4867
Rp4868
ag3
(g7
S'\x08\xd4C<'
p4869
tp4870
Rp4871
ag3
(g7
S'\xd2\xd5\xaf;'
p4872
tp4873
Rp4874
ag3
(g7
S'|\xc0\x8c;'
p4875
tp4876
Rp4877
ag3
(g7
S'\xe0\x0e\xd3<'
p4878
tp4879
Rp4880
aa(lp4881
g3
(g7
S'\xbbH\xd3<'
p4882
tp4883
Rp4884
ag3
(g7
S'~\xc3\x1c;'
p4885
tp4886
Rp4887
ag3
(g7
S'\x1c\x82Y;'
p4888
tp4889
Rp4890
ag3
(g7
S'\xb4\x07\x0f='
p4891
tp4892
Rp4893
ag3
(g7
S'"\xbd\x9e;'
p4894
tp4895
Rp4896
ag3
(g7
S'\x8d}\x9f;'
p4897
tp4898
Rp4899
ag3
(g7
S'\xfeJ!='
p4900
tp4901
Rp4902
ag3
(g7
S'S\x93\xb0;'
p4903
tp4904
Rp4905
ag3
(g7
S'\x9d\x82\t='
p4906
tp4907
Rp4908
ag3
(g7
S'\xe5\x9c\x0f='
p4909
tp4910
Rp4911
ag3
(g7
S'\xb9\xd8\xf1<'
p4912
tp4913
Rp4914
ag3
(g7
S'|\x1fD;'
p4915
tp4916
Rp4917
ag3
(g7
S'\x16\x9e\xa3;'
p4918
tp4919
Rp4920
ag3
(g7
S'C\xd70;'
p4921
tp4922
Rp4923
ag3
(g7
S'\xe4N\xe8<'
p4924
tp4925
Rp4926
ag3
(g7
S'W\xa3\xd3:'
p4927
tp4928
Rp4929
ag3
(g7
S'\x8d\xaa\x15;'
p4930
tp4931
Rp4932
ag3
(g7
S'\x16\x1eD;'
p4933
tp4934
Rp4935
ag3
(g7
S'\xab\x87:;'
p4936
tp4937
Rp4938
ag3
(g7
S'p\xca\x1c;'
p4939
tp4940
Rp4941
ag3
(g7
S'\x8b\xc4\xfe<'
p4942
tp4943
Rp4944
ag3
(g7
S"'\x1e\xfa<"
p4945
tp4946
Rp4947
aa(lp4948
g3
(g7
S'\x1a\x04>;'
p4949
tp4950
Rp4951
ag3
(g7
S'\x07\xdd\xea<'
p4952
tp4953
Rp4954
ag3
(g7
S'\x9bm\x87='
p4955
tp4956
Rp4957
ag3
(g7
S'\x94\xfa\x9d:'
p4958
tp4959
Rp4960
ag3
(g7
S'\xf2\xea\x8f='
p4961
tp4962
Rp4963
ag3
(g7
S'\xff)\x11='
p4964
tp4965
Rp4966
ag3
(g7
S'\xd4x\x99:'
p4967
tp4968
Rp4969
ag3
(g7
S'N\xab3;'
p4970
tp4971
Rp4972
ag3
(g7
S'\x84\xbb\x0c;'
p4973
tp4974
Rp4975
ag3
(g7
S'\xce\xc8u='
p4976
tp4977
Rp4978
ag3
(g7
S'j9Q;'
p4979
tp4980
Rp4981
ag3
(g7
S'\xabV\xbd:'
p4982
tp4983
Rp4984
ag3
(g7
S'D\xdf\x82:'
p4985
tp4986
Rp4987
ag3
(g7
S'\xbc\xe1\x0b='
p4988
tp4989
Rp4990
ag3
(g7
S'F\xab\n='
p4991
tp4992
Rp4993
ag3
(g7
S'4b\xd1:'
p4994
tp4995
Rp4996
ag3
(g7
S'\x10\xfc\n;'
p4997
tp4998
Rp4999
ag3
(g7
S' \xaa\xff<'
p5000
tp5001
Rp5002
ag3
(g7
S'\x9bxh='
p5003
tp5004
Rp5005
ag3
(g7
S'$cX='
p5006
tp5007
Rp5008
ag3
(g7
S'\xa3u\xc8:'
p5009
tp5010
Rp5011
ag3
(g7
S'\xb4\xc5)@'
p5012
tp5013
Rp5014
ag3
(g7
S'\x87^\x03;'
p5015
tp5016
Rp5017
ag3
(g7
S'\\\x02\xf6<'
p5018
tp5019
Rp5020
ag3
(g7
S'\xbb\xa0\xf8<'
p5021
tp5022
Rp5023
ag3
(g7
S'EV%<'
p5024
tp5025
Rp5026
ag3
(g7
S'\xddX\x9b;'
p5027
tp5028
Rp5029
ag3
(g7
S'\x9bT\xf8<'
p5030
tp5031
Rp5032
ag3
(g7
S'\xd2F\xa6<'
p5033
tp5034
Rp5035
ag3
(g7
S'\x13+\n='
p5036
tp5037
Rp5038
ag3
(g7
S'\xfe\x0f*@'
p5039
tp5040
Rp5041
ag3
(g7
S'\x05\x1a:='
p5042
tp5043
Rp5044
aa(lp5045
g3
(g7
S'SJ\x82<'
p5046
tp5047
Rp5048
ag3
(g7
S'\xbc;\xb9<'
p5049
tp5050
Rp5051
ag3
(g7
S'\xe7!\n='
p5052
tp5053
Rp5054
ag3
(g7
S'\x13K(='
p5055
tp5056
Rp5057
ag3
(g7
S'\xf9\xf2\x0c='
p5058
tp5059
Rp5060
ag3
(g7
S'\x97\xa4\x16='
p5061
tp5062
Rp5063
ag3
(g7
S'\xbcJr<'
p5064
tp5065
Rp5066
ag3
(g7
S'\xc5\xa1\xbe<'
p5067
tp5068
Rp5069
ag3
(g7
S'Y\xcb)@'
p5070
tp5071
Rp5072
ag3
(g7
S'\x1d\xda\n='
p5073
tp5074
Rp5075
ag3
(g7
S'\xd0\xae6='
p5076
tp5077
Rp5078
ag3
(g7
S'\x84\x18:='
p5079
tp5080
Rp5081
ag3
(g7
S'\xb4\xd3P='
p5082
tp5083
Rp5084
ag3
(g7
S'\xac1@='
p5085
tp5086
Rp5087
ag3
(g7
S'\xeb<\x13='
p5088
tp5089
Rp5090
ag3
(g7
S'\x0eC\xf4<'
p5091
tp5092
Rp5093
ag3
(g7
S'\xc8B\x07='
p5094
tp5095
Rp5096
ag3
(g7
S'\x82\xccg='
p5097
tp5098
Rp5099
ag3
(g7
S';\x1c7='
p5100
tp5101
Rp5102
ag3
(g7
S'\x04F\xd3<'
p5103
tp5104
Rp5105
ag3
(g7
S'\xf3\x08\x1f='
p5106
tp5107
Rp5108
ag3
(g7
S'\x7f\x04\x99<'
p5109
tp5110
Rp5111
ag3
(g7
S'\t\x1e\xe5<'
p5112
tp5113
Rp5114
ag3
(g7
S'+\x07\x86<'
p5115
tp5116
Rp5117
ag3
(g7
S'i@\xfb<'
p5118
tp5119
Rp5120
ag3
(g7
S'}\xf4\xd6<'
p5121
tp5122
Rp5123
ag3
(g7
S'g\xcf\xc6<'
p5124
tp5125
Rp5126
ag3
(g7
S'\x9a\t)<'
p5127
tp5128
Rp5129
ag3
(g7
S'>{\xf2;'
p5130
tp5131
Rp5132
ag3
(g7
S'N\xb7\xf2;'
p5133
tp5134
Rp5135
ag3
(g7
S'7v\xe6;'
p5136
tp5137
Rp5138
ag3
(g7
S'Pb\xf4;'
p5139
tp5140
Rp5141
aa(lp5142
g3
(g7
S'\xce\xeb\xc4;'
p5143
tp5144
Rp5145
ag3
(g7
S'\x85\x0e~='
p5146
tp5147
Rp5148
ag3
(g7
S'\xfc\x1d\r<'
p5149
tp5150
Rp5151
ag3
(g7
S'z\x0c:='
p5152
tp5153
Rp5154
ag3
(g7
S'\xab\xfb\xb3;'
p5155
tp5156
Rp5157
ag3
(g7
S'\x1d\xeaD;'
p5158
tp5159
Rp5160
ag3
(g7
S'\xe4\x9e\xee<'
p5161
tp5162
Rp5163
ag3
(g7
S'\xe0Jg;'
p5164
tp5165
Rp5166
ag3
(g7
S'\x11\xcd\x1f;'
p5167
tp5168
Rp5169
ag3
(g7
S'\xfb\xc5\xff<'
p5170
tp5171
Rp5172
ag3
(g7
S'\xd9yo;'
p5173
tp5174
Rp5175
ag3
(g7
S'i\xc7\x89;'
p5176
tp5177
Rp5178
ag3
(g7
S'\xf4\xce\\;'
p5179
tp5180
Rp5181
ag3
(g7
S'\x10e\x1e='
p5182
tp5183
Rp5184
ag3
(g7
S'\x80\xa4n;'
p5185
tp5186
Rp5187
ag3
(g7
S';\xcf\x13;'
p5188
tp5189
Rp5190
aa(lp5191
g3
(g7
S'W\xcb\x96='
p5192
tp5193
Rp5194
ag3
(g7
S'2.\xfe<'
p5195
tp5196
Rp5197
ag3
(g7
S'\x97\xbb\n='
p5198
tp5199
Rp5200
ag3
(g7
S'\xf6\x93\x0e='
p5201
tp5202
Rp5203
ag3
(g7
S'\xf1\x88-;'
p5204
tp5205
Rp5206
ag3
(g7
S'\\\xbf)@'
p5207
tp5208
Rp5209
ag3
(g7
S'\x8c\xad\x94='
p5210
tp5211
Rp5212
ag3
(g7
S'\xbc\xc8\x1b='
p5213
tp5214
Rp5215
ag3
(g7
S'\x17\x1d\x1f<'
p5216
tp5217
Rp5218
ag3
(g7
S'sB\xdd<'
p5219
tp5220
Rp5221
ag3
(g7
S'\xec\x0b\xe3<'
p5222
tp5223
Rp5224
ag3
(g7
S'\x06\xcd\x00<'
p5225
tp5226
Rp5227
ag3
(g7
S'U\x9b\n='
p5228
tp5229
Rp5230
ag3
(g7
S'\x9c\x1b\x8a;'
p5231
tp5232
Rp5233
ag3
(g7
S'\xe2\xe1q;'
p5234
tp5235
Rp5236
ag3
(g7
S'Y_6@'
p5237
tp5238
Rp5239
ag3
(g7
S';\xaf\xa2;'
p5240
tp5241
Rp5242
ag3
(g7
S'\xc8\xa7\x0f='
p5243
tp5244
Rp5245
ag3
(g7
S'\x91\xee\xac;'
p5246
tp5247
Rp5248
ag3
(g7
S'2\x02\x8d;'
p5249
tp5250
Rp5251
ag3
(g7
S'w$\xfe;'
p5252
tp5253
Rp5254
ag3
(g7
S'l\xf9\xa9;'
p5255
tp5256
Rp5257
ag3
(g7
S'O\x9f4@'
p5258
tp5259
Rp5260
ag3
(g7
S',\x18\x1e='
p5261
tp5262
Rp5263
ag3
(g7
S'\x8c\xbcv;'
p5264
tp5265
Rp5266
ag3
(g7
S'\x10\x9c\xad:'
p5267
tp5268
Rp5269
ag3
(g7
S'\xce\xf7\x13='
p5270
tp5271
Rp5272
ag3
(g7
S'\x82P\x11='
p5273
tp5274
Rp5275
ag3
(g7
S'^\xc0\x07;'
p5276
tp5277
Rp5278
ag3
(g7
S'\xac\xc1\xfe:'
p5279
tp5280
Rp5281
ag3
(g7
S'<\xaa!;'
p5282
tp5283
Rp5284
ag3
(g7
S'\xb9%\x9f;'
p5285
tp5286
Rp5287
aa(lp5288
g3
(g7
S'\x80\xfd1@'
p5289
tp5290
Rp5291
ag3
(g7
S'\xfd\xb5\x1c;'
p5292
tp5293
Rp5294
ag3
(g7
S'5\x1b\x0c='
p5295
tp5296
Rp5297
ag3
(g7
S'9U\x83;'
p5298
tp5299
Rp5300
ag3
(g7
S't\x9eP;'
p5301
tp5302
Rp5303
ag3
(g7
S'\xc2\xef\xf4<'
p5304
tp5305
Rp5306
ag3
(g7
S'\xd0Pe='
p5307
tp5308
Rp5309
ag3
(g7
S'\xf4\x1d\xe0;'
p5310
tp5311
Rp5312
ag3
(g7
S'\x8c\x0f#<'
p5313
tp5314
Rp5315
ag3
(g7
S'V@\x88;'
p5316
tp5317
Rp5318
ag3
(g7
S'J\xb0\t='
p5319
tp5320
Rp5321
ag3
(g7
S'-\xd2\x8c;'
p5322
tp5323
Rp5324
ag3
(g7
S'\x04\xf3\x90;'
p5325
tp5326
Rp5327
ag3
(g7
S'\x1c\xfa\xed<'
p5328
tp5329
Rp5330
ag3
(g7
S'\xe0\x99@;'
p5331
tp5332
Rp5333
ag3
(g7
S'\x97B\x90;'
p5334
tp5335
Rp5336
ag3
(g7
S'\x17\x9fP;'
p5337
tp5338
Rp5339
ag3
(g7
S'\xdcY/@'
p5340
tp5341
Rp5342
ag3
(g7
S'\x1e\x97\x18;'
p5343
tp5344
Rp5345
ag3
(g7
S'#\x8a;='
p5346
tp5347
Rp5348
ag3
(g7
S'\xcb\x12\xf3<'
p5349
tp5350
Rp5351
ag3
(g7
S'\n\xb2\xd6<'
p5352
tp5353
Rp5354
ag3
(g7
S'\x8b\x10\xf2;'
p5355
tp5356
Rp5357
ag3
(g7
S'DK!<'
p5358
tp5359
Rp5360
ag3
(g7
S'E\x1e*@'
p5361
tp5362
Rp5363
ag3
(g7
S'<A\xc5;'
p5364
tp5365
Rp5366
ag3
(g7
S'$n\xcf<'
p5367
tp5368
Rp5369
ag3
(g7
S'W\xfe\xc7<'
p5370
tp5371
Rp5372
ag3
(g7
S'6\xf8\x1e<'
p5373
tp5374
Rp5375
ag3
(g7
S'\xd1\x86&@'
p5376
tp5377
Rp5378
ag3
(g7
S'"\xae\x86<'
p5379
tp5380
Rp5381
ag3
(g7
S'\x92\x97\xbe<'
p5382
tp5383
Rp5384
aa(lp5385
g3
(g7
S'\x9b\x83\xbe<'
p5386
tp5387
Rp5388
ag3
(g7
S'?\xd8\n='
p5389
tp5390
Rp5391
ag3
(g7
S'\xe5\x9a ='
p5392
tp5393
Rp5394
ag3
(g7
S'\xbb>\x02='
p5395
tp5396
Rp5397
ag3
(g7
S'\x97q\x1c='
p5398
tp5399
Rp5400
ag3
(g7
S'1\x93\x13='
p5401
tp5402
Rp5403
ag3
(g7
S'q\xa7*='
p5404
tp5405
Rp5406
ag3
(g7
S'\x03\xac\x1b='
p5407
tp5408
Rp5409
ag3
(g7
S'2\xf3\x02='
p5410
tp5411
Rp5412
ag3
(g7
S'\xfa\xb8\xce<'
p5413
tp5414
Rp5415
ag3
(g7
S'\xf0\x10\xcc<'
p5416
tp5417
Rp5418
ag3
(g7
S'\x97G\xbb<'
p5419
tp5420
Rp5421
ag3
(g7
S'\xd1\xee\xbd<'
p5422
tp5423
Rp5424
ag3
(g7
S'\x8b\xf9n='
p5425
tp5426
Rp5427
ag3
(g7
S'~\x8bA@'
p5428
tp5429
Rp5430
ag3
(g7
S'~\xc2\xfd<'
p5431
tp5432
Rp5433
ag3
(g7
S'K4\x16<'
p5434
tp5435
Rp5436
ag3
(g7
S'\xf2?\xc1;'
p5437
tp5438
Rp5439
ag3
(g7
S'\x14\x86\xf8<'
p5440
tp5441
Rp5442
ag3
(g7
S'\x19n\xab;'
p5443
tp5444
Rp5445
ag3
(g7
S'O\xca\x0e='
p5446
tp5447
Rp5448
ag3
(g7
S'\x1d\xb0N;'
p5449
tp5450
Rp5451
ag3
(g7
S'\xe1*\xde<'
p5452
tp5453
Rp5454
ag3
(g7
S'\xa4b/@'
p5455
tp5456
Rp5457
ag3
(g7
S'\x1c\x9a\x8a;'
p5458
tp5459
Rp5460
ag3
(g7
S'\xec\xd2\x8e;'
p5461
tp5462
Rp5463
ag3
(g7
S'\xc9\xda\x14='
p5464
tp5465
Rp5466
ag3
(g7
S'c\x854='
p5467
tp5468
Rp5469
ag3
(g7
S'nck;'
p5470
tp5471
Rp5472
ag3
(g7
S'K,\xa3='
p5473
tp5474
Rp5475
ag3
(g7
S'\xf7oh;'
p5476
tp5477
Rp5478
ag3
(g7
S'm\xdb2='
p5479
tp5480
Rp5481
aa(lp5482
g3
(g7
S'\xff\xa0\xa0='
p5483
tp5484
Rp5485
ag3
(g7
S"8r'="
p5486
tp5487
Rp5488
ag3
(g7
S'\xb8\xec\x17;'
p5489
tp5490
Rp5491
ag3
(g7
S'\x9aqZ;'
p5492
tp5493
Rp5494
ag3
(g7
S'0\xdc\x9e;'
p5495
tp5496
Rp5497
ag3
(g7
S'`D\xb4;'
p5498
tp5499
Rp5500
ag3
(g7
S'l\xb7\xe9='
p5501
tp5502
Rp5503
ag3
(g7
S'\x99\xe0\xeb='
p5504
tp5505
Rp5506
ag3
(g7
S'\xea\x1e\xa3='
p5507
tp5508
Rp5509
ag3
(g7
S'\x13-\xa7='
p5510
tp5511
Rp5512
ag3
(g7
S'!K\x19>'
p5513
tp5514
Rp5515
ag3
(g7
S'\xd4\xc0R;'
p5516
tp5517
Rp5518
ag3
(g7
S'\xa2\xbc\x97;'
p5519
tp5520
Rp5521
ag3
(g7
S'\xf3A!='
p5522
tp5523
Rp5524
ag3
(g7
S'\xfcL\xa0;'
p5525
tp5526
Rp5527
ag3
(g7
S'U\x16\x87;'
p5528
tp5529
Rp5530
ag3
(g7
S'^\xfe\x00<'
p5531
tp5532
Rp5533
ag3
(g7
S'4Km;'
p5534
tp5535
Rp5536
ag3
(g7
S'\x02~\xd3;'
p5537
tp5538
Rp5539
ag3
(g7
S'\xfcv(@'
p5540
tp5541
Rp5542
ag3
(g7
S'\xb1G&@'
p5543
tp5544
Rp5545
ag3
(g7
S'\xfa\xdc\x03='
p5546
tp5547
Rp5548
ag3
(g7
S'\xd7\xbe\xed<'
p5549
tp5550
Rp5551
ag3
(g7
S'\xf8\xcdT<'
p5552
tp5553
Rp5554
ag3
(g7
S'\xd7jk<'
p5555
tp5556
Rp5557
ag3
(g7
S'\x94\x8f\x14='
p5558
tp5559
Rp5560
ag3
(g7
S'T6\x06='
p5561
tp5562
Rp5563
ag3
(g7
S't\x03\x14='
p5564
tp5565
Rp5566
ag3
(g7
S"\x1c\xd3'="
p5567
tp5568
Rp5569
ag3
(g7
S'l\xd4\x0c='
p5570
tp5571
Rp5572
ag3
(g7
S'\xb1F&@'
p5573
tp5574
Rp5575
aa(lp5576
g3
(g7
S'\xbcn\x1e='
p5577
tp5578
Rp5579
ag3
(g7
S'y\xe4|='
p5580
tp5581
Rp5582
ag3
(g7
S'v\x05R='
p5583
tp5584
Rp5585
ag3
(g7
S'\x93G>='
p5586
tp5587
Rp5588
ag3
(g7
S'\x8b7:='
p5589
tp5590
Rp5591
ag3
(g7
S'b\xack='
p5592
tp5593
Rp5594
ag3
(g7
S'\x95z\x0c='
p5595
tp5596
Rp5597
ag3
(g7
S'\x05\xa75='
p5598
tp5599
Rp5600
ag3
(g7
S'\xbb\xbcp='
p5601
tp5602
Rp5603
ag3
(g7
S'\xcf\x87\x1c='
p5604
tp5605
Rp5606
ag3
(g7
S'\x1e\xedc='
p5607
tp5608
Rp5609
ag3
(g7
S'`\x85\xee<'
p5610
tp5611
Rp5612
ag3
(g7
S'\x95^\xe0<'
p5613
tp5614
Rp5615
ag3
(g7
S'\x11\xb8\x1f='
p5616
tp5617
Rp5618
ag3
(g7
S'Z\xa4\xd3<'
p5619
tp5620
Rp5621
ag3
(g7
S'>\x14\xec<'
p5622
tp5623
Rp5624
ag3
(g7
S'\x04\x86\x08='
p5625
tp5626
Rp5627
ag3
(g7
S'Z\xe2I='
p5628
tp5629
Rp5630
ag3
(g7
S'\xb1\x81\x8c<'
p5631
tp5632
Rp5633
ag3
(g7
S'"\xa5\xc9<'
p5634
tp5635
Rp5636
ag3
(g7
S'\xfa\xf2\x17='
p5637
tp5638
Rp5639
ag3
(g7
S'\xc4\x8a8<'
p5640
tp5641
Rp5642
ag3
(g7
S'P\xd1\x13<'
p5643
tp5644
Rp5645
ag3
(g7
S'\xfb\x15\xf5<'
p5646
tp5647
Rp5648
ag3
(g7
S'\xb5\x10\x02='
p5649
tp5650
Rp5651
ag3
(g7
S'\xe3\xf4\xd6;'
p5652
tp5653
Rp5654
ag3
(g7
S't\xd3%<'
p5655
tp5656
Rp5657
ag3
(g7
S'+\xd4\x05<'
p5658
tp5659
Rp5660
ag3
(g7
S'\xa4\x95b='
p5661
tp5662
Rp5663
ag3
(g7
S's\xeb\xdc<'
p5664
tp5665
Rp5666
aa(lp5667
g3
(g7
S'\x94x\x80='
p5668
tp5669
Rp5670
ag3
(g7
S'\x18\x90\x08='
p5671
tp5672
Rp5673
ag3
(g7
S'}\xde\xa7;'
p5674
tp5675
Rp5676
ag3
(g7
S'\xef\x83)='
p5677
tp5678
Rp5679
ag3
(g7
S'v\xb7 <'
p5680
tp5681
Rp5682
ag3
(g7
S'\x12$\x08='
p5683
tp5684
Rp5685
ag3
(g7
S'\xd6\xea3='
p5686
tp5687
Rp5688
ag3
(g7
S'\x1b\xa60='
p5689
tp5690
Rp5691
ag3
(g7
S'~e\xce;'
p5692
tp5693
Rp5694
ag3
(g7
S'\xb6\x11\x08='
p5695
tp5696
Rp5697
ag3
(g7
S'\t7\xf2;'
p5698
tp5699
Rp5700
ag3
(g7
S'm\x89\xba;'
p5701
tp5702
Rp5703
ag3
(g7
S'\x921)@'
p5704
tp5705
Rp5706
ag3
(g7
S'^\r1='
p5707
tp5708
Rp5709
ag3
(g7
S'\xa4\xa6\x94='
p5710
tp5711
Rp5712
ag3
(g7
S'(\x90\x98='
p5713
tp5714
Rp5715
ag3
(g7
S'\x8b\xf4!='
p5716
tp5717
Rp5718
ag3
(g7
S'~\x8a\xb0;'
p5719
tp5720
Rp5721
ag3
(g7
S'\xa0\x01\xf2;'
p5722
tp5723
Rp5724
ag3
(g7
S'n\xa3\xa6;'
p5725
tp5726
Rp5727
ag3
(g7
S'|\xa2\xeb;'
p5728
tp5729
Rp5730
ag3
(g7
S'\xefu\x00='
p5731
tp5732
Rp5733
ag3
(g7
S"\x13\x8c'="
p5734
tp5735
Rp5736
ag3
(g7
S'\xcdU#<'
p5737
tp5738
Rp5739
ag3
(g7
S'1\x11%@'
p5740
tp5741
Rp5742
ag3
(g7
S'\x99p\xe9;'
p5743
tp5744
Rp5745
ag3
(g7
S'\x97\xe5\x8d<'
p5746
tp5747
Rp5748
ag3
(g7
S'\x85Z(='
p5749
tp5750
Rp5751
ag3
(g7
S'\x00\xf8\x80<'
p5752
tp5753
Rp5754
ag3
(g7
S'e8w<'
p5755
tp5756
Rp5757
ag3
(g7
S'\xa5Ox<'
p5758
tp5759
Rp5760
ag3
(g7
S'\x85?\xf7<'
p5761
tp5762
Rp5763
aa(lp5764
g3
(g7
S'\x9cD\xc8<'
p5765
tp5766
Rp5767
ag3
(g7
S'\xb9\xebY<'
p5768
tp5769
Rp5770
ag3
(g7
S'\xc5z\\<'
p5771
tp5772
Rp5773
ag3
(g7
S'\xb5\x7f\x13<'
p5774
tp5775
Rp5776
ag3
(g7
S'\x16D\xbb<'
p5777
tp5778
Rp5779
ag3
(g7
S'|\xf2\x81<'
p5780
tp5781
Rp5782
ag3
(g7
S'\x9b\xff=@'
p5783
tp5784
Rp5785
ag3
(g7
S'\x19\xc7)='
p5786
tp5787
Rp5788
ag3
(g7
S'\x97\x02\xf8<'
p5789
tp5790
Rp5791
ag3
(g7
S';\r\xbd<'
p5792
tp5793
Rp5794
ag3
(g7
S'\x9c\xd9\xc3<'
p5795
tp5796
Rp5797
ag3
(g7
S'\xa7:\xdc<'
p5798
tp5799
Rp5800
ag3
(g7
S'\xfa\xad\xd4<'
p5801
tp5802
Rp5803
ag3
(g7
S'\xa4\xf2\t='
p5804
tp5805
Rp5806
ag3
(g7
S'\x82\x0b\x8d<'
p5807
tp5808
Rp5809
ag3
(g7
S'\xc1(&='
p5810
tp5811
Rp5812
ag3
(g7
S'\x97\xfe\x80<'
p5813
tp5814
Rp5815
ag3
(g7
S'\xdc\xaf\xa5<'
p5816
tp5817
Rp5818
ag3
(g7
S'\x07\x19\xf0<'
p5819
tp5820
Rp5821
ag3
(g7
S'Ic\x05='
p5822
tp5823
Rp5824
ag3
(g7
S'\xc2\xf4%='
p5825
tp5826
Rp5827
ag3
(g7
S'\xfc\x03]<'
p5828
tp5829
Rp5830
ag3
(g7
S'\xbbs\x9f<'
p5831
tp5832
Rp5833
aa(lp5834
g3
(g7
S'\xaf\x12,='
p5835
tp5836
Rp5837
ag3
(g7
S'\xb4\x99><'
p5838
tp5839
Rp5840
ag3
(g7
S'UR\x8f<'
p5841
tp5842
Rp5843
ag3
(g7
S'\xdf1-@'
p5844
tp5845
Rp5846
ag3
(g7
S'\x95G\xd4;'
p5847
tp5848
Rp5849
ag3
(g7
S'\xb3_\x9c<'
p5850
tp5851
Rp5852
ag3
(g7
S'f\xd0\xbc<'
p5853
tp5854
Rp5855
ag3
(g7
S'l\xa9\n<'
p5856
tp5857
Rp5858
ag3
(g7
S'd\xe0\xd7<'
p5859
tp5860
Rp5861
ag3
(g7
S'\xf2w\xe7;'
p5862
tp5863
Rp5864
ag3
(g7
S'2L\xf2<'
p5865
tp5866
Rp5867
ag3
(g7
S')\x867@'
p5868
tp5869
Rp5870
ag3
(g7
S'\xa5J\xd4<'
p5871
tp5872
Rp5873
ag3
(g7
S'\xe0\x93\xd5<'
p5874
tp5875
Rp5876
ag3
(g7
S'\xe9\x97p;'
p5877
tp5878
Rp5879
ag3
(g7
S'i\xc51@'
p5880
tp5881
Rp5882
ag3
(g7
S'\xcf\r\x10='
p5883
tp5884
Rp5885
ag3
(g7
S'n\x87,;'
p5886
tp5887
Rp5888
ag3
(g7
S'\x03\xe4\x81='
p5889
tp5890
Rp5891
ag3
(g7
S'pQ\xc2;'
p5892
tp5893
Rp5894
ag3
(g7
S'\x84$\x1b<'
p5895
tp5896
Rp5897
ag3
(g7
S'\x00v\xcf;'
p5898
tp5899
Rp5900
ag3
(g7
S'H\xbbJ;'
p5901
tp5902
Rp5903
ag3
(g7
S'\x17\xd1v;'
p5904
tp5905
Rp5906
ag3
(g7
S'MV-='
p5907
tp5908
Rp5909
ag3
(g7
S'\x84\x06<@'
p5910
tp5911
Rp5912
ag3
(g7
S'x\x97\xac;'
p5913
tp5914
Rp5915
ag3
(g7
S'\xc6f\x81;'
p5916
tp5917
Rp5918
ag3
(g7
S'rd\x9b;'
p5919
tp5920
Rp5921
ag3
(g7
S'\xc5~,='
p5922
tp5923
Rp5924
ag3
(g7
S'\xd6\xce\x12='
p5925
tp5926
Rp5927
aa(lp5928
g3
(g7
S',\x95\xb3;'
p5929
tp5930
Rp5931
ag3
(g7
S'\xbd\xfb\x97;'
p5932
tp5933
Rp5934
ag3
(g7
S'I\x82\xf4<'
p5935
tp5936
Rp5937
ag3
(g7
S'\xd9}\xce;'
p5938
tp5939
Rp5940
ag3
(g7
S'i\x80\x12<'
p5941
tp5942
Rp5943
ag3
(g7
S'%\x87\xee;'
p5944
tp5945
Rp5946
ag3
(g7
S'\xa8\xf9\x03='
p5947
tp5948
Rp5949
ag3
(g7
S'P-\x06='
p5950
tp5951
Rp5952
ag3
(g7
S'\xe0\xc5(@'
p5953
tp5954
Rp5955
ag3
(g7
S'O#Q;'
p5956
tp5957
Rp5958
ag3
(g7
S'K\x8c ;'
p5959
tp5960
Rp5961
ag3
(g7
S'\xe4\x98\x87;'
p5962
tp5963
Rp5964
ag3
(g7
S'yqU='
p5965
tp5966
Rp5967
ag3
(g7
S'a\x80\xa5;'
p5968
tp5969
Rp5970
ag3
(g7
S"\x93\x9a'<"
p5971
tp5972
Rp5973
ag3
(g7
S'y\xfb\xf0;'
p5974
tp5975
Rp5976
ag3
(g7
S'e\x89\xb9;'
p5977
tp5978
Rp5979
ag3
(g7
S'\xee\xd9\xf2;'
p5980
tp5981
Rp5982
ag3
(g7
S'\xab[\xcf;'
p5983
tp5984
Rp5985
ag3
(g7
S'\xec%\xef<'
p5986
tp5987
Rp5988
ag3
(g7
S'\x06\xb4><'
p5989
tp5990
Rp5991
ag3
(g7
S'\xcf\x99M<'
p5992
tp5993
Rp5994
ag3
(g7
S'%\x9a\xe0;'
p5995
tp5996
Rp5997
ag3
(g7
S'\x08\n\xe3<'
p5998
tp5999
Rp6000
ag3
(g7
S'\xd46\xc9<'
p6001
tp6002
Rp6003
ag3
(g7
S'\xb3=\x13='
p6004
tp6005
Rp6006
ag3
(g7
S'n\x05\xab;'
p6007
tp6008
Rp6009
ag3
(g7
S'\xf4\xb3\x1c;'
p6010
tp6011
Rp6012
ag3
(g7
S'L\xc0\x95;'
p6013
tp6014
Rp6015
ag3
(g7
S'\n\xe7\xe0;'
p6016
tp6017
Rp6018
ag3
(g7
S'\xdc\xa1\xb4;'
p6019
tp6020
Rp6021
ag3
(g7
S'C\xfb\xa4='
p6022
tp6023
Rp6024
aa(lp6025
g3
(g7
S'\x8bR%@'
p6026
tp6027
Rp6028
ag3
(g7
S'}\xcb\xd7<'
p6029
tp6030
Rp6031
ag3
(g7
S'l\x00\xbe;'
p6032
tp6033
Rp6034
ag3
(g7
S'\xf8\x0f\x1c='
p6035
tp6036
Rp6037
ag3
(g7
S'\xed?\xc7;'
p6038
tp6039
Rp6040
ag3
(g7
S'\x14v+='
p6041
tp6042
Rp6043
ag3
(g7
S'|\x84%@'
p6044
tp6045
Rp6046
ag3
(g7
S'\xc2G<='
p6047
tp6048
Rp6049
ag3
(g7
S'\xbaY\x04<'
p6050
tp6051
Rp6052
ag3
(g7
S'\xa4\xfe\x04='
p6053
tp6054
Rp6055
ag3
(g7
S'\x94\xca\x1f='
p6056
tp6057
Rp6058
ag3
(g7
S'\x1c\xf2\x94='
p6059
tp6060
Rp6061
ag3
(g7
S'\xf0\xe0\xaf<'
p6062
tp6063
Rp6064
ag3
(g7
S'\xc4%\t='
p6065
tp6066
Rp6067
ag3
(g7
S'z\x08\x87<'
p6068
tp6069
Rp6070
ag3
(g7
S'\x94\x8a=@'
p6071
tp6072
Rp6073
ag3
(g7
S'\xb4AL<'
p6074
tp6075
Rp6076
ag3
(g7
S'\x8b@\xe4<'
p6077
tp6078
Rp6079
ag3
(g7
S'l\xac\x11='
p6080
tp6081
Rp6082
ag3
(g7
S'\xda\xde$@'
p6083
tp6084
Rp6085
ag3
(g7
S'|\x05\xed:'
p6086
tp6087
Rp6088
ag3
(g7
S'Ei\xee;'
p6089
tp6090
Rp6091
ag3
(g7
S'\x05LI<'
p6092
tp6093
Rp6094
ag3
(g7
S'\x10\xb5\xf7;'
p6095
tp6096
Rp6097
ag3
(g7
S'Dgm;'
p6098
tp6099
Rp6100
ag3
(g7
S'.H\xe7;'
p6101
tp6102
Rp6103
ag3
(g7
S'\x06W9@'
p6104
tp6105
Rp6106
ag3
(g7
S'OyK<'
p6107
tp6108
Rp6109
ag3
(g7
S'\xd6"5<'
p6110
tp6111
Rp6112
ag3
(g7
S'\x04\xf2.<'
p6113
tp6114
Rp6115
ag3
(g7
S'\xa1K\xa5<'
p6116
tp6117
Rp6118
ag3
(g7
S'l\xea2='
p6119
tp6120
Rp6121
aa(lp6122
g3
(g7
S'\x0c\x08\x1a='
p6123
tp6124
Rp6125
ag3
(g7
S'\n{$@'
p6126
tp6127
Rp6128
ag3
(g7
S'8\x85\xd3<'
p6129
tp6130
Rp6131
ag3
(g7
S'\xfe\xa0\x8e;'
p6132
tp6133
Rp6134
ag3
(g7
S'\x82&\xff;'
p6135
tp6136
Rp6137
ag3
(g7
S'\xf6\x174@'
p6138
tp6139
Rp6140
ag3
(g7
S'\xbc\x819@'
p6141
tp6142
Rp6143
ag3
(g7
S'\x1b\x152@'
p6144
tp6145
Rp6146
ag3
(g7
S'l\x8dM='
p6147
tp6148
Rp6149
ag3
(g7
S'\r\xe8\x08='
p6150
tp6151
Rp6152
ag3
(g7
S'\xa2\xe7\xf5;'
p6153
tp6154
Rp6155
ag3
(g7
S'\x84J\t<'
p6156
tp6157
Rp6158
ag3
(g7
S'sS\x9d;'
p6159
tp6160
Rp6161
ag3
(g7
S'\xbd\xe9\x9a;'
p6162
tp6163
Rp6164
ag3
(g7
S'z\x8b!='
p6165
tp6166
Rp6167
ag3
(g7
S'\xcb\xb70='
p6168
tp6169
Rp6170
ag3
(g7
S'\xda\xf4\x91;'
p6171
tp6172
Rp6173
ag3
(g7
S'\x91\xe4#='
p6174
tp6175
Rp6176
ag3
(g7
S'4\xaf\xd2;'
p6177
tp6178
Rp6179
ag3
(g7
S'\x0b \xe8;'
p6180
tp6181
Rp6182
ag3
(g7
S'\xa4)3='
p6183
tp6184
Rp6185
ag3
(g7
S'\xd1\xe4\xca;'
p6186
tp6187
Rp6188
ag3
(g7
S'^Q\x98='
p6189
tp6190
Rp6191
ag3
(g7
S'\xa7R <'
p6192
tp6193
Rp6194
ag3
(g7
S'3\xb2\xc3;'
p6195
tp6196
Rp6197
ag3
(g7
S'\xdf\x99$<'
p6198
tp6199
Rp6200
ag3
(g7
S'\xb9u\x05<'
p6201
tp6202
Rp6203
ag3
(g7
S'{\x19N<'
p6204
tp6205
Rp6206
ag3
(g7
S'\n\xe8R<'
p6207
tp6208
Rp6209
ag3
(g7
S'\xa2p,@'
p6210
tp6211
Rp6212
ag3
(g7
S'\xd7)\xe4;'
p6213
tp6214
Rp6215
ag3
(g7
S'\xdc\xc8\x07<'
p6216
tp6217
Rp6218
aa(lp6219
g3
(g7
S'\x9aI\xa0='
p6220
tp6221
Rp6222
ag3
(g7
S'G\xc17='
p6223
tp6224
Rp6225
ag3
(g7
S'\xf3]+@'
p6226
tp6227
Rp6228
ag3
(g7
S'\x18\x01,='
p6229
tp6230
Rp6231
ag3
(g7
S'\xcc$\xa9='
p6232
tp6233
Rp6234
ag3
(g7
S"\xbe\xec'="
p6235
tp6236
Rp6237
ag3
(g7
S'\xe9\x121='
p6238
tp6239
Rp6240
ag3
(g7
S'\x13\xb5$='
p6241
tp6242
Rp6243
ag3
(g7
S'${9@'
p6244
tp6245
Rp6246
ag3
(g7
S'\xe7\x0b\xea;'
p6247
tp6248
Rp6249
ag3
(g7
S'\xab\xab\xeb;'
p6250
tp6251
Rp6252
ag3
(g7
S'fL4='
p6253
tp6254
Rp6255
ag3
(g7
S'\x85\x0c&<'
p6256
tp6257
Rp6258
ag3
(g7
S'ix\x19<'
p6259
tp6260
Rp6261
ag3
(g7
S'C\xcc\x0c<'
p6262
tp6263
Rp6264
ag3
(g7
S' \x01>='
p6265
tp6266
Rp6267
ag3
(g7
S"N\x0e'@"
p6268
tp6269
Rp6270
ag3
(g7
S'lo\x1f<'
p6271
tp6272
Rp6273
ag3
(g7
S'\x1eF><'
p6274
tp6275
Rp6276
ag3
(g7
S'\xcb\xc5\x85='
p6277
tp6278
Rp6279
ag3
(g7
S'4s\xb5;'
p6280
tp6281
Rp6282
ag3
(g7
S'\xdc\xcf*='
p6283
tp6284
Rp6285
ag3
(g7
S'D\x9f2<'
p6286
tp6287
Rp6288
ag3
(g7
S'\xcf\x1e\x0f<'
p6289
tp6290
Rp6291
ag3
(g7
S'\x98\x1a0<'
p6292
tp6293
Rp6294
ag3
(g7
S'b\x9d\r<'
p6295
tp6296
Rp6297
ag3
(g7
S',\xad\xd2<'
p6298
tp6299
Rp6300
ag3
(g7
S'\x13\xf0\x1a='
p6301
tp6302
Rp6303
ag3
(g7
S'L\xff\x87;'
p6304
tp6305
Rp6306
ag3
(g7
S'\xe0\x94"@'
p6307
tp6308
Rp6309
ag3
(g7
S':Y\xe0<'
p6310
tp6311
Rp6312
ag3
(g7
S'D6><'
p6313
tp6314
Rp6315
aa(lp6316
g3
(g7
S'\xb9\xc6*<'
p6317
tp6318
Rp6319
ag3
(g7
S'\xd4\x85r='
p6320
tp6321
Rp6322
ag3
(g7
S'\xc9\xb9\xf9<'
p6323
tp6324
Rp6325
ag3
(g7
S'T\x912@'
p6326
tp6327
Rp6328
ag3
(g7
S'5\x99:<'
p6329
tp6330
Rp6331
ag3
(g7
S'\xd2\xce\x0c='
p6332
tp6333
Rp6334
ag3
(g7
S'p\xa6\xf8<'
p6335
tp6336
Rp6337
ag3
(g7
S'\xde\x0e\x0b<'
p6338
tp6339
Rp6340
ag3
(g7
S'F\xbe<<'
p6341
tp6342
Rp6343
ag3
(g7
S'\xdb\x1d\xc1<'
p6344
tp6345
Rp6346
ag3
(g7
S'=\xac\xba;'
p6347
tp6348
Rp6349
ag3
(g7
S'v\x90\\<'
p6350
tp6351
Rp6352
ag3
(g7
S'$@5<'
p6353
tp6354
Rp6355
ag3
(g7
S"'U9@"
p6356
tp6357
Rp6358
ag3
(g7
S'\x17?\x08<'
p6359
tp6360
Rp6361
ag3
(g7
S'\xdd\xfd-<'
p6362
tp6363
Rp6364
ag3
(g7
S'\x99L\x0c<'
p6365
tp6366
Rp6367
ag3
(g7
S"\xbf'\x87;"
p6368
tp6369
Rp6370
ag3
(g7
S'\xeb{\xcb<'
p6371
tp6372
Rp6373
ag3
(g7
S'2\xd9\x05<'
p6374
tp6375
Rp6376
ag3
(g7
S'$\x19!='
p6377
tp6378
Rp6379
ag3
(g7
S'\x92\x12\x85;'
p6380
tp6381
Rp6382
ag3
(g7
S'\x9fg\x89;'
p6383
tp6384
Rp6385
ag3
(g7
S'\xd9|t='
p6386
tp6387
Rp6388
ag3
(g7
S'\xab>\xfd<'
p6389
tp6390
Rp6391
ag3
(g7
S'\x08\x12\xa4;'
p6392
tp6393
Rp6394
ag3
(g7
S'\x92\xd0\xf5<'
p6395
tp6396
Rp6397
ag3
(g7
S'\xa4\x81\xff;'
p6398
tp6399
Rp6400
ag3
(g7
S'\xcf\xfb\xb2;'
p6401
tp6402
Rp6403
ag3
(g7
S'\x955\x82;'
p6404
tp6405
Rp6406
ag3
(g7
S'\xc3B\x17='
p6407
tp6408
Rp6409
ag3
(g7
S'7s\x1b='
p6410
tp6411
Rp6412
aa(lp6413
g3
(g7
S'\\\xed\xa6;'
p6414
tp6415
Rp6416
ag3
(g7
S'\xafs1<'
p6417
tp6418
Rp6419
ag3
(g7
S'\xec9\xe8;'
p6420
tp6421
Rp6422
ag3
(g7
S'j\xbe\x8b;'
p6423
tp6424
Rp6425
ag3
(g7
S'~]\xd3;'
p6426
tp6427
Rp6428
ag3
(g7
S'\x8e\xef\xf0;'
p6429
tp6430
Rp6431
ag3
(g7
S"'R\x10="
p6432
tp6433
Rp6434
ag3
(g7
S'\xfdT\xa0='
p6435
tp6436
Rp6437
ag3
(g7
S'\x94\x14(@'
p6438
tp6439
Rp6440
ag3
(g7
S'G\xad$='
p6441
tp6442
Rp6443
ag3
(g7
S'\xccJ\xd5;'
p6444
tp6445
Rp6446
ag3
(g7
S'\xa9\xe6~;'
p6447
tp6448
Rp6449
ag3
(g7
S'\x82\xdd\x17<'
p6450
tp6451
Rp6452
ag3
(g7
S'2I/@'
p6453
tp6454
Rp6455
ag3
(g7
S'\xb2\xbc5<'
p6456
tp6457
Rp6458
ag3
(g7
S'\x18^\xd6<'
p6459
tp6460
Rp6461
ag3
(g7
S'g\x98-@'
p6462
tp6463
Rp6464
ag3
(g7
S'\xa6;\x95;'
p6465
tp6466
Rp6467
ag3
(g7
S'\xfb\xb5\x00<'
p6468
tp6469
Rp6470
ag3
(g7
S'\xc9+1<'
p6471
tp6472
Rp6473
ag3
(g7
S'\xcd\x1bC='
p6474
tp6475
Rp6476
ag3
(g7
S'V\x19\xdf<'
p6477
tp6478
Rp6479
ag3
(g7
S'<\xda/<'
p6480
tp6481
Rp6482
ag3
(g7
S'\xff\xcb\xda<'
p6483
tp6484
Rp6485
ag3
(g7
S'\xb4B\x93<'
p6486
tp6487
Rp6488
ag3
(g7
S'\xe2\x0b\x95<'
p6489
tp6490
Rp6491
ag3
(g7
S'Jv\x16='
p6492
tp6493
Rp6494
ag3
(g7
S'E\x0e\xbc<'
p6495
tp6496
Rp6497
ag3
(g7
S'\x15C\x03='
p6498
tp6499
Rp6500
ag3
(g7
S'\xc48\x9d<'
p6501
tp6502
Rp6503
ag3
(g7
S'\x19\xe2^<'
p6504
tp6505
Rp6506
ag3
(g7
S'\x1d\xca\xdb<'
p6507
tp6508
Rp6509
aa(lp6510
g3
(g7
S'2\x9df<'
p6511
tp6512
Rp6513
ag3
(g7
S'W<\xe7<'
p6514
tp6515
Rp6516
ag3
(g7
S'\xd0\x0c\xe8<'
p6517
tp6518
Rp6519
ag3
(g7
S'\x8c/\xca;'
p6520
tp6521
Rp6522
ag3
(g7
S'\xb7\x87\xf7;'
p6523
tp6524
Rp6525
ag3
(g7
S'B\x16F='
p6526
tp6527
Rp6528
ag3
(g7
S'\xcc?\xc7<'
p6529
tp6530
Rp6531
ag3
(g7
S'\xe1}\xc9<'
p6532
tp6533
Rp6534
ag3
(g7
S'\x8c\xf7\xe9;'
p6535
tp6536
Rp6537
ag3
(g7
S'RRo='
p6538
tp6539
Rp6540
ag3
(g7
S'\xae\x9d\x97<'
p6541
tp6542
Rp6543
ag3
(g7
S'qk\xcc<'
p6544
tp6545
Rp6546
ag3
(g7
S'\xd3&\xa3;'
p6547
tp6548
Rp6549
ag3
(g7
S'\xf6\xc2.@'
p6550
tp6551
Rp6552
ag3
(g7
S'\xbc!"='
p6553
tp6554
Rp6555
ag3
(g7
S'\xac:*<'
p6556
tp6557
Rp6558
ag3
(g7
S'\x07\xd1\x02<'
p6559
tp6560
Rp6561
ag3
(g7
S'\xa6_\xc0<'
p6562
tp6563
Rp6564
ag3
(g7
S'\xc3)\xd9<'
p6565
tp6566
Rp6567
ag3
(g7
S'\xd8\xc4\xe2;'
p6568
tp6569
Rp6570
ag3
(g7
S'\x9a\xf6\x01='
p6571
tp6572
Rp6573
ag3
(g7
S'\x9d\x0e\xa7;'
p6574
tp6575
Rp6576
ag3
(g7
S"\x8c\x8c'@"
p6577
tp6578
Rp6579
ag3
(g7
S'\x0b\xc8\xa6;'
p6580
tp6581
Rp6582
ag3
(g7
S'\x80\xda\xa3;'
p6583
tp6584
Rp6585
ag3
(g7
S'\x0c\xb3\xe8;'
p6586
tp6587
Rp6588
ag3
(g7
S'\x04\x00\xbd<'
p6589
tp6590
Rp6591
ag3
(g7
S'^\xa5&='
p6592
tp6593
Rp6594
ag3
(g7
S'\xc8:\x94<'
p6595
tp6596
Rp6597
ag3
(g7
S'\xe4\x15\x1b='
p6598
tp6599
Rp6600
ag3
(g7
S'\xd7\x05\x9d<'
p6601
tp6602
Rp6603
ag3
(g7
S'$?[<'
p6604
tp6605
Rp6606
aa(lp6607
g3
(g7
S'\xb0\x0b\t='
p6608
tp6609
Rp6610
ag3
(g7
S'\xecN\x88<'
p6611
tp6612
Rp6613
ag3
(g7
S'NS\xea;'
p6614
tp6615
Rp6616
ag3
(g7
S'(\x1d9@'
p6617
tp6618
Rp6619
ag3
(g7
S'\x9a\x1d\xcc;'
p6620
tp6621
Rp6622
ag3
(g7
S'\xacL,<'
p6623
tp6624
Rp6625
ag3
(g7
S' .#@'
p6626
tp6627
Rp6628
ag3
(g7
S'\xb3\xd1\x17='
p6629
tp6630
Rp6631
ag3
(g7
S',\xc2F<'
p6632
tp6633
Rp6634
ag3
(g7
S'\x03\x8c\x18<'
p6635
tp6636
Rp6637
ag3
(g7
S'\x9970='
p6638
tp6639
Rp6640
ag3
(g7
S'\x0c3=<'
p6641
tp6642
Rp6643
ag3
(g7
S'\xdb\xfd\x12='
p6644
tp6645
Rp6646
ag3
(g7
S'\xb0\x04\x9b='
p6647
tp6648
Rp6649
ag3
(g7
S'W\x1f\x16='
p6650
tp6651
Rp6652
ag3
(g7
S" \x92'@"
p6653
tp6654
Rp6655
ag3
(g7
S"\xfa'\x1b="
p6656
tp6657
Rp6658
ag3
(g7
S'\x8as\xd4<'
p6659
tp6660
Rp6661
ag3
(g7
S'\x02\xca\xb2<'
p6662
tp6663
Rp6664
ag3
(g7
S'\xa3\xc5\x0f='
p6665
tp6666
Rp6667
ag3
(g7
S'\xa1\x83\xcf<'
p6668
tp6669
Rp6670
ag3
(g7
S'\xe8\xa7\x9f<'
p6671
tp6672
Rp6673
ag3
(g7
S'\xed=\x87<'
p6674
tp6675
Rp6676
ag3
(g7
S'\xeb\xd1c;'
p6677
tp6678
Rp6679
ag3
(g7
S'\x0e\x9a|<'
p6680
tp6681
Rp6682
ag3
(g7
S'H\xd5"='
p6683
tp6684
Rp6685
ag3
(g7
S'i/\x1b<'
p6686
tp6687
Rp6688
ag3
(g7
S'e\xf6\xeb<'
p6689
tp6690
Rp6691
ag3
(g7
S'dOL='
p6692
tp6693
Rp6694
ag3
(g7
S';\x1f\xf8;'
p6695
tp6696
Rp6697
ag3
(g7
S'd\xa6\x06<'
p6698
tp6699
Rp6700
ag3
(g7
S'\xdc\xe7\x03='
p6701
tp6702
Rp6703
aa(lp6704
g3
(g7
S'\x1b\xfa\x13='
p6705
tp6706
Rp6707
ag3
(g7
S',\xfc\x1d='
p6708
tp6709
Rp6710
ag3
(g7
S'\x9eK#<'
p6711
tp6712
Rp6713
ag3
(g7
S'\xef\x18\xd9<'
p6714
tp6715
Rp6716
ag3
(g7
S'h5\xa9;'
p6717
tp6718
Rp6719
ag3
(g7
S'G\xde\xe6<'
p6720
tp6721
Rp6722
ag3
(g7
S'\x1eo\x17='
p6723
tp6724
Rp6725
ag3
(g7
S'\x90\x14><'
p6726
tp6727
Rp6728
ag3
(g7
S'\x1cz\x05='
p6729
tp6730
Rp6731
ag3
(g7
S'i\x90W;'
p6732
tp6733
Rp6734
ag3
(g7
S'\xe0\x82\x15<'
p6735
tp6736
Rp6737
ag3
(g7
S'pu\x17<'
p6738
tp6739
Rp6740
ag3
(g7
S'\xb0\x88\xe1;'
p6741
tp6742
Rp6743
ag3
(g7
S'\xab97@'
p6744
tp6745
Rp6746
ag3
(g7
S'\x0ee\xe8<'
p6747
tp6748
Rp6749
ag3
(g7
S'\xc79\x12<'
p6750
tp6751
Rp6752
ag3
(g7
S'L\xc6\xbd;'
p6753
tp6754
Rp6755
ag3
(g7
S'w\xfa\xec<'
p6756
tp6757
Rp6758
ag3
(g7
S'\x84B\xcb<'
p6759
tp6760
Rp6761
ag3
(g7
S'\x81q\x10<'
p6762
tp6763
Rp6764
ag3
(g7
S'\xde\x16\xf1;'
p6765
tp6766
Rp6767
aa(lp6768
g3
(g7
S'\x9f\x93\r<'
p6769
tp6770
Rp6771
ag3
(g7
S'\x1c\x02\x0c<'
p6772
tp6773
Rp6774
ag3
(g7
S'0\x08\xaf;'
p6775
tp6776
Rp6777
ag3
(g7
S'\xbc\xb1D='
p6778
tp6779
Rp6780
ag3
(g7
S'\x9c\x81/='
p6781
tp6782
Rp6783
ag3
(g7
S'\x91e0@'
p6784
tp6785
Rp6786
ag3
(g7
S'\x12e5<'
p6787
tp6788
Rp6789
ag3
(g7
S'\xf0J\x12<'
p6790
tp6791
Rp6792
ag3
(g7
S'\x9f\xff4<'
p6793
tp6794
Rp6795
ag3
(g7
S'0\xba\xfa;'
p6796
tp6797
Rp6798
ag3
(g7
S'\xab\xd0\x1c<'
p6799
tp6800
Rp6801
ag3
(g7
S"\xf7='<"
p6802
tp6803
Rp6804
ag3
(g7
S'[\xdb\x1f='
p6805
tp6806
Rp6807
ag3
(g7
S'\x0b`\xd2<'
p6808
tp6809
Rp6810
ag3
(g7
S'T\x92-@'
p6811
tp6812
Rp6813
ag3
(g7
S'\x84\xe8I='
p6814
tp6815
Rp6816
ag3
(g7
S';\x10\x93<'
p6817
tp6818
Rp6819
ag3
(g7
S'p\xd39<'
p6820
tp6821
Rp6822
ag3
(g7
S"Y'\x8d<"
p6823
tp6824
Rp6825
ag3
(g7
S'[t-@'
p6826
tp6827
Rp6828
ag3
(g7
S'L\xa5\x9c<'
p6829
tp6830
Rp6831
ag3
(g7
S'\x9c\xf1\x0f='
p6832
tp6833
Rp6834
ag3
(g7
S'>\xeeS<'
p6835
tp6836
Rp6837
ag3
(g7
S'Yw\x81<'
p6838
tp6839
Rp6840
ag3
(g7
S'$\x8e\xa8<'
p6841
tp6842
Rp6843
ag3
(g7
S'\xd5B\xe8<'
p6844
tp6845
Rp6846
ag3
(g7
S'A\x8f(@'
p6847
tp6848
Rp6849
ag3
(g7
S'\xbc\xb7\x8c<'
p6850
tp6851
Rp6852
ag3
(g7
S'4q\xbb<'
p6853
tp6854
Rp6855
ag3
(g7
S'-\xab\xce<'
p6856
tp6857
Rp6858
ag3
(g7
S'\xdcn\xd6<'
p6859
tp6860
Rp6861
ag3
(g7
S'\xd2\x820@'
p6862
tp6863
Rp6864
aa(lp6865
g3
(g7
S'M\xe4<@'
p6866
tp6867
Rp6868
ag3
(g7
S'\xca\xc9\xb0<'
p6869
tp6870
Rp6871
ag3
(g7
S'\xff\xe4\x8e<'
p6872
tp6873
Rp6874
ag3
(g7
S'L\x8f\x18<'
p6875
tp6876
Rp6877
ag3
(g7
S'\x8d\x1ca<'
p6878
tp6879
Rp6880
ag3
(g7
S'|\x0f5<'
p6881
tp6882
Rp6883
ag3
(g7
S'J\xf3;='
p6884
tp6885
Rp6886
ag3
(g7
S'^\xcb\xe8;'
p6887
tp6888
Rp6889
ag3
(g7
S"\xcc\xaf'@"
p6890
tp6891
Rp6892
ag3
(g7
S'l\x8f\xdb;'
p6893
tp6894
Rp6895
ag3
(g7
S'$\xdc\xe3<'
p6896
tp6897
Rp6898
ag3
(g7
S'U\xda\x01='
p6899
tp6900
Rp6901
ag3
(g7
S'\x9b\x91\xd4;'
p6902
tp6903
Rp6904
ag3
(g7
S'\xae\x83\n='
p6905
tp6906
Rp6907
ag3
(g7
S'\x80\x95)<'
p6908
tp6909
Rp6910
ag3
(g7
S'p{i='
p6911
tp6912
Rp6913
ag3
(g7
S'\x98K1@'
p6914
tp6915
Rp6916
ag3
(g7
S'\xd8b\xbb;'
p6917
tp6918
Rp6919
ag3
(g7
S'\xd4v.@'
p6920
tp6921
Rp6922
ag3
(g7
S'^A\x1c<'
p6923
tp6924
Rp6925
ag3
(g7
S'\x84\xa8%<'
p6926
tp6927
Rp6928
ag3
(g7
S'\xfc\xf2!<'
p6929
tp6930
Rp6931
ag3
(g7
S'\x06\xe2Q='
p6932
tp6933
Rp6934
ag3
(g7
S'Br/@'
p6935
tp6936
Rp6937
ag3
(g7
S'\x15p\x1f<'
p6938
tp6939
Rp6940
ag3
(g7
S'\xbc\r\xa8;'
p6941
tp6942
Rp6943
ag3
(g7
S'wA1@'
p6944
tp6945
Rp6946
ag3
(g7
S'\xfc\xae\x82<'
p6947
tp6948
Rp6949
ag3
(g7
S'\xbc\x9d0@'
p6950
tp6951
Rp6952
ag3
(g7
S'\x8c\xbcq<'
p6953
tp6954
Rp6955
ag3
(g7
S'\x99\x18j='
p6956
tp6957
Rp6958
ag3
(g7
S'T\xb7p<'
p6959
tp6960
Rp6961
aa(lp6962
g3
(g7
S'|\x9a;='
p6963
tp6964
Rp6965
ag3
(g7
S'\xe2Za='
p6966
tp6967
Rp6968
ag3
(g7
S'\xf2\xcf\xc3<'
p6969
tp6970
Rp6971
ag3
(g7
S'\xc4K\xae<'
p6972
tp6973
Rp6974
ag3
(g7
S'\xb5\x18\x82='
p6975
tp6976
Rp6977
ag3
(g7
S'\xec\xed\x10='
p6978
tp6979
Rp6980
ag3
(g7
S'\xb9t\x88<'
p6981
tp6982
Rp6983
ag3
(g7
S'\x06\x1f0<'
p6984
tp6985
Rp6986
ag3
(g7
S'ab$@'
p6987
tp6988
Rp6989
ag3
(g7
S'd\xab_<'
p6990
tp6991
Rp6992
ag3
(g7
S'\xa5|\x83<'
p6993
tp6994
Rp6995
ag3
(g7
S'\xdfJ\x92<'
p6996
tp6997
Rp6998
ag3
(g7
S'l\xf5R='
p6999
tp7000
Rp7001
ag3
(g7
S'\x14\xe4V='
p7002
tp7003
Rp7004
ag3
(g7
S'G%\\<'
p7005
tp7006
Rp7007
ag3
(g7
S',\x06+<'
p7008
tp7009
Rp7010
ag3
(g7
S'\xd4\xf4"<'
p7011
tp7012
Rp7013
ag3
(g7
S'\x0f\xa0\x86<'
p7014
tp7015
Rp7016
ag3
(g7
S'-\xab+<'
p7017
tp7018
Rp7019
ag3
(g7
S'\x84)\xf0<'
p7020
tp7021
Rp7022
ag3
(g7
S'\xc0);<'
p7023
tp7024
Rp7025
ag3
(g7
S'\xac\x93\x07='
p7026
tp7027
Rp7028
ag3
(g7
S'\xcf\xfa\x04<'
p7029
tp7030
Rp7031
ag3
(g7
S"'\xeb\xf9;"
p7032
tp7033
Rp7034
ag3
(g7
S'\x15-\x1e='
p7035
tp7036
Rp7037
ag3
(g7
S'\xb2&R<'
p7038
tp7039
Rp7040
ag3
(g7
S'Z\x84F<'
p7041
tp7042
Rp7043
ag3
(g7
S'o}#='
p7044
tp7045
Rp7046
ag3
(g7
S']\x12\x10='
p7047
tp7048
Rp7049
ag3
(g7
S'\xd7\xcb1<'
p7050
tp7051
Rp7052
ag3
(g7
S'\x8e\x02$@'
p7053
tp7054
Rp7055
ag3
(g7
S'\xee\xd2\x16<'
p7056
tp7057
Rp7058
aa(lp7059
g3
(g7
S'\xf1\r\x1c='
p7060
tp7061
Rp7062
ag3
(g7
S'\x93\xfc\xb3@'
p7063
tp7064
Rp7065
ag3
(g7
S'\xa20\x9a<'
p7066
tp7067
Rp7068
ag3
(g7
S'^@y<'
p7069
tp7070
Rp7071
ag3
(g7
S'\x1a\x9c$@'
p7072
tp7073
Rp7074
ag3
(g7
S'\xf2r?='
p7075
tp7076
Rp7077
ag3
(g7
S'\xf9\x83}<'
p7078
tp7079
Rp7080
ag3
(g7
S'n\x16l<'
p7081
tp7082
Rp7083
ag3
(g7
S'\xa9\x10\xca<'
p7084
tp7085
Rp7086
ag3
(g7
S'P\xb8c<'
p7087
tp7088
Rp7089
ag3
(g7
S'\xf2\x84+='
p7090
tp7091
Rp7092
ag3
(g7
S'\x1c,R='
p7093
tp7094
Rp7095
ag3
(g7
S'\x17}k<'
p7096
tp7097
Rp7098
ag3
(g7
S'\x9c\x03,<'
p7099
tp7100
Rp7101
ag3
(g7
S'\xe4\x98W='
p7102
tp7103
Rp7104
ag3
(g7
S'Wd\x18<'
p7105
tp7106
Rp7107
ag3
(g7
S'\xddJ\x80='
p7108
tp7109
Rp7110
ag3
(g7
S'\xdc_\xf6;'
p7111
tp7112
Rp7113
ag3
(g7
S']\xe3\xae@'
p7114
tp7115
Rp7116
ag3
(g7
S'\xf1\x08+<'
p7117
tp7118
Rp7119
ag3
(g7
S'\xde\xa8\xbb;'
p7120
tp7121
Rp7122
ag3
(g7
S'|D&<'
p7123
tp7124
Rp7125
ag3
(g7
S'\x93\n2='
p7126
tp7127
Rp7128
ag3
(g7
S'\xdb\x830='
p7129
tp7130
Rp7131
ag3
(g7
S'\xac\xee\x99<'
p7132
tp7133
Rp7134
ag3
(g7
S'\x0cS\x91<'
p7135
tp7136
Rp7137
ag3
(g7
S'Vt5='
p7138
tp7139
Rp7140
ag3
(g7
S'\x8ak\x90<'
p7141
tp7142
Rp7143
ag3
(g7
S'\xf4\xe4\xac<'
p7144
tp7145
Rp7146
ag3
(g7
S'\x19u\x1d='
p7147
tp7148
Rp7149
ag3
(g7
S'\xfc\xbc\x9b<'
p7150
tp7151
Rp7152
ag3
(g7
S'\xd4\xa8\x0e='
p7153
tp7154
Rp7155
aa(lp7156
g3
(g7
S'$\x06\x81='
p7157
tp7158
Rp7159
ag3
(g7
S'\xc1\x12\x9a<'
p7160
tp7161
Rp7162
ag3
(g7
S'3P\x18<'
p7163
tp7164
Rp7165
ag3
(g7
S'\xe4J\x02='
p7166
tp7167
Rp7168
ag3
(g7
S'w[\xfd<'
p7169
tp7170
Rp7171
ag3
(g7
S'\xf2\x9c\x8c<'
p7172
tp7173
Rp7174
ag3
(g7
S"\x9c'\x0f<"
p7175
tp7176
Rp7177
ag3
(g7
S'\xdal\x0b='
p7178
tp7179
Rp7180
ag3
(g7
S'.\x10=<'
p7181
tp7182
Rp7183
ag3
(g7
S'pk\xe1;'
p7184
tp7185
Rp7186
ag3
(g7
S'\xc0\xf0j<'
p7187
tp7188
Rp7189
ag3
(g7
S'@\xdb\t>'
p7190
tp7191
Rp7192
ag3
(g7
S'\xde\xd0\x1c<'
p7193
tp7194
Rp7195
ag3
(g7
S'\n\x075<'
p7196
tp7197
Rp7198
ag3
(g7
S'\xda\xd7D<'
p7199
tp7200
Rp7201
ag3
(g7
S'\x9cS\xc6;'
p7202
tp7203
Rp7204
ag3
(g7
S'G/\x0f<'
p7205
tp7206
Rp7207
ag3
(g7
S'\xa7~\xc2;'
p7208
tp7209
Rp7210
ag3
(g7
S'\x0fg\x85<'
p7211
tp7212
Rp7213
ag3
(g7
S'\xd2u\xee<'
p7214
tp7215
Rp7216
ag3
(g7
S'D\xb2\x8f='
p7217
tp7218
Rp7219
ag3
(g7
S"\x1c\xde'@"
p7220
tp7221
Rp7222
ag3
(g7
S'W\xb84@'
p7223
tp7224
Rp7225
ag3
(g7
S'\xf0L\xc5='
p7226
tp7227
Rp7228
ag3
(g7
S'`\xb9\x1c<'
p7229
tp7230
Rp7231
ag3
(g7
S'n\xfe\xde;'
p7232
tp7233
Rp7234
ag3
(g7
S"\xd3X'<"
p7235
tp7236
Rp7237
ag3
(g7
S'P\xa8.<'
p7238
tp7239
Rp7240
ag3
(g7
S'\x16\xc2\x10='
p7241
tp7242
Rp7243
ag3
(g7
S'7\x11\r<'
p7244
tp7245
Rp7246
ag3
(g7
S'\xb8,\x17='
p7247
tp7248
Rp7249
ag3
(g7
S'L\x95\x15='
p7250
tp7251
Rp7252
aa(lp7253
g3
(g7
S'\xe6\x82,@'
p7254
tp7255
Rp7256
ag3
(g7
S'\xa7\xb5z;'
p7257
tp7258
Rp7259
ag3
(g7
S'\x9eg\x12='
p7260
tp7261
Rp7262
ag3
(g7
S'\xe0=L<'
p7263
tp7264
Rp7265
ag3
(g7
S'\xee\xc9{<'
p7266
tp7267
Rp7268
ag3
(g7
S'fQ\x1f<'
p7269
tp7270
Rp7271
ag3
(g7
S'\xb1\xca\r='
p7272
tp7273
Rp7274
ag3
(g7
S'\xd4p\xfd<'
p7275
tp7276
Rp7277
ag3
(g7
S'\x167(<'
p7278
tp7279
Rp7280
ag3
(g7
S'w1\x12<'
p7281
tp7282
Rp7283
ag3
(g7
S'\xb6\x12,@'
p7284
tp7285
Rp7286
ag3
(g7
S'\x1eg\x1e<'
p7287
tp7288
Rp7289
ag3
(g7
S'gW\x9b;'
p7290
tp7291
Rp7292
ag3
(g7
S'\x1cF%<'
p7293
tp7294
Rp7295
ag3
(g7
S'[\xac\x11='
p7296
tp7297
Rp7298
ag3
(g7
S',\xfe\xc0;'
p7299
tp7300
Rp7301
ag3
(g7
S'6\xa5\xd8;'
p7302
tp7303
Rp7304
ag3
(g7
S'P%\xc1;'
p7305
tp7306
Rp7307
ag3
(g7
S'\x0cA5<'
p7308
tp7309
Rp7310
ag3
(g7
S'6\xaa0<'
p7311
tp7312
Rp7313
ag3
(g7
S'\xa8\xebB='
p7314
tp7315
Rp7316
ag3
(g7
S'l\xc6\xf8<'
p7317
tp7318
Rp7319
ag3
(g7
S'\xa4\x81#<'
p7320
tp7321
Rp7322
ag3
(g7
S'El\x0e='
p7323
tp7324
Rp7325
ag3
(g7
S'\xa1\x1d7<'
p7326
tp7327
Rp7328
ag3
(g7
S'\xef\xe2\xb1@'
p7329
tp7330
Rp7331
ag3
(g7
S'\x8a\x8b\x01='
p7332
tp7333
Rp7334
ag3
(g7
S'\xe6\xb2\xcc;'
p7335
tp7336
Rp7337
ag3
(g7
S'f\x8c\x9c;'
p7338
tp7339
Rp7340
ag3
(g7
S'\x9b\xf43@'
p7341
tp7342
Rp7343
ag3
(g7
S'd\xa8\x89;'
p7344
tp7345
Rp7346
ag3
(g7
S'\x18-\xb8;'
p7347
tp7348
Rp7349
aa(lp7350
g3
(g7
S'$\x07\xa9;'
p7351
tp7352
Rp7353
ag3
(g7
S'\x92\xb1(='
p7354
tp7355
Rp7356
ag3
(g7
S'T\xa8\xcc;'
p7357
tp7358
Rp7359
ag3
(g7
S']\xce5='
p7360
tp7361
Rp7362
ag3
(g7
S"'\x96\xe6;"
p7363
tp7364
Rp7365
ag3
(g7
S'\x9f5\t<'
p7366
tp7367
Rp7368
ag3
(g7
S'<\xd40='
p7369
tp7370
Rp7371
ag3
(g7
S'\xbcO%='
p7372
tp7373
Rp7374
ag3
(g7
S'D\xc6\x85;'
p7375
tp7376
Rp7377
ag3
(g7
S'\xc3\xc1\x85;'
p7378
tp7379
Rp7380
ag3
(g7
S'9\xd20@'
p7381
tp7382
Rp7383
ag3
(g7
S'g\xc5\xde;'
p7384
tp7385
Rp7386
ag3
(g7
S'=\xc8\xb0;'
p7387
tp7388
Rp7389
ag3
(g7
S'G\xef)='
p7390
tp7391
Rp7392
ag3
(g7
S'3\xf1?='
p7393
tp7394
Rp7395
ag3
(g7
S'\xd4]\x11<'
p7396
tp7397
Rp7398
ag3
(g7
S'\xf2\xa9\xd7;'
p7399
tp7400
Rp7401
ag3
(g7
S'\xdb50='
p7402
tp7403
Rp7404
ag3
(g7
S'l\xf0\x01<'
p7405
tp7406
Rp7407
ag3
(g7
S'\x17\x93\xbe;'
p7408
tp7409
Rp7410
ag3
(g7
S'%W\x93='
p7411
tp7412
Rp7413
ag3
(g7
S'\xbb\xc5\x1f='
p7414
tp7415
Rp7416
ag3
(g7
S'\xe8\x8e\x0b='
p7417
tp7418
Rp7419
ag3
(g7
S'\x15\x91\xfe;'
p7420
tp7421
Rp7422
ag3
(g7
S'.\xbfI<'
p7423
tp7424
Rp7425
ag3
(g7
S'\x07,!<'
p7426
tp7427
Rp7428
ag3
(g7
S'\x1c\xf50<'
p7429
tp7430
Rp7431
ag3
(g7
S'\x95\xec\x89;'
p7432
tp7433
Rp7434
ag3
(g7
S'l$\x0b='
p7435
tp7436
Rp7437
ag3
(g7
S'2+\xa4;'
p7438
tp7439
Rp7440
ag3
(g7
S'\x95\x9b<;'
p7441
tp7442
Rp7443
ag3
(g7
S'\x12\x85\xa0;'
p7444
tp7445
Rp7446
aa(lp7447
g3
(g7
S'\x03U\x07='
p7448
tp7449
Rp7450
ag3
(g7
S'L\x06)@'
p7451
tp7452
Rp7453
ag3
(g7
S"'\x82\x11<"
p7454
tp7455
Rp7456
ag3
(g7
S'\xc2F\xd0<'
p7457
tp7458
Rp7459
ag3
(g7
S'A&+@'
p7460
tp7461
Rp7462
ag3
(g7
S'+c\xe7;'
p7463
tp7464
Rp7465
ag3
(g7
S'\xc5\x89\x9a;'
p7466
tp7467
Rp7468
ag3
(g7
S';\xbdi='
p7469
tp7470
Rp7471
ag3
(g7
S'\x80L\xd9;'
p7472
tp7473
Rp7474
ag3
(g7
S'\x11Q:@'
p7475
tp7476
Rp7477
ag3
(g7
S'8G\x19<'
p7478
tp7479
Rp7480
ag3
(g7
S'R9\xb7;'
p7481
tp7482
Rp7483
ag3
(g7
S'4\xf3\x9a;'
p7484
tp7485
Rp7486
ag3
(g7
S'\xdcQ\xe8<'
p7487
tp7488
Rp7489
ag3
(g7
S'x\xa6\x1a='
p7490
tp7491
Rp7492
ag3
(g7
S'\xab\x99l='
p7493
tp7494
Rp7495
ag3
(g7
S'\xdct\xec;'
p7496
tp7497
Rp7498
ag3
(g7
S'\x1eq\xa5;'
p7499
tp7500
Rp7501
ag3
(g7
S'\xd7/g;'
p7502
tp7503
Rp7504
ag3
(g7
S't\t\x02='
p7505
tp7506
Rp7507
ag3
(g7
S'\xcf\x8f\x86;'
p7508
tp7509
Rp7510
ag3
(g7
S'\xc0>\xda<'
p7511
tp7512
Rp7513
ag3
(g7
S'[\x7fx;'
p7514
tp7515
Rp7516
ag3
(g7
S'\xdfR-@'
p7517
tp7518
Rp7519
ag3
(g7
S'\x15\xca\xed;'
p7520
tp7521
Rp7522
ag3
(g7
S'\x7f\x8e\x01='
p7523
tp7524
Rp7525
ag3
(g7
S'\x1b\xc5\x02<'
p7526
tp7527
Rp7528
ag3
(g7
S'\xf8\xd1\xcb;'
p7529
tp7530
Rp7531
ag3
(g7
S'\xa5\x03q='
p7532
tp7533
Rp7534
ag3
(g7
S'w\xda~='
p7535
tp7536
Rp7537
ag3
(g7
S'\xa5\xddv;'
p7538
tp7539
Rp7540
ag3
(g7
S'/\x82B='
p7541
tp7542
Rp7543
aa(lp7544
g3
(g7
S'p\xe1\xfb<'
p7545
tp7546
Rp7547
ag3
(g7
S'\x87\x89\x1f<'
p7548
tp7549
Rp7550
ag3
(g7
S'-tO='
p7551
tp7552
Rp7553
ag3
(g7
S'\x03xb<'
p7554
tp7555
Rp7556
ag3
(g7
S'\xdb\x87j='
p7557
tp7558
Rp7559
ag3
(g7
S';j\x06='
p7560
tp7561
Rp7562
ag3
(g7
S'&\xfb\xdf<'
p7563
tp7564
Rp7565
ag3
(g7
S'\xe4\x99\xea;'
p7566
tp7567
Rp7568
ag3
(g7
S'D\xe5\x9c;'
p7569
tp7570
Rp7571
ag3
(g7
S'\xa8{\xda<'
p7572
tp7573
Rp7574
ag3
(g7
S'\x8b\xd2\xe3<'
p7575
tp7576
Rp7577
ag3
(g7
S'wq\xf1;'
p7578
tp7579
Rp7580
ag3
(g7
S'\xdb\xd5\xa5;'
p7581
tp7582
Rp7583
ag3
(g7
S'\xe7D\xc1;'
p7584
tp7585
Rp7586
ag3
(g7
S'\x9c\xeb\xe5<'
p7587
tp7588
Rp7589
ag3
(g7
S'\x93\xdd\x8a;'
p7590
tp7591
Rp7592
ag3
(g7
S'\x0b\x88\xe0<'
p7593
tp7594
Rp7595
ag3
(g7
S'\x151\xe3:'
p7596
tp7597
Rp7598
ag3
(g7
S'\x18\xd9-@'
p7599
tp7600
Rp7601
ag3
(g7
S'!\x11+@'
p7602
tp7603
Rp7604
ag3
(g7
S'\xb2\xba\xc4;'
p7605
tp7606
Rp7607
ag3
(g7
S'\xf9q\xa1;'
p7608
tp7609
Rp7610
ag3
(g7
S'1\xca\x89;'
p7611
tp7612
Rp7613
ag3
(g7
S'|\x8e6='
p7614
tp7615
Rp7616
ag3
(g7
S'+\x873='
p7617
tp7618
Rp7619
ag3
(g7
S'Q9,@'
p7620
tp7621
Rp7622
ag3
(g7
S'K?\xf6;'
p7623
tp7624
Rp7625
ag3
(g7
S'\ti;@'
p7626
tp7627
Rp7628
ag3
(g7
S'\x8e\xc1\xdd;'
p7629
tp7630
Rp7631
ag3
(g7
S'\x9c\xf23<'
p7632
tp7633
Rp7634
ag3
(g7
S'\x98D\x0e<'
p7635
tp7636
Rp7637
ag3
(g7
S'\xd2\x95\xeb<'
p7638
tp7639
Rp7640
aa(lp7641
g3
(g7
S'\xcc\x19Q='
p7642
tp7643
Rp7644
ag3
(g7
S'\xcb\xd4%@'
p7645
tp7646
Rp7647
ag3
(g7
S'0\xfeE='
p7648
tp7649
Rp7650
ag3
(g7
S'<\x05*<'
p7651
tp7652
Rp7653
ag3
(g7
S'#W\x82<'
p7654
tp7655
Rp7656
ag3
(g7
S'\xbcR6@'
p7657
tp7658
Rp7659
ag3
(g7
S'+du<'
p7660
tp7661
Rp7662
ag3
(g7
S'\x80\x19\xe0<'
p7663
tp7664
Rp7665
ag3
(g7
S'\xa0B\xf2<'
p7666
tp7667
Rp7668
ag3
(g7
S'w<\xd8<'
p7669
tp7670
Rp7671
ag3
(g7
S'\xbc\x9f\xdb<'
p7672
tp7673
Rp7674
ag3
(g7
S'|\x98\xfb;'
p7675
tp7676
Rp7677
ag3
(g7
S'\x85\x9e\xc4<'
p7678
tp7679
Rp7680
ag3
(g7
S'\xf1M\xa9;'
p7681
tp7682
Rp7683
ag3
(g7
S'K\x8f\x95<'
p7684
tp7685
Rp7686
ag3
(g7
S'\x9c\xa7&<'
p7687
tp7688
Rp7689
ag3
(g7
S'/\x01\xda<'
p7690
tp7691
Rp7692
ag3
(g7
S'\xaf\xd2\xa9<'
p7693
tp7694
Rp7695
ag3
(g7
S's\x94:@'
p7696
tp7697
Rp7698
ag3
(g7
S'x\x17\xc5<'
p7699
tp7700
Rp7701
ag3
(g7
S'|\x1eA='
p7702
tp7703
Rp7704
ag3
(g7
S'\x9f\xf5\xa9;'
p7705
tp7706
Rp7707
ag3
(g7
S'W\xef\xf9<'
p7708
tp7709
Rp7710
ag3
(g7
S'\x18\xd08;'
p7711
tp7712
Rp7713
ag3
(g7
S'\xaf=\xa8;'
p7714
tp7715
Rp7716
ag3
(g7
S'P\xe0!<'
p7717
tp7718
Rp7719
ag3
(g7
S'"\xe1\x98;'
p7720
tp7721
Rp7722
ag3
(g7
S'\xaf\xb6H;'
p7723
tp7724
Rp7725
ag3
(g7
S'\x1a\xd2\xe0;'
p7726
tp7727
Rp7728
ag3
(g7
S'\x90\x1b\xf4;'
p7729
tp7730
Rp7731
ag3
(g7
S'{K\xf4;'
p7732
tp7733
Rp7734
ag3
(g7
S"w\xdf'="
p7735
tp7736
Rp7737
aa(lp7738
g3
(g7
S']\xbc1@'
p7739
tp7740
Rp7741
ag3
(g7
S'\xf2h\x1b='
p7742
tp7743
Rp7744
ag3
(g7
S'\xd1\xe5\x8f;'
p7745
tp7746
Rp7747
ag3
(g7
S'\x15-4<'
p7748
tp7749
Rp7750
ag3
(g7
S'A\\\x8a='
p7751
tp7752
Rp7753
ag3
(g7
S'\xa5?\x08='
p7754
tp7755
Rp7756
ag3
(g7
S'?G\x8c;'
p7757
tp7758
Rp7759
ag3
(g7
S'N{$='
p7760
tp7761
Rp7762
ag3
(g7
S'\x13\x9e1@'
p7763
tp7764
Rp7765
ag3
(g7
S'\xff\xc2\x15<'
p7766
tp7767
Rp7768
ag3
(g7
S'\xdd\x00\t<'
p7769
tp7770
Rp7771
ag3
(g7
S'\xd4s\x8e='
p7772
tp7773
Rp7774
ag3
(g7
S'7\xa1\xd5;'
p7775
tp7776
Rp7777
ag3
(g7
S'\xd5H\x8c='
p7778
tp7779
Rp7780
ag3
(g7
S'\xc5\xa3p;'
p7781
tp7782
Rp7783
ag3
(g7
S'\x962\x19='
p7784
tp7785
Rp7786
ag3
(g7
S'.\x0e\x1b<'
p7787
tp7788
Rp7789
ag3
(g7
S'\xc7(e;'
p7790
tp7791
Rp7792
ag3
(g7
S'\x9e\x82\xd8;'
p7793
tp7794
Rp7795
ag3
(g7
S'\xa6\t ='
p7796
tp7797
Rp7798
ag3
(g7
S'\tf\x98;'
p7799
tp7800
Rp7801
ag3
(g7
S'\xc6\xf7\xbd;'
p7802
tp7803
Rp7804
ag3
(g7
S'\xd9c\x12='
p7805
tp7806
Rp7807
ag3
(g7
S'C\xe1\x99;'
p7808
tp7809
Rp7810
ag3
(g7
S'\x9dx\x96;'
p7811
tp7812
Rp7813
ag3
(g7
S'\xac\xbas;'
p7814
tp7815
Rp7816
ag3
(g7
S'\x06\xe7\n<'
p7817
tp7818
Rp7819
ag3
(g7
S'\x94\xfd\x9b;'
p7820
tp7821
Rp7822
ag3
(g7
S'\xa7\x98\xfd:'
p7823
tp7824
Rp7825
ag3
(g7
S'E6\x0c='
p7826
tp7827
Rp7828
ag3
(g7
S'I\xdc ='
p7829
tp7830
Rp7831
ag3
(g7
S'\xaaQ1@'
p7832
tp7833
Rp7834
aa(lp7835
g3
(g7
S'\xe90l;'
p7836
tp7837
Rp7838
ag3
(g7
S'g\xbd\xa0='
p7839
tp7840
Rp7841
ag3
(g7
S'\x0c\xef\x96;'
p7842
tp7843
Rp7844
ag3
(g7
S'\xc5!#='
p7845
tp7846
Rp7847
ag3
(g7
S'\x0e/$='
p7848
tp7849
Rp7850
ag3
(g7
S'\xdde\x04='
p7851
tp7852
Rp7853
ag3
(g7
S'\xfd5/@'
p7854
tp7855
Rp7856
ag3
(g7
S"\xcb\xc8'="
p7857
tp7858
Rp7859
ag3
(g7
S'E{\xb2;'
p7860
tp7861
Rp7862
ag3
(g7
S'T\xfdW;'
p7863
tp7864
Rp7865
ag3
(g7
S'\xd2\xbb{;'
p7866
tp7867
Rp7868
ag3
(g7
S'\xb4no;'
p7869
tp7870
Rp7871
ag3
(g7
S'\xc0-\x15='
p7872
tp7873
Rp7874
ag3
(g7
S'\x96y\x8d;'
p7875
tp7876
Rp7877
ag3
(g7
S'\x12\x94\x01='
p7878
tp7879
Rp7880
ag3
(g7
S'\xa23e='
p7881
tp7882
Rp7883
ag3
(g7
S'\x04\x02\x82;'
p7884
tp7885
Rp7886
ag3
(g7
S'j\xf2\xd7<'
p7887
tp7888
Rp7889
ag3
(g7
S'\xb8\x03\x04='
p7890
tp7891
Rp7892
ag3
(g7
S'#j0@'
p7893
tp7894
Rp7895
ag3
(g7
S'\r\x99/@'
p7896
tp7897
Rp7898
ag3
(g7
S'\xf5\xf4\xf0<'
p7899
tp7900
Rp7901
ag3
(g7
S'\xf6\xb3>='
p7902
tp7903
Rp7904
ag3
(g7
S'\xb3D\x99<'
p7905
tp7906
Rp7907
ag3
(g7
S'\xdd\xac\x8a<'
p7908
tp7909
Rp7910
ag3
(g7
S'"\xf1+='
p7911
tp7912
Rp7913
ag3
(g7
S'\xda\x9d\x88<'
p7914
tp7915
Rp7916
ag3
(g7
S'\x00^|='
p7917
tp7918
Rp7919
ag3
(g7
S'\xa7\x16\x9a<'
p7920
tp7921
Rp7922
ag3
(g7
S'\xaf\x13\xce<'
p7923
tp7924
Rp7925
ag3
(g7
S'hW\x98<'
p7926
tp7927
Rp7928
ag3
(g7
S'}j\xab<'
p7929
tp7930
Rp7931
aa(lp7932
g3
(g7
S'\xa0\xd8\xbd<'
p7933
tp7934
Rp7935
ag3
(g7
S'+D\x06='
p7936
tp7937
Rp7938
ag3
(g7
S'p;\xaf<'
p7939
tp7940
Rp7941
ag3
(g7
S'\x14\xb1"<'
p7942
tp7943
Rp7944
ag3
(g7
S't\xc1?<'
p7945
tp7946
Rp7947
ag3
(g7
S'1\x81)<'
p7948
tp7949
Rp7950
ag3
(g7
S'GT\xef;'
p7951
tp7952
Rp7953
ag3
(g7
S'\x93\xcb\xe2;'
p7954
tp7955
Rp7956
ag3
(g7
S'\xbcD\xea;'
p7957
tp7958
Rp7959
ag3
(g7
S'\x8eV\xfa;'
p7960
tp7961
Rp7962
ag3
(g7
S'\x176g='
p7963
tp7964
Rp7965
ag3
(g7
S';&\xf8<'
p7966
tp7967
Rp7968
ag3
(g7
S'B\x06I<'
p7969
tp7970
Rp7971
ag3
(g7
S'\x16w\x91;'
p7972
tp7973
Rp7974
ag3
(g7
S'\xb01\xca;'
p7975
tp7976
Rp7977
ag3
(g7
S'<c\x19='
p7978
tp7979
Rp7980
ag3
(g7
S'~\x81\t<'
p7981
tp7982
Rp7983
ag3
(g7
S'k}\xb4<'
p7984
tp7985
Rp7986
ag3
(g7
S'\x1b;\xb7<'
p7987
tp7988
Rp7989
ag3
(g7
S'\xcc\xabS='
p7990
tp7991
Rp7992
ag3
(g7
S'\xb2\xf7\x92;'
p7993
tp7994
Rp7995
ag3
(g7
S'|\x0c\x8e;'
p7996
tp7997
Rp7998
ag3
(g7
S'\x8a,\xa8;'
p7999
tp8000
Rp8001
ag3
(g7
S'\xe3X\x0e='
p8002
tp8003
Rp8004
ag3
(g7
S'\xc5q\xf4:'
p8005
tp8006
Rp8007
ag3
(g7
S'\xf5p\xa6;'
p8008
tp8009
Rp8010
ag3
(g7
S'n\x96\xec<'
p8011
tp8012
Rp8013
ag3
(g7
S'\x9a\x94\x02='
p8014
tp8015
Rp8016
ag3
(g7
S'\x83\xe3-;'
p8017
tp8018
Rp8019
ag3
(g7
S')\xf6\x96;'
p8020
tp8021
Rp8022
ag3
(g7
S'\x14\xe9\xba;'
p8023
tp8024
Rp8025
ag3
(g7
S'$\x9cy='
p8026
tp8027
Rp8028
aa(lp8029
g3
(g7
S'"\xe4\x11='
p8030
tp8031
Rp8032
ag3
(g7
S'W\x0bi;'
p8033
tp8034
Rp8035
ag3
(g7
S'\x99\xa8\xb7:'
p8036
tp8037
Rp8038
ag3
(g7
S'b\x19\xf8<'
p8039
tp8040
Rp8041
ag3
(g7
S'\x8c\xfdj;'
p8042
tp8043
Rp8044
ag3
(g7
S'tp[='
p8045
tp8046
Rp8047
ag3
(g7
S'\xf9\xe2\xb9;'
p8048
tp8049
Rp8050
ag3
(g7
S"!'\xbb;"
p8051
tp8052
Rp8053
ag3
(g7
S'\xa7(\xf7;'
p8054
tp8055
Rp8056
ag3
(g7
S'D^\xe7<'
p8057
tp8058
Rp8059
ag3
(g7
S'p\xb0\x01='
p8060
tp8061
Rp8062
ag3
(g7
S'g\x7f\xe9<'
p8063
tp8064
Rp8065
ag3
(g7
S'\x97\xdc\xd4<'
p8066
tp8067
Rp8068
ag3
(g7
S'\xe1\x06\x02;'
p8069
tp8070
Rp8071
ag3
(g7
S'\x07\xdb\xf5<'
p8072
tp8073
Rp8074
ag3
(g7
S'\x9e\x1f\xd9<'
p8075
tp8076
Rp8077
ag3
(g7
S'q\xba\x08;'
p8078
tp8079
Rp8080
ag3
(g7
S'j\x90\xe0<'
p8081
tp8082
Rp8083
aa(lp8084
g3
(g7
S'N\x08\xf5<'
p8085
tp8086
Rp8087
ag3
(g7
S'\x11\xe9\xc5<'
p8088
tp8089
Rp8090
ag3
(g7
S'JZ\x92:'
p8091
tp8092
Rp8093
ag3
(g7
S'%\xa2\x0b;'
p8094
tp8095
Rp8096
ag3
(g7
S'[Z\x92;'
p8097
tp8098
Rp8099
ag3
(g7
S'\xe2\rH='
p8100
tp8101
Rp8102
ag3
(g7
S':\xe9\r;'
p8103
tp8104
Rp8105
ag3
(g7
S'\xfa\x1c\x8e;'
p8106
tp8107
Rp8108
ag3
(g7
S'\xd9\x8e\xbb:'
p8109
tp8110
Rp8111
ag3
(g7
S'\xc9z5@'
p8112
tp8113
Rp8114
ag3
(g7
S'\x05J\x02='
p8115
tp8116
Rp8117
ag3
(g7
S'L\xc4\xbe;'
p8118
tp8119
Rp8120
ag3
(g7
S'\xc2\xb6\x1d;'
p8121
tp8122
Rp8123
ag3
(g7
S'\xf3\x96\xbe<'
p8124
tp8125
Rp8126
ag3
(g7
S'\xbe\x93(;'
p8127
tp8128
Rp8129
ag3
(g7
S'{\x9d\x8f;'
p8130
tp8131
Rp8132
ag3
(g7
S'B\x0c\x10='
p8133
tp8134
Rp8135
ag3
(g7
S'\x9eo\x0c;'
p8136
tp8137
Rp8138
ag3
(g7
S'w~u='
p8139
tp8140
Rp8141
ag3
(g7
S'\xc2c\xf3<'
p8142
tp8143
Rp8144
ag3
(g7
S'\xf8\xcf\x11='
p8145
tp8146
Rp8147
ag3
(g7
S'\xccb\xdc<'
p8148
tp8149
Rp8150
ag3
(g7
S'^\x18\xc9:'
p8151
tp8152
Rp8153
ag3
(g7
S'\xa8\xadH;'
p8154
tp8155
Rp8156
ag3
(g7
S'\x0b\xe1\xc8:'
p8157
tp8158
Rp8159
ag3
(g7
S'\xec\xfe\x05;'
p8160
tp8161
Rp8162
ag3
(g7
S'0a\x9a:'
p8163
tp8164
Rp8165
ag3
(g7
S'pO\xcd:'
p8166
tp8167
Rp8168
ag3
(g7
S'\xab\xea\xb4:'
p8169
tp8170
Rp8171
ag3
(g7
S'W\xbdl='
p8172
tp8173
Rp8174
ag3
(g7
S'\xbclT;'
p8175
tp8176
Rp8177
ag3
(g7
S'\x8e\xb8g;'
p8178
tp8179
Rp8180
aa(lp8181
g3
(g7
S'~\x8a>;'
p8182
tp8183
Rp8184
ag3
(g7
S'\xe3x\x0b;'
p8185
tp8186
Rp8187
ag3
(g7
S'\x0b\xdc\xd5:'
p8188
tp8189
Rp8190
ag3
(g7
S"'\x02\x06="
p8191
tp8192
Rp8193
ag3
(g7
S'\x14\x94\xe8<'
p8194
tp8195
Rp8196
ag3
(g7
S']\xdf\xd3<'
p8197
tp8198
Rp8199
ag3
(g7
S'\x14\xccP;'
p8200
tp8201
Rp8202
ag3
(g7
S'B\xa7\xf3<'
p8203
tp8204
Rp8205
ag3
(g7
S'S\x82\xd8<'
p8206
tp8207
Rp8208
ag3
(g7
S'\x99P\x9a:'
p8209
tp8210
Rp8211
ag3
(g7
S'\x1e\xef\xeb9'
p8212
tp8213
Rp8214
ag3
(g7
S'\x8d\xf90@'
p8215
tp8216
Rp8217
ag3
(g7
S'\x85\x15S='
p8218
tp8219
Rp8220
ag3
(g7
S'\x0cE\xf6;'
p8221
tp8222
Rp8223
ag3
(g7
S'\xc44`;'
p8224
tp8225
Rp8226
ag3
(g7
S'\x16=0@'
p8227
tp8228
Rp8229
ag3
(g7
S'\xaf\x01\xdc<'
p8230
tp8231
Rp8232
ag3
(g7
S'\x0c\xa0\xa6<'
p8233
tp8234
Rp8235
ag3
(g7
S',\xcc\xb5;'
p8236
tp8237
Rp8238
ag3
(g7
S'\xd1JL<'
p8239
tp8240
Rp8241
ag3
(g7
S'J=(='
p8242
tp8243
Rp8244
ag3
(g7
S'Ab#='
p8245
tp8246
Rp8247
ag3
(g7
S'\x84\xe4\xa6<'
p8248
tp8249
Rp8250
ag3
(g7
S'k,\xbe@'
p8251
tp8252
Rp8253
ag3
(g7
S'\xbf\xa3\x80<'
p8254
tp8255
Rp8256
ag3
(g7
S'y>\x7f;'
p8257
tp8258
Rp8259
ag3
(g7
S'\xc4\xf3\xc9;'
p8260
tp8261
Rp8262
ag3
(g7
S'\xd7\r\x8d;'
p8263
tp8264
Rp8265
ag3
(g7
S'\xc9\xfe\x87;'
p8266
tp8267
Rp8268
ag3
(g7
S'\xbc\xaa\xd7<'
p8269
tp8270
Rp8271
ag3
(g7
S'\xca\x89\x1c;'
p8272
tp8273
Rp8274
ag3
(g7
S'\x1c\xda\xe5:'
p8275
tp8276
Rp8277
aa(lp8278
g3
(g7
S'*\xb8\x87;'
p8279
tp8280
Rp8281
ag3
(g7
S'\x92\x1eR;'
p8282
tp8283
Rp8284
ag3
(g7
S'a\xa9\xa6:'
p8285
tp8286
Rp8287
ag3
(g7
S'\x04\xf1\x1f;'
p8288
tp8289
Rp8290
ag3
(g7
S'$\x96\x80='
p8291
tp8292
Rp8293
ag3
(g7
S'\xe4mN;'
p8294
tp8295
Rp8296
ag3
(g7
S'$\x11\x10;'
p8297
tp8298
Rp8299
ag3
(g7
S'-\xd09@'
p8300
tp8301
Rp8302
ag3
(g7
S'\xb7O\x0f='
p8303
tp8304
Rp8305
ag3
(g7
S'\xc0+\xe9:'
p8306
tp8307
Rp8308
ag3
(g7
S'\xd4\xdd-;'
p8309
tp8310
Rp8311
ag3
(g7
S'\r\x190@'
p8312
tp8313
Rp8314
ag3
(g7
S'\x15\x99_;'
p8315
tp8316
Rp8317
ag3
(g7
S'\xdc\xb8\x14='
p8318
tp8319
Rp8320
ag3
(g7
S'\xbc\x9f"='
p8321
tp8322
Rp8323
ag3
(g7
S'W:#='
p8324
tp8325
Rp8326
ag3
(g7
S"'t\xb1;"
p8327
tp8328
Rp8329
ag3
(g7
S'\x1d\x17/@'
p8330
tp8331
Rp8332
ag3
(g7
S'\xd6\x02\n='
p8333
tp8334
Rp8335
ag3
(g7
S'\x9a2\xcd;'
p8336
tp8337
Rp8338
ag3
(g7
S'\x08|\x8c='
p8339
tp8340
Rp8341
ag3
(g7
S'\xf4\x9d\xb2;'
p8342
tp8343
Rp8344
ag3
(g7
S'\xf4\xe4\xfb<'
p8345
tp8346
Rp8347
ag3
(g7
S':x\xb2;'
p8348
tp8349
Rp8350
ag3
(g7
S"\xf2\xa0'@"
p8351
tp8352
Rp8353
ag3
(g7
S'\x97$\x8d;'
p8354
tp8355
Rp8356
ag3
(g7
S'n\x06\x06='
p8357
tp8358
Rp8359
ag3
(g7
S'\x8d[L='
p8360
tp8361
Rp8362
ag3
(g7
S'\x9a\xf1V<'
p8363
tp8364
Rp8365
ag3
(g7
S'4|i<'
p8366
tp8367
Rp8368
ag3
(g7
S'\x02\xa8I='
p8369
tp8370
Rp8371
ag3
(g7
S'\t\xa2\x9c<'
p8372
tp8373
Rp8374
aa(lp8375
g3
(g7
S'\\\xc4\xd5<'
p8376
tp8377
Rp8378
ag3
(g7
S'\xfc\x02\x85<'
p8379
tp8380
Rp8381
ag3
(g7
S'~h\xf8;'
p8382
tp8383
Rp8384
ag3
(g7
S'\x80\xaf\xf8<'
p8385
tp8386
Rp8387
ag3
(g7
S'\x95\x7f\xa9<'
p8388
tp8389
Rp8390
ag3
(g7
S'\xfa\xc70='
p8391
tp8392
Rp8393
ag3
(g7
S';\xbf\xc6<'
p8394
tp8395
Rp8396
ag3
(g7
S'\xe1\xd5\xdc<'
p8397
tp8398
Rp8399
ag3
(g7
S'J\xf9!<'
p8400
tp8401
Rp8402
ag3
(g7
S'!\x1d\xc4<'
p8403
tp8404
Rp8405
ag3
(g7
S'\x04`4<'
p8406
tp8407
Rp8408
ag3
(g7
S'\x079\xbe<'
p8409
tp8410
Rp8411
ag3
(g7
S'd2\xb9;'
p8412
tp8413
Rp8414
ag3
(g7
S'\x0e\xef\x97;'
p8415
tp8416
Rp8417
ag3
(g7
S'\xa0%\xfd;'
p8418
tp8419
Rp8420
ag3
(g7
S'\xb2\xeci;'
p8421
tp8422
Rp8423
ag3
(g7
S'&\x1cT='
p8424
tp8425
Rp8426
ag3
(g7
S'\xb9\x83\xf6;'
p8427
tp8428
Rp8429
ag3
(g7
S'$3\x94;'
p8430
tp8431
Rp8432
ag3
(g7
S'\xf4\x99\x0b='
p8433
tp8434
Rp8435
ag3
(g7
S'\x994\x8b;'
p8436
tp8437
Rp8438
ag3
(g7
S'T\xd3\x9a<'
p8439
tp8440
Rp8441
ag3
(g7
S'\xa5\x93x;'
p8442
tp8443
Rp8444
ag3
(g7
S')G\xd9:'
p8445
tp8446
Rp8447
ag3
(g7
S'%\xce\xc6:'
p8448
tp8449
Rp8450
ag3
(g7
S'\xae\x92\x90;'
p8451
tp8452
Rp8453
ag3
(g7
S'\x917A;'
p8454
tp8455
Rp8456
ag3
(g7
S'6l\xdf<'
p8457
tp8458
Rp8459
ag3
(g7
S'<7y='
p8460
tp8461
Rp8462
ag3
(g7
S'\x17\xdfr;'
p8463
tp8464
Rp8465
ag3
(g7
S'\xc1\x9e\x99;'
p8466
tp8467
Rp8468
ag3
(g7
S'\x80H\xd9:'
p8469
tp8470
Rp8471
aa(lp8472
g3
(g7
S'\x8cG+@'
p8473
tp8474
Rp8475
ag3
(g7
S'\x85h\xb2;'
p8476
tp8477
Rp8478
ag3
(g7
S'\xd4\xa40@'
p8479
tp8480
Rp8481
ag3
(g7
S'\xa7\x10\x06;'
p8482
tp8483
Rp8484
ag3
(g7
S'\x07$)@'
p8485
tp8486
Rp8487
ag3
(g7
S'\x00,\x1e;'
p8488
tp8489
Rp8490
ag3
(g7
S'\xa0\xa6\xfe<'
p8491
tp8492
Rp8493
ag3
(g7
S'n\xbd/<'
p8494
tp8495
Rp8496
ag3
(g7
S'\xaaO.@'
p8497
tp8498
Rp8499
ag3
(g7
S'\xea\x84\xa9;'
p8500
tp8501
Rp8502
ag3
(g7
S'\x88\x99\x89;'
p8503
tp8504
Rp8505
ag3
(g7
S',\xa1\x00='
p8506
tp8507
Rp8508
ag3
(g7
S'`e\xee<'
p8509
tp8510
Rp8511
ag3
(g7
S'\x91\xe9\x99;'
p8512
tp8513
Rp8514
ag3
(g7
S'>-};'
p8515
tp8516
Rp8517
ag3
(g7
S'\xb5\xf9\xbe;'
p8518
tp8519
Rp8520
ag3
(g7
S'W\xc0>;'
p8521
tp8522
Rp8523
ag3
(g7
S'\x8biw;'
p8524
tp8525
Rp8526
ag3
(g7
S'\xa4\x08\xbb;'
p8527
tp8528
Rp8529
ag3
(g7
S"'F\x9d;"
p8530
tp8531
Rp8532
ag3
(g7
S'\xf6\xc4\x8d;'
p8533
tp8534
Rp8535
ag3
(g7
S'llI='
p8536
tp8537
Rp8538
ag3
(g7
S'\x82\xb8\n<'
p8539
tp8540
Rp8541
ag3
(g7
S'\x8eY\x0c='
p8542
tp8543
Rp8544
ag3
(g7
S'\xd8\xbc\xd4;'
p8545
tp8546
Rp8547
ag3
(g7
S'D\xd0\x00;'
p8548
tp8549
Rp8550
ag3
(g7
S'9Fs;'
p8551
tp8552
Rp8553
ag3
(g7
S'`\x86j;'
p8554
tp8555
Rp8556
ag3
(g7
S'\xf7\xa0=;'
p8557
tp8558
Rp8559
ag3
(g7
S'\xa9{\xbe<'
p8560
tp8561
Rp8562
ag3
(g7
S'\xf3u$='
p8563
tp8564
Rp8565
ag3
(g7
S'D\xc0\x13;'
p8566
tp8567
Rp8568
aa(lp8569
g3
(g7
S'G#y;'
p8570
tp8571
Rp8572
ag3
(g7
S'\xdb\xf0\x15='
p8573
tp8574
Rp8575
ag3
(g7
S'\xa8s\x1a='
p8576
tp8577
Rp8578
ag3
(g7
S'\x06c\x1d;'
p8579
tp8580
Rp8581
ag3
(g7
S'\\\xc8\xb5;'
p8582
tp8583
Rp8584
ag3
(g7
S'\xfa\x90\x84='
p8585
tp8586
Rp8587
ag3
(g7
S'\x95\x8d\x00='
p8588
tp8589
Rp8590
ag3
(g7
S'i\xce0@'
p8591
tp8592
Rp8593
ag3
(g7
S'4h\x9a;'
p8594
tp8595
Rp8596
ag3
(g7
S'<\x14\xb5;'
p8597
tp8598
Rp8599
ag3
(g7
S'\x8b{,@'
p8600
tp8601
Rp8602
ag3
(g7
S'DI0@'
p8603
tp8604
Rp8605
ag3
(g7
S'\xfbD\x07;'
p8606
tp8607
Rp8608
ag3
(g7
S'\xa7k\xc1;'
p8609
tp8610
Rp8611
ag3
(g7
S'Dp\x1d='
p8612
tp8613
Rp8614
ag3
(g7
S'\xca\xe0?;'
p8615
tp8616
Rp8617
ag3
(g7
S'9\nq;'
p8618
tp8619
Rp8620
ag3
(g7
S'\x0c\x19"='
p8621
tp8622
Rp8623
ag3
(g7
S'V\xe1\x94;'
p8624
tp8625
Rp8626
ag3
(g7
S'\xc0hW;'
p8627
tp8628
Rp8629
ag3
(g7
S't\xfb\xa8;'
p8630
tp8631
Rp8632
ag3
(g7
S'\x19F\xa7;'
p8633
tp8634
Rp8635
ag3
(g7
S"F\xdf'@"
p8636
tp8637
Rp8638
ag3
(g7
S'\x19\xda.='
p8639
tp8640
Rp8641
ag3
(g7
S'9\x96y='
p8642
tp8643
Rp8644
ag3
(g7
S't\xab-='
p8645
tp8646
Rp8647
ag3
(g7
S'\x99\x94\xea;'
p8648
tp8649
Rp8650
ag3
(g7
S'?r\x04<'
p8651
tp8652
Rp8653
ag3
(g7
S'\xd0t\xbb;'
p8654
tp8655
Rp8656
ag3
(g7
S'&\xe3\xa9;'
p8657
tp8658
Rp8659
ag3
(g7
S'\x8e\x89\xe8;'
p8660
tp8661
Rp8662
ag3
(g7
S'\xd8\x05\r<'
p8663
tp8664
Rp8665
aa(lp8666
g3
(g7
S'l\x95\xc7;'
p8667
tp8668
Rp8669
ag3
(g7
S'\xc0\x8f\x05='
p8670
tp8671
Rp8672
ag3
(g7
S'\xbb`\xfa;'
p8673
tp8674
Rp8675
ag3
(g7
S'_\x05\x07='
p8676
tp8677
Rp8678
ag3
(g7
S'\xcd&\x04='
p8679
tp8680
Rp8681
ag3
(g7
S'\x87\xcd\xb9;'
p8682
tp8683
Rp8684
ag3
(g7
S'\x1ch\x18='
p8685
tp8686
Rp8687
ag3
(g7
S'\xe6\xc8`;'
p8688
tp8689
Rp8690
ag3
(g7
S'\x9bp\xf6;'
p8691
tp8692
Rp8693
ag3
(g7
S'i\x99\x97;'
p8694
tp8695
Rp8696
ag3
(g7
S'z1\xdb<'
p8697
tp8698
Rp8699
ag3
(g7
S'S\xeb\xad<'
p8700
tp8701
Rp8702
ag3
(g7
S'\xc4m\xfd:'
p8703
tp8704
Rp8705
ag3
(g7
S'\n\x95\xdf;'
p8706
tp8707
Rp8708
ag3
(g7
S'\xfcv.@'
p8709
tp8710
Rp8711
ag3
(g7
S'\xec\x8e\xca<'
p8712
tp8713
Rp8714
ag3
(g7
S'\x84\\\xd7<'
p8715
tp8716
Rp8717
ag3
(g7
S'NO\xe8<'
p8718
tp8719
Rp8720
ag3
(g7
S'jq.<'
p8721
tp8722
Rp8723
ag3
(g7
S'\xa4!N<'
p8724
tp8725
Rp8726
ag3
(g7
S'\xe7s\x98;'
p8727
tp8728
Rp8729
ag3
(g7
S'\x99\x04"<'
p8730
tp8731
Rp8732
ag3
(g7
S'T\xa74<'
p8733
tp8734
Rp8735
ag3
(g7
S'\x1c7\x16<'
p8736
tp8737
Rp8738
ag3
(g7
S'\x95R\xfa;'
p8739
tp8740
Rp8741
ag3
(g7
S'N\xfd}<'
p8742
tp8743
Rp8744
ag3
(g7
S'\xc9\x9b.<'
p8745
tp8746
Rp8747
ag3
(g7
S' \xaam<'
p8748
tp8749
Rp8750
ag3
(g7
S'L\x8c+@'
p8751
tp8752
Rp8753
ag3
(g7
S'\xab\xe8h;'
p8754
tp8755
Rp8756
ag3
(g7
S'\x92\x02\xf7<'
p8757
tp8758
Rp8759
ag3
(g7
S'\xbcN\xc9;'
p8760
tp8761
Rp8762
aa(lp8763
g3
(g7
S'\xd5\xdb\xe3<'
p8764
tp8765
Rp8766
ag3
(g7
S'$\xdd\x02='
p8767
tp8768
Rp8769
ag3
(g7
S'7\xbb\xed;'
p8770
tp8771
Rp8772
ag3
(g7
S'\xbf8\x9f;'
p8773
tp8774
Rp8775
ag3
(g7
S'\t\t\x0b<'
p8776
tp8777
Rp8778
ag3
(g7
S'\x03\x87\x81<'
p8779
tp8780
Rp8781
ag3
(g7
S'\xf6\x17>@'
p8782
tp8783
Rp8784
ag3
(g7
S'\xaeX&<'
p8785
tp8786
Rp8787
ag3
(g7
S'b^\xcc;'
p8788
tp8789
Rp8790
ag3
(g7
S'\xec\x83\xc7;'
p8791
tp8792
Rp8793
ag3
(g7
S'|nB='
p8794
tp8795
Rp8796
ag3
(g7
S'\x8c6g;'
p8797
tp8798
Rp8799
ag3
(g7
S'\x7f~A='
p8800
tp8801
Rp8802
ag3
(g7
S'\x1c\xbe\xfe<'
p8803
tp8804
Rp8805
ag3
(g7
S'\xd2\x15\xa9;'
p8806
tp8807
Rp8808
ag3
(g7
S'\x10\x0f\xa0<'
p8809
tp8810
Rp8811
ag3
(g7
S'\xc0\x1e\xef<'
p8812
tp8813
Rp8814
ag3
(g7
S'\xc5\xf5\xbd;'
p8815
tp8816
Rp8817
ag3
(g7
S'\xb5\xfd"='
p8818
tp8819
Rp8820
ag3
(g7
S'\x01\x8cP<'
p8821
tp8822
Rp8823
ag3
(g7
S'?b\xbd<'
p8824
tp8825
Rp8826
ag3
(g7
S'\x13:\xc5;'
p8827
tp8828
Rp8829
ag3
(g7
S'5\xfe\xea<'
p8830
tp8831
Rp8832
ag3
(g7
S'ds+@'
p8833
tp8834
Rp8835
ag3
(g7
S'\xb6(\xd9;'
p8836
tp8837
Rp8838
ag3
(g7
S'\x06\xfd\xa4<'
p8839
tp8840
Rp8841
ag3
(g7
S'\xeb\xea\xf0;'
p8842
tp8843
Rp8844
ag3
(g7
S'\xe4[\x05<'
p8845
tp8846
Rp8847
ag3
(g7
S',\x96.@'
p8848
tp8849
Rp8850
ag3
(g7
S'C\xcc9@'
p8851
tp8852
Rp8853
ag3
(g7
S'\x96\x16\xbf<'
p8854
tp8855
Rp8856
ag3
(g7
S'\xd7q\x92;'
p8857
tp8858
Rp8859
aa(lp8860
g3
(g7
S'\xcf\xd7\xd1;'
p8861
tp8862
Rp8863
ag3
(g7
S'LF.@'
p8864
tp8865
Rp8866
ag3
(g7
S'\xe5\xd7\x1f<'
p8867
tp8868
Rp8869
ag3
(g7
S'\x7f\xc8\xab<'
p8870
tp8871
Rp8872
ag3
(g7
S'w\xfe\x82='
p8873
tp8874
Rp8875
ag3
(g7
S'\xf9\xec"<'
p8876
tp8877
Rp8878
ag3
(g7
S'\xf4?\x1c<'
p8879
tp8880
Rp8881
ag3
(g7
S'\x0cE\xfe<'
p8882
tp8883
Rp8884
ag3
(g7
S'0\x8d\xfa<'
p8885
tp8886
Rp8887
ag3
(g7
S'\x04j/<'
p8888
tp8889
Rp8890
ag3
(g7
S'P\xac!='
p8891
tp8892
Rp8893
ag3
(g7
S'8]\xb5;'
p8894
tp8895
Rp8896
ag3
(g7
S'\xb7\xa5\xe8;'
p8897
tp8898
Rp8899
ag3
(g7
S'\x1b\x06\x1f<'
p8900
tp8901
Rp8902
ag3
(g7
S'\xc4*C<'
p8903
tp8904
Rp8905
ag3
(g7
S'@\xc7\xa0;'
p8906
tp8907
Rp8908
ag3
(g7
S'\xa6\xb3\r<'
p8909
tp8910
Rp8911
ag3
(g7
S'ty\xbe='
p8912
tp8913
Rp8914
ag3
(g7
S"\xf9'f="
p8915
tp8916
Rp8917
ag3
(g7
S'jb\xc0;'
p8918
tp8919
Rp8920
ag3
(g7
S'\x150+<'
p8921
tp8922
Rp8923
ag3
(g7
S'\x843\xe9;'
p8924
tp8925
Rp8926
ag3
(g7
S'.\xf8\xe2;'
p8927
tp8928
Rp8929
ag3
(g7
S'h\x03[;'
p8930
tp8931
Rp8932
ag3
(g7
S'\xe3\x96\x02='
p8933
tp8934
Rp8935
ag3
(g7
S'0B\x05;'
p8936
tp8937
Rp8938
ag3
(g7
S'>\r\x16='
p8939
tp8940
Rp8941
ag3
(g7
S'*\xed\x1a='
p8942
tp8943
Rp8944
ag3
(g7
S'\xb1a);'
p8945
tp8946
Rp8947
ag3
(g7
S';S\xfe;'
p8948
tp8949
Rp8950
ag3
(g7
S'\x87\xe6\xfe;'
p8951
tp8952
Rp8953
ag3
(g7
S'\\i\xd3;'
p8954
tp8955
Rp8956
aa(lp8957
a(lp8958
a(lp8959
a(lp8960
a(lp8961
a(lp8962
a(lp8963
a(lp8964
a(lp8965
a(lp8966
a(lp8967
a(lp8968
a(lp8969
a(lp8970
a(lp8971
a(lp8972
a(lp8973
a(lp8974
a(lp8975
a(lp8976
a(lp8977
a(lp8978
a(lp8979
a(lp8980
a(lp8981
a(lp8982
a(lp8983
a(lp8984
a(lp8985
a(lp8986
a(lp8987
a(lp8988
a(lp8989
a(lp8990
a(lp8991
a(lp8992
a(lp8993
a(lp8994
a(lp8995
a(lp8996
a(lp8997
a(lp8998
a(lp8999
a(lp9000
a(lp9001
a(lp9002
a(lp9003
a(lp9004
a(lp9005
a(lp9006
a(lp9007
a(lp9008
a(lp9009
a(lp9010
a(lp9011
a(lp9012
a(lp9013
a(lp9014
a(lp9015
a(lp9016
a(lp9017
a(lp9018
a(lp9019
a(lp9020
a(lp9021
a(lp9022
a(lp9023
a(lp9024
a(lp9025
a(lp9026
a(lp9027
a(lp9028
a(lp9029
a(lp9030
a(lp9031
a(lp9032
a(lp9033
a(lp9034
a(lp9035
a(lp9036
a(lp9037
a(lp9038
a(lp9039
a(lp9040
a(lp9041
a(lp9042
a(lp9043
a(lp9044
a(lp9045
a(lp9046
a(lp9047
a(lp9048
a(lp9049
a(lp9050
a(lp9051
a(lp9052
a(lp9053
a(lp9054
a(lp9055
a(lp9056
a(lp9057
a(lp9058
a(lp9059
a(lp9060
a(lp9061
a(lp9062
a(lp9063
a(lp9064
a(lp9065
a(lp9066
a(lp9067
a(lp9068
a(lp9069
a(lp9070
a(lp9071
a(lp9072
a(lp9073
a(lp9074
a(lp9075
a(lp9076
a(lp9077
a(lp9078
a(lp9079
a(lp9080
a(lp9081
a(lp9082
a(lp9083
a(lp9084
a(lp9085
a(lp9086
a(lp9087
a(lp9088
a(lp9089
a(lp9090
a(lp9091
a(lp9092
a(lp9093
a(lp9094
a(lp9095
a(lp9096
a(lp9097
a(lp9098
a(lp9099
a(lp9100
a(lp9101
a(lp9102
a(lp9103
a(lp9104
a(lp9105
a(lp9106
a(lp9107
a(lp9108
a(lp9109
a(lp9110
a(lp9111
a(lp9112
a(lp9113
a(lp9114
a(lp9115
a(lp9116
a(lp9117
a(lp9118
a(lp9119
a(lp9120
a(lp9121
a(lp9122
a(lp9123
a(lp9124
a(lp9125
a(lp9126
a(lp9127
a(lp9128
a(lp9129
a(lp9130
a(lp9131
a(lp9132
a(lp9133
a(lp9134
a(lp9135
a(lp9136
a(lp9137
a(lp9138
a(lp9139
a(lp9140
a(lp9141
a(lp9142
a(lp9143
a(lp9144
a(lp9145
a(lp9146
a(lp9147
a(lp9148
a(lp9149
a(lp9150
a(lp9151
a(lp9152
a(lp9153
a(lp9154
a(lp9155
a(lp9156
a(lp9157
a(lp9158
a(lp9159
a(lp9160
a(lp9161
a(lp9162
a(lp9163
a(lp9164
a(lp9165
a(lp9166
a(lp9167
a(lp9168
a(lp9169
a(lp9170
a(lp9171
a(lp9172
a(lp9173
a(lp9174
a(lp9175
a(lp9176
a(lp9177
a(lp9178
a(lp9179
a(lp9180
a(lp9181
a(lp9182
a(lp9183
a(lp9184
a(lp9185
a(lp9186
a(lp9187
a(lp9188
a(lp9189
a(lp9190
a(lp9191
a(lp9192
a(lp9193
a(lp9194
a(lp9195
a(lp9196
a(lp9197
a(lp9198
a(lp9199
a(lp9200
a(lp9201
a(lp9202
a(lp9203
a(lp9204
a(lp9205
a(lp9206
a(lp9207
a(lp9208
a(lp9209
a(lp9210
a(lp9211
a(lp9212
a(lp9213
a(lp9214
a(lp9215
a(lp9216
a(lp9217
a(lp9218
a(lp9219
a(lp9220
a(lp9221
a(lp9222
a(lp9223
a(lp9224
a(lp9225
a(lp9226
a(lp9227
a(lp9228
a(lp9229
a(lp9230
a(lp9231
a(lp9232
a(lp9233
a(lp9234
a(lp9235
a(lp9236
a(lp9237
a(lp9238
a(lp9239
a(lp9240
a(lp9241
a(lp9242
a(lp9243
a(lp9244
a(lp9245
a(lp9246
a(lp9247
a(lp9248
a(lp9249
a(lp9250
a(lp9251
a(lp9252
a(lp9253
a(lp9254
a(lp9255
a(lp9256
a(lp9257
a(lp9258
a(lp9259
a(lp9260
a(lp9261
a(lp9262
a(lp9263
a(lp9264
a(lp9265
a(lp9266
a(lp9267
a(lp9268
a(lp9269
a(lp9270
a(lp9271
a(lp9272
a(lp9273
a(lp9274
a(lp9275
a(lp9276
a(lp9277
a(lp9278
a(lp9279
a(lp9280
a(lp9281
a(lp9282
a(lp9283
a(lp9284
a(lp9285
a(lp9286
a(lp9287
a(lp9288
a(lp9289
a(lp9290
a(lp9291
a(lp9292
a(lp9293
a(lp9294
a(lp9295
a(lp9296
a(lp9297
a(lp9298
a(lp9299
a(lp9300
a(lp9301
a(lp9302
a(lp9303
a(lp9304
a(lp9305
a(lp9306
a(lp9307
a(lp9308
a(lp9309
a(lp9310
a(lp9311
a(lp9312
a(lp9313
a(lp9314
a(lp9315
a(lp9316
a(lp9317
a(lp9318
a(lp9319
a(lp9320
a(lp9321
a(lp9322
a(lp9323
a(lp9324
a(lp9325
a(lp9326
a(lp9327
a(lp9328
a(lp9329
a(lp9330
a(lp9331
a(lp9332
a(lp9333
a(lp9334
a(lp9335
a(lp9336
a(lp9337
a(lp9338
a(lp9339
a(lp9340
a(lp9341
a(lp9342
a(lp9343
a(lp9344
a(lp9345
a(lp9346
a(lp9347
a(lp9348
a(lp9349
a(lp9350
a(lp9351
a(lp9352
a(lp9353
a(lp9354
a(lp9355
a(lp9356
a(lp9357
a(lp9358
a(lp9359
a(lp9360
a(lp9361
a(lp9362
a(lp9363
a(lp9364
a(lp9365
a(lp9366
a(lp9367
a(lp9368
a(lp9369
a(lp9370
a(lp9371
a(lp9372
a(lp9373
a(lp9374
a(lp9375
a(lp9376
a(lp9377
a(lp9378
a(lp9379
a(lp9380
a(lp9381
a(lp9382
a(lp9383
a(lp9384
a(lp9385
a(lp9386
a(lp9387
a(lp9388
a(lp9389
a(lp9390
a(lp9391
a(lp9392
a(lp9393
a(lp9394
a(lp9395
a(lp9396
a(lp9397
a(lp9398
a(lp9399
a(lp9400
a(lp9401
a(lp9402
a(lp9403
a(lp9404
a(lp9405
a(lp9406
a(lp9407
a(lp9408
a(lp9409
a(lp9410
a(lp9411
a(lp9412
a(lp9413
a(lp9414
a(lp9415
a(lp9416
a(lp9417
a(lp9418
a(lp9419
a(lp9420
a(lp9421
a(lp9422
a(lp9423
a(lp9424
a(lp9425
a(lp9426
a(lp9427
a(lp9428
a(lp9429
a(lp9430
a(lp9431
a(lp9432
a(lp9433
a(lp9434
a(lp9435
a(lp9436
a(lp9437
a(lp9438
a(lp9439
a(lp9440
a(lp9441
a(lp9442
a(lp9443
a(lp9444
a(lp9445
a(lp9446
a(lp9447
a(lp9448
a(lp9449
a(lp9450
a(lp9451
a(lp9452
a(lp9453
a(lp9454
a(lp9455
a(lp9456
a(lp9457
a(lp9458
a(lp9459
a(lp9460
a(lp9461
a(lp9462
a(lp9463
a(lp9464
a(lp9465
a(lp9466
a(lp9467
a(lp9468
a(lp9469
a(lp9470
a(lp9471
a(lp9472
a(lp9473
a(lp9474
a(lp9475
a(lp9476
a(lp9477
a(lp9478
a(lp9479
a(lp9480
a(lp9481
a(lp9482
a(lp9483
a(lp9484
a(lp9485
a(lp9486
a(lp9487
a(lp9488
a(lp9489
a(lp9490
a(lp9491
a(lp9492
a(lp9493
a(lp9494
a(lp9495
a(lp9496
a(lp9497
a(lp9498
a(lp9499
a(lp9500
a(lp9501
a(lp9502
a(lp9503
a(lp9504
a(lp9505
a(lp9506
a(lp9507
a(lp9508
a(lp9509
a(lp9510
a(lp9511
a(lp9512
a(lp9513
a(lp9514
a(lp9515
a(lp9516
a(lp9517
a(lp9518
a(lp9519
a(lp9520
a(lp9521
a(lp9522
a(lp9523
a(lp9524
a(lp9525
a(lp9526
a(lp9527
a(lp9528
a(lp9529
a(lp9530
a(lp9531
a(lp9532
a(lp9533
a(lp9534
a(lp9535
a(lp9536
a(lp9537
a(lp9538
a(lp9539
a(lp9540
a(lp9541
a(lp9542
a(lp9543
a(lp9544
a(lp9545
a(lp9546
a(lp9547
a(lp9548
a(lp9549
a(lp9550
a(lp9551
a(lp9552
a(lp9553
a(lp9554
a(lp9555
a(lp9556
a(lp9557
a(lp9558
a(lp9559
a(lp9560
a(lp9561
a(lp9562
a(lp9563
a(lp9564
a(lp9565
a(lp9566
a(lp9567
a(lp9568
a(lp9569
a(lp9570
a(lp9571
a(lp9572
a(lp9573
a(lp9574
a(lp9575
a(lp9576
a(lp9577
a(lp9578
a(lp9579
a(lp9580
a(lp9581
a(lp9582
a(lp9583
a(lp9584
a(lp9585
a(lp9586
a(lp9587
a(lp9588
a(lp9589
a(lp9590
a(lp9591
a(lp9592
a(lp9593
a(lp9594
a(lp9595
a(lp9596
a(lp9597
a(lp9598
a(lp9599
a(lp9600
a(lp9601
a(lp9602
a(lp9603
a(lp9604
a(lp9605
a(lp9606
a(lp9607
a(lp9608
a(lp9609
a(lp9610
a(lp9611
a(lp9612
a(lp9613
a(lp9614
a(lp9615
a(lp9616
a(lp9617
a(lp9618
a(lp9619
a(lp9620
a(lp9621
a(lp9622
a(lp9623
a(lp9624
a(lp9625
a(lp9626
a(lp9627
a(lp9628
a(lp9629
a(lp9630
a(lp9631
a(lp9632
a(lp9633
a(lp9634
a(lp9635
a(lp9636
a(lp9637
a(lp9638
a(lp9639
a(lp9640
a(lp9641
a(lp9642
a(lp9643
a(lp9644
a(lp9645
a(lp9646
a(lp9647
a(lp9648
a(lp9649
a(lp9650
a(lp9651
a(lp9652
a(lp9653
a(lp9654
a(lp9655
a(lp9656
a(lp9657
a.