(lp0
(lp1
cnumpy.core.multiarray
scalar
p2
(cnumpy
dtype
p3
(S'f4'
p4
I0
I1
tp5
Rp6
(I3
S'<'
p7
NNNI-1
I-1
I0
tp8
bS'\x86\xc5\x0eA'
p9
tp10
Rp11
ag2
(g6
S'w\xc6\xc4@'
p12
tp13
Rp14
ag2
(g6
S'\x93S\x8b@'
p15
tp16
Rp17
ag2
(g6
S'\x13XX@'
p18
tp19
Rp20
ag2
(g6
S'\xd1"4@'
p21
tp22
Rp23
ag2
(g6
S'YW\x0f@'
p24
tp25
Rp26
ag2
(g6
S'\xa5i\xd0?'
p27
tp28
Rp29
ag2
(g6
S'u\xea\xad?'
p30
tp31
Rp32
ag2
(g6
S'\xf32\x87?'
p33
tp34
Rp35
ag2
(g6
S'GfI?'
p36
tp37
Rp38
ag2
(g6
S'h\x03 ?'
p39
tp40
Rp41
ag2
(g6
S'\xe8\xba\xbf>'
p42
tp43
Rp44
ag2
(g6
S"'\x9e\xaa>"
p45
tp46
Rp47
ag2
(g6
S'A;\x8b>'
p48
tp49
Rp50
ag2
(g6
S'\x9a\xef\x1d>'
p51
tp52
Rp53
ag2
(g6
S'\x8c\x04\xbd='
p54
tp55
Rp56
ag2
(g6
S'-(U='
p57
tp58
Rp59
ag2
(g6
S'8\x0e\x80<'
p60
tp61
Rp62
ag2
(g6
S'X\xda\xc1<'
p63
tp64
Rp65
ag2
(g6
S'\xe3O\xaa<'
p66
tp67
Rp68
ag2
(g6
S'[\x0bP='
p69
tp70
Rp71
ag2
(g6
S'\xef\xb3\xde<'
p72
tp73
Rp74
ag2
(g6
S'E\x10;='
p75
tp76
Rp77
ag2
(g6
S'\x8dV\x1c='
p78
tp79
Rp80
ag2
(g6
S'\xd9\x9c\x8f;'
p81
tp82
Rp83
ag2
(g6
S'\x8a&\x8b<'
p84
tp85
Rp86
ag2
(g6
S'P6R='
p87
tp88
Rp89
ag2
(g6
S'\xb9\xe5\r<'
p90
tp91
Rp92
ag2
(g6
S'\xb7\x1f\x18='
p93
tp94
Rp95
ag2
(g6
S'\x0cuh<'
p96
tp97
Rp98
ag2
(g6
S'\x1bcL='
p99
tp100
Rp101
ag2
(g6
S'y\xb7j='
p102
tp103
Rp104
ag2
(g6
S'\xb1\x94\xb3='
p105
tp106
Rp107
ag2
(g6
S'#\xb7\xd4='
p108
tp109
Rp110
ag2
(g6
S'\x93\xfd\xc8>'
p111
tp112
Rp113
ag2
(g6
S'\xff@\xd4='
p114
tp115
Rp116
aa(lp117
g2
(g6
S'-j\xc8='
p118
tp119
Rp120
ag2
(g6
S',\x94+<'
p121
tp122
Rp123
ag2
(g6
S'\xbdN\x15='
p124
tp125
Rp126
ag2
(g6
S'My\x9a<'
p127
tp128
Rp129
ag2
(g6
S'U\xaa&:'
p130
tp131
Rp132
ag2
(g6
S'\x190\xb9<'
p133
tp134
Rp135
ag2
(g6
S'q>\xcf<'
p136
tp137
Rp138
ag2
(g6
S'\xc7\x07\xd6='
p139
tp140
Rp141
ag2
(g6
S'\x9c1P@'
p142
tp143
Rp144
ag2
(g6
S'g\x00c@'
p145
tp146
Rp147
ag2
(g6
S'_\xb0p='
p148
tp149
Rp150
ag2
(g6
S'\xc7\xfdc='
p151
tp152
Rp153
ag2
(g6
S'\x1d\x18\xfb='
p154
tp155
Rp156
ag2
(g6
S'T\xdc\x0f='
p157
tp158
Rp159
ag2
(g6
S'>\x17\x8b<'
p160
tp161
Rp162
ag2
(g6
S'\x13A\x14='
p163
tp164
Rp165
ag2
(g6
S'\xf8\xe9\xb1='
p166
tp167
Rp168
ag2
(g6
S'\xb16T@'
p169
tp170
Rp171
ag2
(g6
S'\xb0z-='
p172
tp173
Rp174
ag2
(g6
S'\xf5\x19\xfa<'
p175
tp176
Rp177
ag2
(g6
S'3d`@'
p178
tp179
Rp180
ag2
(g6
S'\x1d\xbe[@'
p181
tp182
Rp183
ag2
(g6
S'\xe2\x9e\x1e='
p184
tp185
Rp186
ag2
(g6
S'm\x13^='
p187
tp188
Rp189
ag2
(g6
S'y\xf5\x83<'
p190
tp191
Rp192
ag2
(g6
S'\\\x86\xc2<'
p193
tp194
Rp195
ag2
(g6
S'L\xbbf@'
p196
tp197
Rp198
ag2
(g6
S'\x83:a@'
p199
tp200
Rp201
ag2
(g6
S'\xd2U\x9f<'
p202
tp203
Rp204
ag2
(g6
S'C\xe4\x9b='
p205
tp206
Rp207
ag2
(g6
S'\x1d\x97u>'
p208
tp209
Rp210
ag2
(g6
S'\x1d\xd7\x05='
p211
tp212
Rp213
ag2
(g6
S'\xe1\xb1\x8d<'
p214
tp215
Rp216
ag2
(g6
S'\x8b\x165<'
p217
tp218
Rp219
ag2
(g6
S'C \x98<'
p220
tp221
Rp222
ag2
(g6
S'\xd6/(<'
p223
tp224
Rp225
aa(lp226
g2
(g6
S'_\xf7\x8a;'
p227
tp228
Rp229
ag2
(g6
S'\x81\xacd:'
p230
tp231
Rp232
ag2
(g6
S'\xed\x0fr;'
p233
tp234
Rp235
ag2
(g6
S'i\x88\xa9<'
p236
tp237
Rp238
ag2
(g6
S'\x8b\xdf\xb7<'
p239
tp240
Rp241
ag2
(g6
S'\x89\x1aB;'
p242
tp243
Rp244
ag2
(g6
S'\xe5a\x12;'
p245
tp246
Rp247
ag2
(g6
S'\x84\xb4[<'
p248
tp249
Rp250
ag2
(g6
S'\x88]K;'
p251
tp252
Rp253
ag2
(g6
S'\x93k\x9e<'
p254
tp255
Rp256
ag2
(g6
S'\xbf?\x1b<'
p257
tp258
Rp259
ag2
(g6
S'\xb3\n\xba;'
p260
tp261
Rp262
ag2
(g6
S'\xffk2<'
p263
tp264
Rp265
ag2
(g6
S'7\xe8=;'
p266
tp267
Rp268
ag2
(g6
S'\x9d\x0e\r='
p269
tp270
Rp271
ag2
(g6
S'\xa3b\x06<'
p272
tp273
Rp274
ag2
(g6
S'\xbb>\xa5<'
p275
tp276
Rp277
ag2
(g6
S'\xec7i<'
p278
tp279
Rp280
ag2
(g6
S'k\xde\xbb:'
p281
tp282
Rp283
ag2
(g6
S'\x95"J:'
p284
tp285
Rp286
ag2
(g6
S'\x9d(r;'
p287
tp288
Rp289
ag2
(g6
S'\xc9%p<'
p290
tp291
Rp292
ag2
(g6
S'\xb7G\x81<'
p293
tp294
Rp295
ag2
(g6
S'\x8cbG='
p296
tp297
Rp298
ag2
(g6
S'&\xe7\xa1<'
p299
tp300
Rp301
ag2
(g6
S'\x89IC<'
p302
tp303
Rp304
ag2
(g6
S'56\xcd<'
p305
tp306
Rp307
ag2
(g6
S'\x8b\xd2\xa9<'
p308
tp309
Rp310
ag2
(g6
S'\xe3\xb3\xa2='
p311
tp312
Rp313
ag2
(g6
S'\xa0/]='
p314
tp315
Rp316
ag2
(g6
S'\xa1\xed\xe7B'
p317
tp318
Rp319
aa(lp320
g2
(g6
S'\x9d5\xbb='
p321
tp322
Rp323
ag2
(g6
S'\xdb\x83\xbe<'
p324
tp325
Rp326
ag2
(g6
S'\xa7q3<'
p327
tp328
Rp329
ag2
(g6
S'\xe1dt;'
p330
tp331
Rp332
ag2
(g6
S'\xbcWD='
p333
tp334
Rp335
ag2
(g6
S'x\xfe4;'
p336
tp337
Rp338
ag2
(g6
S'\xba\x01\x89<'
p339
tp340
Rp341
ag2
(g6
S'\x10\xc0v;'
p342
tp343
Rp344
ag2
(g6
S'u|\xe6<'
p345
tp346
Rp347
ag2
(g6
S'\x15\xfe\xef<'
p348
tp349
Rp350
ag2
(g6
S'+ZU@'
p351
tp352
Rp353
ag2
(g6
S'y\xb4+='
p354
tp355
Rp356
ag2
(g6
S'\x03\xfa\xf8;'
p357
tp358
Rp359
ag2
(g6
S'\xe9xs@'
p360
tp361
Rp362
ag2
(g6
S'\xc8\xb0/='
p363
tp364
Rp365
ag2
(g6
S'\xed\x92F<'
p366
tp367
Rp368
ag2
(g6
S'\xa6\x85\x04='
p369
tp370
Rp371
ag2
(g6
S'\xed\x8c\xc8;'
p372
tp373
Rp374
ag2
(g6
S'\x19 \x80@'
p375
tp376
Rp377
ag2
(g6
S'gis@'
p378
tp379
Rp380
ag2
(g6
S'|\x82u@'
p381
tp382
Rp383
ag2
(g6
S'\xaf\xf7\x03<'
p384
tp385
Rp386
ag2
(g6
S'[\xbb\xd2B'
p387
tp388
Rp389
aa(lp390
g2
(g6
S'\xf4\xb0\xf7='
p391
tp392
Rp393
ag2
(g6
S'W\xa0e='
p394
tp395
Rp396
ag2
(g6
S'\x8dC]='
p397
tp398
Rp399
ag2
(g6
S'x\xff+<'
p400
tp401
Rp402
ag2
(g6
S'\x05\xa2\x17='
p403
tp404
Rp405
ag2
(g6
S'\xd0s\\<'
p406
tp407
Rp408
ag2
(g6
S's\xe9};'
p409
tp410
Rp411
ag2
(g6
S'\xa5\x81s<'
p412
tp413
Rp414
ag2
(g6
S'\xa89\x0c;'
p415
tp416
Rp417
ag2
(g6
S'\xdc\x10\x9a<'
p418
tp419
Rp420
ag2
(g6
S'P\x00\xbb;'
p421
tp422
Rp423
ag2
(g6
S'=\xdf\x16<'
p424
tp425
Rp426
ag2
(g6
S'\x99\xa5\x1f='
p427
tp428
Rp429
ag2
(g6
S'Ch_@'
p430
tp431
Rp432
ag2
(g6
S'\xa1\x9b_@'
p433
tp434
Rp435
ag2
(g6
S'3\x92^@'
p436
tp437
Rp438
ag2
(g6
S'XXf@'
p439
tp440
Rp441
ag2
(g6
S'\xc8\x9c\x90<'
p442
tp443
Rp444
ag2
(g6
S')\x9e\x92;'
p445
tp446
Rp447
ag2
(g6
S'_\xd8f@'
p448
tp449
Rp450
ag2
(g6
S'u\xe2b@'
p451
tp452
Rp453
ag2
(g6
S'd\xf4d@'
p454
tp455
Rp456
ag2
(g6
S'u\xede@'
p457
tp458
Rp459
ag2
(g6
S's\xd8:='
p460
tp461
Rp462
ag2
(g6
S'\x11i\x9c='
p463
tp464
Rp465
ag2
(g6
S'\x8d\x97/>'
p466
tp467
Rp468
ag2
(g6
S'\xa5K\xfb;'
p469
tp470
Rp471
ag2
(g6
S'\xd9\x8e\x97<'
p472
tp473
Rp474
ag2
(g6
S'\xe1n\xd8<'
p475
tp476
Rp477
ag2
(g6
S'=\x82.<'
p478
tp479
Rp480
ag2
(g6
S'A\xee\x0e<'
p481
tp482
Rp483
ag2
(g6
S'U\xd4\xdc;'
p484
tp485
Rp486
ag2
(g6
S'o p9'
p487
tp488
Rp489
ag2
(g6
S'\xfd\xa6\xb5;'
p490
tp491
Rp492
ag2
(g6
S'K\xfb\xbc='
p493
tp494
Rp495
ag2
(g6
S'o5\x83<'
p496
tp497
Rp498
aa(lp499
g2
(g6
S'Kt\xc6<'
p500
tp501
Rp502
ag2
(g6
S'\x80\xac-<'
p503
tp504
Rp505
ag2
(g6
S'\xeb\xb8\x19<'
p506
tp507
Rp508
ag2
(g6
S'E\x11_<'
p509
tp510
Rp511
ag2
(g6
S'\x1a=\x11<'
p512
tp513
Rp514
ag2
(g6
S'8\xe5\xc0:'
p515
tp516
Rp517
ag2
(g6
S'\xe8\xf6\xfb9'
p518
tp519
Rp520
ag2
(g6
S'\xc3\x7fu;'
p521
tp522
Rp523
ag2
(g6
S'\x9b7\x92;'
p524
tp525
Rp526
ag2
(g6
S'\x9c\x16n<'
p527
tp528
Rp529
ag2
(g6
S'\x11\x08\x1f<'
p530
tp531
Rp532
ag2
(g6
S'C\xe1^='
p533
tp534
Rp535
ag2
(g6
S'z\xca\xa4<'
p536
tp537
Rp538
ag2
(g6
S'\xb9%m@'
p539
tp540
Rp541
ag2
(g6
S'l\x927='
p542
tp543
Rp544
ag2
(g6
S'o\xa5\x1a<'
p545
tp546
Rp547
ag2
(g6
S'7T\xe1<'
p548
tp549
Rp550
ag2
(g6
S'\x90\x81\r<'
p551
tp552
Rp553
ag2
(g6
S'\xbd\xba\xf4<'
p554
tp555
Rp556
ag2
(g6
S'W3\xbe;'
p557
tp558
Rp559
ag2
(g6
S'\xb7{\x85<'
p560
tp561
Rp562
ag2
(g6
S'\x9fOC='
p563
tp564
Rp565
ag2
(g6
S'\x0e\xca\xa9:'
p566
tp567
Rp568
ag2
(g6
S'\x92\xbd\x9b;'
p569
tp570
Rp571
ag2
(g6
S'M\xacr:'
p572
tp573
Rp574
ag2
(g6
S'\xfb8\xae;'
p575
tp576
Rp577
ag2
(g6
S'\x00h\xa7:'
p578
tp579
Rp580
ag2
(g6
S'q(0;'
p581
tp582
Rp583
ag2
(g6
S'\x94\x14 ;'
p584
tp585
Rp586
ag2
(g6
S'\xbfk\\;'
p587
tp588
Rp589
ag2
(g6
S'\xfa\x9c\x8c;'
p590
tp591
Rp592
ag2
(g6
S'\xdc\x12{<'
p593
tp594
Rp595
ag2
(g6
S'E,\x99;'
p596
tp597
Rp598
ag2
(g6
S'\xb6\xeb\x87;'
p599
tp600
Rp601
ag2
(g6
S'e\xdbH<'
p602
tp603
Rp604
ag2
(g6
S'\x97U\xa3<'
p605
tp606
Rp607
aa(lp608
g2
(g6
S'}\x1a\xd2:'
p609
tp610
Rp611
ag2
(g6
S'*\xf4\x94;'
p612
tp613
Rp614
ag2
(g6
S'\x1f\x8e\xec:'
p615
tp616
Rp617
ag2
(g6
S'ae!<'
p618
tp619
Rp620
ag2
(g6
S'L\xf3\xaa;'
p621
tp622
Rp623
ag2
(g6
S'\xf5\x00\xbe;'
p624
tp625
Rp626
ag2
(g6
S'\r^\xb9;'
p627
tp628
Rp629
ag2
(g6
S'x\x80\x12<'
p630
tp631
Rp632
ag2
(g6
S'\x7f\x07)='
p633
tp634
Rp635
ag2
(g6
S'\x91\xf3\xba<'
p636
tp637
Rp638
ag2
(g6
S'5\xdb,:'
p639
tp640
Rp641
ag2
(g6
S'\x91\x9d\xb4;'
p642
tp643
Rp644
ag2
(g6
S'\xc8\x82\xcb7'
p645
tp646
Rp647
ag2
(g6
S'\xc0\xd3\xc3;'
p648
tp649
Rp650
ag2
(g6
S'#\xce&<'
p651
tp652
Rp653
ag2
(g6
S'\xab\xa9"<'
p654
tp655
Rp656
ag2
(g6
S'\xf2r\x8a;'
p657
tp658
Rp659
ag2
(g6
S'\x80\xeb\x95;'
p660
tp661
Rp662
ag2
(g6
S'\xcd\xec~;'
p663
tp664
Rp665
ag2
(g6
S'\x97/\xc8;'
p666
tp667
Rp668
ag2
(g6
S'\xebn\x16<'
p669
tp670
Rp671
ag2
(g6
S'\x93\xe5\xfd;'
p672
tp673
Rp674
ag2
(g6
S'\xe1\xb5\xbd;'
p675
tp676
Rp677
ag2
(g6
S'\x93]K<'
p678
tp679
Rp680
ag2
(g6
S'e\xf3\xe6<'
p681
tp682
Rp683
ag2
(g6
S'M\x7f6='
p684
tp685
Rp686
ag2
(g6
S'#\xb9\xa4:'
p687
tp688
Rp689
ag2
(g6
S'O\x04\x8c<'
p690
tp691
Rp692
ag2
(g6
S'\x14<\x12='
p693
tp694
Rp695
ag2
(g6
S'\xcb\x8d\x8d<'
p696
tp697
Rp698
ag2
(g6
S'\x85o)='
p699
tp700
Rp701
ag2
(g6
S'u\xd0\xcfB'
p702
tp703
Rp704
aa(lp705
g2
(g6
S'c\nC<'
p706
tp707
Rp708
ag2
(g6
S'\xc9\xba\x81<'
p709
tp710
Rp711
ag2
(g6
S'p\xb0\x8a;'
p712
tp713
Rp714
ag2
(g6
S'z\xb5\x06='
p715
tp716
Rp717
ag2
(g6
S'\x075\x1c<'
p718
tp719
Rp720
ag2
(g6
S'K:5<'
p721
tp722
Rp723
ag2
(g6
S'\x8b\x14\n<'
p724
tp725
Rp726
ag2
(g6
S'}\x84\x1a<'
p727
tp728
Rp729
ag2
(g6
S'\xf8\xbe\x8a<'
p730
tp731
Rp732
ag2
(g6
S'D\x0f\xa2<'
p733
tp734
Rp735
ag2
(g6
S'\xa4X];'
p736
tp737
Rp738
ag2
(g6
S'\xd1\xc8E<'
p739
tp740
Rp741
ag2
(g6
S'+\x9a\xc7<'
p742
tp743
Rp744
ag2
(g6
S'\xa8G]<'
p745
tp746
Rp747
ag2
(g6
S'p\x98l<'
p748
tp749
Rp750
ag2
(g6
S'\x95Z%<'
p751
tp752
Rp753
ag2
(g6
S'P\x1f0<'
p754
tp755
Rp756
ag2
(g6
S'\x95I\xad;'
p757
tp758
Rp759
ag2
(g6
S'\x07\xfa#<'
p760
tp761
Rp762
ag2
(g6
S'q\xdf]='
p763
tp764
Rp765
ag2
(g6
S'tH.<'
p766
tp767
Rp768
ag2
(g6
S'1z\x99<'
p769
tp770
Rp771
ag2
(g6
S'5\rG='
p772
tp773
Rp774
ag2
(g6
S'o\x1d\x01>'
p775
tp776
Rp777
ag2
(g6
S';_\xc8B'
p778
tp779
Rp780
aa(lp781
g2
(g6
S'\xa3\xa2\x9c<'
p782
tp783
Rp784
ag2
(g6
S'\xbd\xa2\x85<'
p785
tp786
Rp787
ag2
(g6
S'c\xdc\xe0;'
p788
tp789
Rp790
ag2
(g6
S'\xa9(\x94<'
p791
tp792
Rp793
ag2
(g6
S'G\xfe\xee;'
p794
tp795
Rp796
ag2
(g6
S'\xecR\x83<'
p797
tp798
Rp799
ag2
(g6
S'\xd5\xe9!;'
p800
tp801
Rp802
ag2
(g6
S'\xd8\xcb\xb9;'
p803
tp804
Rp805
ag2
(g6
S'\xd3\x07\x8e<'
p806
tp807
Rp808
ag2
(g6
S'k\xdb\x82<'
p809
tp810
Rp811
ag2
(g6
S'%Z\x8a<'
p812
tp813
Rp814
ag2
(g6
S'\xab\x17\xdd<'
p815
tp816
Rp817
ag2
(g6
S'\xeaI\x98<'
p818
tp819
Rp820
ag2
(g6
S'G9\x06;'
p821
tp822
Rp823
ag2
(g6
S'i.\x99<'
p824
tp825
Rp826
ag2
(g6
S'i_f='
p827
tp828
Rp829
ag2
(g6
S'\xcd\xed\x8c='
p830
tp831
Rp832
ag2
(g6
S'\xedg\x17<'
p833
tp834
Rp835
ag2
(g6
S'\xdf\xe3\xd4<'
p836
tp837
Rp838
ag2
(g6
S'\xecJ\xbb;'
p839
tp840
Rp841
ag2
(g6
S'\xb3\xdc\x13<'
p842
tp843
Rp844
ag2
(g6
S'\xe1(\x91<'
p845
tp846
Rp847
ag2
(g6
S'\x9b]H<'
p848
tp849
Rp850
ag2
(g6
S'\x80/f<'
p851
tp852
Rp853
ag2
(g6
S'\xbb\x10\xab<'
p854
tp855
Rp856
ag2
(g6
S'}o\x10<'
p857
tp858
Rp859
ag2
(g6
S'\x97\xaf\x02='
p860
tp861
Rp862
ag2
(g6
S'\x15\x81\xe2;'
p863
tp864
Rp865
ag2
(g6
S'[\xd4\x96<'
p866
tp867
Rp868
ag2
(g6
S'a\x8dZ<'
p869
tp870
Rp871
ag2
(g6
S'cv\x06:'
p872
tp873
Rp874
ag2
(g6
S'\xf1\xb9\xf6<'
p875
tp876
Rp877
ag2
(g6
S'\xfc\x11q;'
p878
tp879
Rp880
ag2
(g6
S'\x03\x08\xd9<'
p881
tp882
Rp883
ag2
(g6
S'\xd4\xd2q;'
p884
tp885
Rp886
ag2
(g6
S'W\xd7C;'
p887
tp888
Rp889
aa(lp890
g2
(g6
S'u\x8dI;'
p891
tp892
Rp893
ag2
(g6
S'\xcd\x05\xb2;'
p894
tp895
Rp896
ag2
(g6
S'\xfc\xa9\xe3;'
p897
tp898
Rp899
ag2
(g6
S'\xdb+\x94;'
p900
tp901
Rp902
ag2
(g6
S'\x8b,\xf1;'
p903
tp904
Rp905
ag2
(g6
S'`\x94\x11;'
p906
tp907
Rp908
ag2
(g6
S'~\xb8\xa8:'
p909
tp910
Rp911
ag2
(g6
S'\xa1\xe1[;'
p912
tp913
Rp914
ag2
(g6
S'\xab\xb7\x14<'
p915
tp916
Rp917
ag2
(g6
S'\xb0\x03\xf7;'
p918
tp919
Rp920
ag2
(g6
S'\x83+\x9a:'
p921
tp922
Rp923
ag2
(g6
S'\xd5z\xdf;'
p924
tp925
Rp926
ag2
(g6
S'\x0f\xb9\xc5;'
p927
tp928
Rp929
ag2
(g6
S'K\xc9Z;'
p930
tp931
Rp932
ag2
(g6
S'`\xd4\xbc;'
p933
tp934
Rp935
ag2
(g6
S'\xd7c?;'
p936
tp937
Rp938
ag2
(g6
S'\x852?;'
p939
tp940
Rp941
ag2
(g6
S'\xfdAi<'
p942
tp943
Rp944
ag2
(g6
S'\xd0|\xba;'
p945
tp946
Rp947
ag2
(g6
S'\xfc\x15 ='
p948
tp949
Rp950
ag2
(g6
S'\xb3\xd0\x9c='
p951
tp952
Rp953
ag2
(g6
S'\xdfDb@'
p954
tp955
Rp956
ag2
(g6
S'\x15\x9fb@'
p957
tp958
Rp959
ag2
(g6
S'\x85q\xd2B'
p960
tp961
Rp962
aa(lp963
g2
(g6
S'a\xd3\xa0='
p964
tp965
Rp966
ag2
(g6
S'ko\x00='
p967
tp968
Rp969
ag2
(g6
S'\xa3R\x9b<'
p970
tp971
Rp972
ag2
(g6
S'9\x14\x90<'
p973
tp974
Rp975
ag2
(g6
S'9\xd9\xcd;'
p976
tp977
Rp978
ag2
(g6
S'\x8b|\xc0;'
p979
tp980
Rp981
ag2
(g6
S'\xb5~x;'
p982
tp983
Rp984
ag2
(g6
S'n+\t;'
p985
tp986
Rp987
ag2
(g6
S'\xe5WV;'
p988
tp989
Rp990
ag2
(g6
S'\xbf\xb3{;'
p991
tp992
Rp993
ag2
(g6
S'-?:;'
p994
tp995
Rp996
ag2
(g6
S'\xb0m\xe9;'
p997
tp998
Rp999
ag2
(g6
S'\r\xe7\x12:'
p1000
tp1001
Rp1002
ag2
(g6
S'\x83g!<'
p1003
tp1004
Rp1005
ag2
(g6
S'\x80\xfdc;'
p1006
tp1007
Rp1008
ag2
(g6
S'P\x99\xce:'
p1009
tp1010
Rp1011
ag2
(g6
S'\xb0\x11\xff:'
p1012
tp1013
Rp1014
ag2
(g6
S'\x01\xf5\xd4:'
p1015
tp1016
Rp1017
ag2
(g6
S'A\xca\xc4;'
p1018
tp1019
Rp1020
ag2
(g6
S';T\xc4:'
p1021
tp1022
Rp1023
ag2
(g6
S'^\x9d\x92;'
p1024
tp1025
Rp1026
ag2
(g6
S'V\x1d$;'
p1027
tp1028
Rp1029
ag2
(g6
S'/\xa0\x99;'
p1030
tp1031
Rp1032
ag2
(g6
S'\xa3\x9as;'
p1033
tp1034
Rp1035
ag2
(g6
S'p\xc8\xc0;'
p1036
tp1037
Rp1038
ag2
(g6
S'\xbbw4;'
p1039
tp1040
Rp1041
ag2
(g6
S'\x8d\xb8\xd0;'
p1042
tp1043
Rp1044
ag2
(g6
S'\xc0\xba-;'
p1045
tp1046
Rp1047
ag2
(g6
S'\xe13\x93:'
p1048
tp1049
Rp1050
ag2
(g6
S'\xf8\x82?<'
p1051
tp1052
Rp1053
ag2
(g6
S't\xac\x8e<'
p1054
tp1055
Rp1056
ag2
(g6
S'D\x8c\xea;'
p1057
tp1058
Rp1059
ag2
(g6
S';\x19>9'
p1060
tp1061
Rp1062
ag2
(g6
S'\x07\x98!;'
p1063
tp1064
Rp1065
ag2
(g6
S'(~^;'
p1066
tp1067
Rp1068
ag2
(g6
S'i\x9dg<'
p1069
tp1070
Rp1071
aa(lp1072
g2
(g6
S'\xd5\xf5\x919'
p1073
tp1074
Rp1075
ag2
(g6
S'\xb4G\x08;'
p1076
tp1077
Rp1078
ag2
(g6
S'#\xe4N;'
p1079
tp1080
Rp1081
ag2
(g6
S'\x98\x06\xac;'
p1082
tp1083
Rp1084
ag2
(g6
S'xK\x0b<'
p1085
tp1086
Rp1087
ag2
(g6
S'3\x99\x13<'
p1088
tp1089
Rp1090
ag2
(g6
S'\xf3\xe8\x8a:'
p1091
tp1092
Rp1093
ag2
(g6
S'\x97\xe2\x06;'
p1094
tp1095
Rp1096
ag2
(g6
S'\x14\x12\xb7;'
p1097
tp1098
Rp1099
ag2
(g6
S'hm\xab<'
p1100
tp1101
Rp1102
ag2
(g6
S'\x8d\x1d\xdd<'
p1103
tp1104
Rp1105
ag2
(g6
S'\xa7\xba\r<'
p1106
tp1107
Rp1108
ag2
(g6
S'\xd1\xde\n<'
p1109
tp1110
Rp1111
ag2
(g6
S'y\xc5\x06='
p1112
tp1113
Rp1114
ag2
(g6
S'I\x1d\x9e='
p1115
tp1116
Rp1117
ag2
(g6
S'\x8b\xc3z<'
p1118
tp1119
Rp1120
ag2
(g6
S'L\x01\xb1;'
p1121
tp1122
Rp1123
ag2
(g6
S'\xf5i\x1f<'
p1124
tp1125
Rp1126
ag2
(g6
S'\xcbr\x92:'
p1127
tp1128
Rp1129
ag2
(g6
S'\x04o\xba<'
p1130
tp1131
Rp1132
ag2
(g6
S'\xa5\xed);'
p1133
tp1134
Rp1135
ag2
(g6
S'\x17\r\xb9<'
p1136
tp1137
Rp1138
ag2
(g6
S'@{m='
p1139
tp1140
Rp1141
ag2
(g6
S'4g\x07='
p1142
tp1143
Rp1144
ag2
(g6
S'\xd9\xb4\x8a;'
p1145
tp1146
Rp1147
ag2
(g6
S'\xcfs\x8c@'
p1148
tp1149
Rp1150
ag2
(g6
S'Y\xc1c='
p1151
tp1152
Rp1153
ag2
(g6
S'p=\xdaB'
p1154
tp1155
Rp1156
aa(lp1157
g2
(g6
S'\xab\xcb\xab;'
p1158
tp1159
Rp1160
ag2
(g6
S'\x0fS\x17;'
p1161
tp1162
Rp1163
ag2
(g6
S'\xfb\xe3Y;'
p1164
tp1165
Rp1166
ag2
(g6
S'\x84\xc6\x9c;'
p1167
tp1168
Rp1169
ag2
(g6
S'\x00b\xf3:'
p1170
tp1171
Rp1172
ag2
(g6
S'3\x95\x98;'
p1173
tp1174
Rp1175
ag2
(g6
S'\xa4\xde|;'
p1176
tp1177
Rp1178
ag2
(g6
S' \x92\x0c<'
p1179
tp1180
Rp1181
ag2
(g6
S'\xff\r8<'
p1182
tp1183
Rp1184
ag2
(g6
S'\x05\x1f\x1c;'
p1185
tp1186
Rp1187
ag2
(g6
S'\x88\xc9`;'
p1188
tp1189
Rp1190
ag2
(g6
S'IMr:'
p1191
tp1192
Rp1193
ag2
(g6
S'Wz\x06='
p1194
tp1195
Rp1196
ag2
(g6
S'k\xc9\x88@'
p1197
tp1198
Rp1199
ag2
(g6
S'\r*\x9c>'
p1200
tp1201
Rp1202
ag2
(g6
S'm\xcb\xd8B'
p1203
tp1204
Rp1205
aa(lp1206
g2
(g6
S"H\x95';"
p1207
tp1208
Rp1209
ag2
(g6
S'\x08\xce\xe6:'
p1210
tp1211
Rp1212
ag2
(g6
S'\x93\xbb7<'
p1213
tp1214
Rp1215
ag2
(g6
S'\x00b\r;'
p1216
tp1217
Rp1218
ag2
(g6
S'\xa7\xf8\xf0;'
p1219
tp1220
Rp1221
ag2
(g6
S'{\xe0\xc7;'
p1222
tp1223
Rp1224
ag2
(g6
S'lS\xc69'
p1225
tp1226
Rp1227
ag2
(g6
S'\xdc\xc98<'
p1228
tp1229
Rp1230
ag2
(g6
S'\x99\x85\x04<'
p1231
tp1232
Rp1233
ag2
(g6
S'G)\xcc:'
p1234
tp1235
Rp1236
ag2
(g6
S'\x0e(\x06<'
p1237
tp1238
Rp1239
ag2
(g6
S'\xcf)7<'
p1240
tp1241
Rp1242
ag2
(g6
S')\x88\x8b;'
p1243
tp1244
Rp1245
ag2
(g6
S'\x05u\xa2;'
p1246
tp1247
Rp1248
ag2
(g6
S'5VJ<'
p1249
tp1250
Rp1251
ag2
(g6
S'\x14$\t;'
p1252
tp1253
Rp1254
ag2
(g6
S'{\x86?9'
p1255
tp1256
Rp1257
ag2
(g6
S'\x9b\xb8(<'
p1258
tp1259
Rp1260
ag2
(g6
S'\xb3o9<'
p1261
tp1262
Rp1263
ag2
(g6
S'\xf7:\xf39'
p1264
tp1265
Rp1266
ag2
(g6
S'k\x0e\xcc:'
p1267
tp1268
Rp1269
ag2
(g6
S'M*\x90;'
p1270
tp1271
Rp1272
ag2
(g6
S'c\xc8\xdb;'
p1273
tp1274
Rp1275
ag2
(g6
S'\xbb-s;'
p1276
tp1277
Rp1278
ag2
(g6
S'\xe1z\x10;'
p1279
tp1280
Rp1281
ag2
(g6
S'\xe8\xd2\x9f;'
p1282
tp1283
Rp1284
ag2
(g6
S'\xb1\xdd\xce<'
p1285
tp1286
Rp1287
ag2
(g6
S'\xe1\xc6\xb3<'
p1288
tp1289
Rp1290
ag2
(g6
S'\xed\x84\xdc<'
p1291
tp1292
Rp1293
ag2
(g6
S'38\xd6;'
p1294
tp1295
Rp1296
ag2
(g6
S'\xb3\xc4~<'
p1297
tp1298
Rp1299
ag2
(g6
S'\x83\xc5L;'
p1300
tp1301
Rp1302
ag2
(g6
S'`\xffx@'
p1303
tp1304
Rp1305
ag2
(g6
S'\xed\xd3p<'
p1306
tp1307
Rp1308
ag2
(g6
S'\xcd\xbc\x05<'
p1309
tp1310
Rp1311
ag2
(g6
S'}g}@'
p1312
tp1313
Rp1314
aa(lp1315
g2
(g6
S'\xd4L5='
p1316
tp1317
Rp1318
ag2
(g6
S'\xef:\x01<'
p1319
tp1320
Rp1321
ag2
(g6
S'\xd7\x0c\x86;'
p1322
tp1323
Rp1324
ag2
(g6
S'Qn6;'
p1325
tp1326
Rp1327
ag2
(g6
S'\x8f\x0f\x97<'
p1328
tp1329
Rp1330
ag2
(g6
S'Z\x1a\x1b;'
p1331
tp1332
Rp1333
ag2
(g6
S'~\xd3";'
p1334
tp1335
Rp1336
ag2
(g6
S'\xd5\xc8\x10;'
p1337
tp1338
Rp1339
ag2
(g6
S'{Q\x1d:'
p1340
tp1341
Rp1342
ag2
(g6
S'A\xb7\x9a;'
p1343
tp1344
Rp1345
ag2
(g6
S'PT\xa0;'
p1346
tp1347
Rp1348
ag2
(g6
S'!\xca\xf89'
p1349
tp1350
Rp1351
ag2
(g6
S')T\x91;'
p1352
tp1353
Rp1354
ag2
(g6
S'\xc9\xbb\x8b;'
p1355
tp1356
Rp1357
ag2
(g6
S'\xecS\x9c:'
p1358
tp1359
Rp1360
ag2
(g6
S'l,\xf7;'
p1361
tp1362
Rp1363
ag2
(g6
S'\xd2\x17\x82:'
p1364
tp1365
Rp1366
ag2
(g6
S'Qgz:'
p1367
tp1368
Rp1369
ag2
(g6
S'\x87\xfe\xa1:'
p1370
tp1371
Rp1372
ag2
(g6
S'\x14o6<'
p1373
tp1374
Rp1375
ag2
(g6
S'\x9f)D<'
p1376
tp1377
Rp1378
ag2
(g6
S'/\x01x<'
p1379
tp1380
Rp1381
ag2
(g6
S's\xa5u@'
p1382
tp1383
Rp1384
ag2
(g6
S's\xaf\x8c<'
p1385
tp1386
Rp1387
ag2
(g6
S'\x98\xfdi:'
p1388
tp1389
Rp1390
ag2
(g6
S'5\xd7Z='
p1391
tp1392
Rp1393
ag2
(g6
S'?\x1e\x9f;'
p1394
tp1395
Rp1396
ag2
(g6
S'4\xc4\xb7:'
p1397
tp1398
Rp1399
ag2
(g6
S'V\x9d\xa9:'
p1400
tp1401
Rp1402
ag2
(g6
S'e\x07\x02:'
p1403
tp1404
Rp1405
ag2
(g6
S'SSi;'
p1406
tp1407
Rp1408
ag2
(g6
S'\xf7\x9a\xd5<'
p1409
tp1410
Rp1411
ag2
(g6
S'\xff|\xcd;'
p1412
tp1413
Rp1414
ag2
(g6
S'X\xa3\xe8;'
p1415
tp1416
Rp1417
ag2
(g6
S'G\xcf\x9f:'
p1418
tp1419
Rp1420
ag2
(g6
S'\x07\xab@;'
p1421
tp1422
Rp1423
aa(lp1424
g2
(g6
S'\xc6\x8d\x93;'
p1425
tp1426
Rp1427
ag2
(g6
S'\x9e\xcd\x01;'
p1428
tp1429
Rp1430
ag2
(g6
S"\xbd\x08';"
p1431
tp1432
Rp1433
ag2
(g6
S'\xa8\xb2\x8b:'
p1434
tp1435
Rp1436
ag2
(g6
S'\xe0-.9'
p1437
tp1438
Rp1439
ag2
(g6
S'\xe9M!;'
p1440
tp1441
Rp1442
ag2
(g6
S'E<\xb2;'
p1443
tp1444
Rp1445
ag2
(g6
S'O\x9a\xa1<'
p1446
tp1447
Rp1448
ag2
(g6
S'\x83\x92p<'
p1449
tp1450
Rp1451
ag2
(g6
S']\xe9\x06<'
p1452
tp1453
Rp1454
ag2
(g6
S'\x96p\x0f<'
p1455
tp1456
Rp1457
ag2
(g6
S'A\x17V:'
p1458
tp1459
Rp1460
ag2
(g6
S'\xc7\r\xc1;'
p1461
tp1462
Rp1463
ag2
(g6
S'\xf8\x91\x0e<'
p1464
tp1465
Rp1466
ag2
(g6
S'y\x04\t<'
p1467
tp1468
Rp1469
ag2
(g6
S'D\x11\x06='
p1470
tp1471
Rp1472
ag2
(g6
S'7\xab6='
p1473
tp1474
Rp1475
ag2
(g6
S'\xa9L\xa7<'
p1476
tp1477
Rp1478
ag2
(g6
S'\x01\xacG<'
p1479
tp1480
Rp1481
ag2
(g6
S'\xa1\x7f\xb6<'
p1482
tp1483
Rp1484
ag2
(g6
S'\xf2\x1b\x1b<'
p1485
tp1486
Rp1487
ag2
(g6
S'9\x14~<'
p1488
tp1489
Rp1490
ag2
(g6
S'\x04\xa4S;'
p1491
tp1492
Rp1493
ag2
(g6
S'-\xad\x80<'
p1494
tp1495
Rp1496
ag2
(g6
S'T\xaft<'
p1497
tp1498
Rp1499
ag2
(g6
S'/\n\x1f<'
p1500
tp1501
Rp1502
ag2
(g6
S'\x98\xb3k;'
p1503
tp1504
Rp1505
ag2
(g6
S'\xd0A\xf2;'
p1506
tp1507
Rp1508
ag2
(g6
S'k\xb0\xe5<'
p1509
tp1510
Rp1511
ag2
(g6
S'\xad\xc0\x86;'
p1512
tp1513
Rp1514
ag2
(g6
S'\x0bA$;'
p1515
tp1516
Rp1517
ag2
(g6
S'\xbd\x8e\xe4<'
p1518
tp1519
Rp1520
ag2
(g6
S'\xbd\xd8\xa2;'
p1521
tp1522
Rp1523
ag2
(g6
S'\x0f\x00\x02<'
p1524
tp1525
Rp1526
ag2
(g6
S'Kz{<'
p1527
tp1528
Rp1529
ag2
(g6
S'\xfd\xe7X<'
p1530
tp1531
Rp1532
aa(lp1533
g2
(g6
S'q\xfd\xed;'
p1534
tp1535
Rp1536
ag2
(g6
S"\xe3'\x1c<"
p1537
tp1538
Rp1539
ag2
(g6
S'\x05\xbb><'
p1540
tp1541
Rp1542
ag2
(g6
S'\x90<q<'
p1543
tp1544
Rp1545
ag2
(g6
S'\x9b\xc8M<'
p1546
tp1547
Rp1548
ag2
(g6
S'\x0fR\xab<'
p1549
tp1550
Rp1551
ag2
(g6
S'?\xc2<<'
p1552
tp1553
Rp1554
ag2
(g6
S'\x18y\x9a;'
p1555
tp1556
Rp1557
ag2
(g6
S'\x89X\x1f9'
p1558
tp1559
Rp1560
ag2
(g6
S'\x91D\x99<'
p1561
tp1562
Rp1563
ag2
(g6
S'\xf4V\xba<'
p1564
tp1565
Rp1566
ag2
(g6
S'\xfdvO<'
p1567
tp1568
Rp1569
ag2
(g6
S'Y#\x1e;'
p1570
tp1571
Rp1572
ag2
(g6
S'\xb7`\x1f;'
p1573
tp1574
Rp1575
ag2
(g6
S'\x95\xad\x96;'
p1576
tp1577
Rp1578
ag2
(g6
S'P\x1b\x8b<'
p1579
tp1580
Rp1581
ag2
(g6
S'p\xeb\xc2<'
p1582
tp1583
Rp1584
ag2
(g6
S'\xcbw\x98<'
p1585
tp1586
Rp1587
ag2
(g6
S'$\xa5u@'
p1588
tp1589
Rp1590
ag2
(g6
S'\xe0\x16\xdd;'
p1591
tp1592
Rp1593
ag2
(g6
S'\xc8`\xe4:'
p1594
tp1595
Rp1596
ag2
(g6
S'\x87\x19\x12:'
p1597
tp1598
Rp1599
ag2
(g6
S'\xa8\xc1v@'
p1600
tp1601
Rp1602
ag2
(g6
S'\xbb\xf8t@'
p1603
tp1604
Rp1605
ag2
(g6
S'X\xb3\xcd;'
p1606
tp1607
Rp1608
ag2
(g6
S'\xef)\xee;'
p1609
tp1610
Rp1611
ag2
(g6
S'V(\x9a='
p1612
tp1613
Rp1614
ag2
(g6
S'\xbf\x8f\x90;'
p1615
tp1616
Rp1617
ag2
(g6
S'k\x17\xa6<'
p1618
tp1619
Rp1620
ag2
(g6
S'\xa9K\x07<'
p1621
tp1622
Rp1623
ag2
(g6
S'Q\x82\xf3;'
p1624
tp1625
Rp1626
ag2
(g6
S't\x04\x95;'
p1627
tp1628
Rp1629
ag2
(g6
S'\xa3B\x9e:'
p1630
tp1631
Rp1632
ag2
(g6
S'\xf0\x96h<'
p1633
tp1634
Rp1635
ag2
(g6
S'kg\x99;'
p1636
tp1637
Rp1638
ag2
(g6
S'\x8c\xd2\x8c<'
p1639
tp1640
Rp1641
aa(lp1642
g2
(g6
S'\xd0\xbc\x9f<'
p1643
tp1644
Rp1645
ag2
(g6
S'i\xee\x08<'
p1646
tp1647
Rp1648
ag2
(g6
S'}\xfa\xd68'
p1649
tp1650
Rp1651
ag2
(g6
S'P\x87\xbb:'
p1652
tp1653
Rp1654
ag2
(g6
S'h\x03\xd69'
p1655
tp1656
Rp1657
ag2
(g6
S'-\x1a\xcd:'
p1658
tp1659
Rp1660
ag2
(g6
S'\xe4\x04C<'
p1661
tp1662
Rp1663
ag2
(g6
S'!\xdc\x87;'
p1664
tp1665
Rp1666
ag2
(g6
S'\x10\xe7\x1b='
p1667
tp1668
Rp1669
ag2
(g6
S'\xc0\x99i<'
p1670
tp1671
Rp1672
ag2
(g6
S'*"\x0b='
p1673
tp1674
Rp1675
ag2
(g6
S'\xb7z\xcd:'
p1676
tp1677
Rp1678
ag2
(g6
S'\xd5\xc9\xd2;'
p1679
tp1680
Rp1681
ag2
(g6
S'\x03\xcb@<'
p1682
tp1683
Rp1684
ag2
(g6
S'\xaf\x1b\x94;'
p1685
tp1686
Rp1687
ag2
(g6
S'x48;'
p1688
tp1689
Rp1690
ag2
(g6
S'\xf1=\x04<'
p1691
tp1692
Rp1693
ag2
(g6
S'\x81\xa7\xf5:'
p1694
tp1695
Rp1696
ag2
(g6
S'\xbc\xdb\xd5B'
p1697
tp1698
Rp1699
aa(lp1700
g2
(g6
S'K\xe3X<'
p1701
tp1702
Rp1703
ag2
(g6
S'\x93\xb8\xf8;'
p1704
tp1705
Rp1706
ag2
(g6
S'o\xab\x91;'
p1707
tp1708
Rp1709
ag2
(g6
S'd*";'
p1710
tp1711
Rp1712
ag2
(g6
S'\x82\xa6\x1f;'
p1713
tp1714
Rp1715
ag2
(g6
S'paQ<'
p1716
tp1717
Rp1718
ag2
(g6
S'O\xd5+9'
p1719
tp1720
Rp1721
ag2
(g6
S')D3:'
p1722
tp1723
Rp1724
ag2
(g6
S'\x13\xbe\xca;'
p1725
tp1726
Rp1727
ag2
(g6
S'[\xa6m<'
p1728
tp1729
Rp1730
ag2
(g6
S'\x00\xb6y<'
p1731
tp1732
Rp1733
ag2
(g6
S'5$\xba:'
p1734
tp1735
Rp1736
ag2
(g6
S'#\xd6\xe4:'
p1737
tp1738
Rp1739
ag2
(g6
S'\xc1\xb7\xbd:'
p1740
tp1741
Rp1742
ag2
(g6
S'\xc8\x0bT9'
p1743
tp1744
Rp1745
ag2
(g6
S'\x959E<'
p1746
tp1747
Rp1748
ag2
(g6
S'\x8dM`<'
p1749
tp1750
Rp1751
ag2
(g6
S'}q\x1b;'
p1752
tp1753
Rp1754
ag2
(g6
S'kmO<'
p1755
tp1756
Rp1757
ag2
(g6
S'\xabY\x17;'
p1758
tp1759
Rp1760
ag2
(g6
S'-R\xbf<'
p1761
tp1762
Rp1763
ag2
(g6
S'_\xa7c<'
p1764
tp1765
Rp1766
ag2
(g6
S'\xe5\x1a\x9f<'
p1767
tp1768
Rp1769
ag2
(g6
S'\x94\xa6\x83<'
p1770
tp1771
Rp1772
ag2
(g6
S'\x0f\xd8Q@'
p1773
tp1774
Rp1775
ag2
(g6
S'\xe7PE@'
p1776
tp1777
Rp1778
ag2
(g6
S'sIX@'
p1779
tp1780
Rp1781
ag2
(g6
S'\x17\x03]@'
p1782
tp1783
Rp1784
ag2
(g6
S'\xdc\xfe]@'
p1785
tp1786
Rp1787
ag2
(g6
S'90V@'
p1788
tp1789
Rp1790
ag2
(g6
S'\xf5\x08\xe4B'
p1791
tp1792
Rp1793
aa(lp1794
g2
(g6
S'\x11}\xe2='
p1795
tp1796
Rp1797
ag2
(g6
S'\x9cSS='
p1798
tp1799
Rp1800
ag2
(g6
S'\r\xd2\x07='
p1801
tp1802
Rp1803
ag2
(g6
S'\xb1n\xbe<'
p1804
tp1805
Rp1806
ag2
(g6
S'-M\x9b<'
p1807
tp1808
Rp1809
ag2
(g6
S'9\x043<'
p1810
tp1811
Rp1812
ag2
(g6
S'\x92;\x87<'
p1813
tp1814
Rp1815
ag2
(g6
S'\xf1\xd3\xa4;'
p1816
tp1817
Rp1818
ag2
(g6
S'b0\x9f;'
p1819
tp1820
Rp1821
ag2
(g6
S'\xf8\xa8\x7f;'
p1822
tp1823
Rp1824
ag2
(g6
S'd;\xc7:'
p1825
tp1826
Rp1827
ag2
(g6
S'a\x14s;'
p1828
tp1829
Rp1830
ag2
(g6
S'H\xea\x98:'
p1831
tp1832
Rp1833
ag2
(g6
S'\x87\xf1\xd6:'
p1834
tp1835
Rp1836
ag2
(g6
S'\xc0D\xe8:'
p1837
tp1838
Rp1839
ag2
(g6
S'@\xb8\xa2:'
p1840
tp1841
Rp1842
ag2
(g6
S'\xc1\x88j9'
p1843
tp1844
Rp1845
ag2
(g6
S'\xd4\xde\xdc8'
p1846
tp1847
Rp1848
ag2
(g6
S'p}\xde9'
p1849
tp1850
Rp1851
ag2
(g6
S'Eb\x93:'
p1852
tp1853
Rp1854
ag2
(g6
S'8\xbd\xd59'
p1855
tp1856
Rp1857
ag2
(g6
S'\x0fC\x8e:'
p1858
tp1859
Rp1860
ag2
(g6
S'\x9c\xa4\xd79'
p1861
tp1862
Rp1863
ag2
(g6
S'\xb8i>:'
p1864
tp1865
Rp1866
ag2
(g6
S'W4\xb8:'
p1867
tp1868
Rp1869
ag2
(g6
S'\xd1\x97y;'
p1870
tp1871
Rp1872
ag2
(g6
S'\xf5\x8e\x1e;'
p1873
tp1874
Rp1875
ag2
(g6
S"'Q\xb59"
p1876
tp1877
Rp1878
ag2
(g6
S'q\x99J:'
p1879
tp1880
Rp1881
ag2
(g6
S'M\x86\x19:'
p1882
tp1883
Rp1884
ag2
(g6
S'\xd8S\xed:'
p1885
tp1886
Rp1887
ag2
(g6
S'/\xa3\x0f;'
p1888
tp1889
Rp1890
ag2
(g6
S'\xcd\xf1\xa6;'
p1891
tp1892
Rp1893
ag2
(g6
S'\x90\x98\xd3<'
p1894
tp1895
Rp1896
ag2
(g6
S'\t\x04\xa3;'
p1897
tp1898
Rp1899
ag2
(g6
S'\xc3:\x7f9'
p1900
tp1901
Rp1902
aa(lp1903
g2
(g6
S'd\\\xd1;'
p1904
tp1905
Rp1906
ag2
(g6
S'\xab}X;'
p1907
tp1908
Rp1909
ag2
(g6
S'\x0e"\x15;'
p1910
tp1911
Rp1912
ag2
(g6
S'\x15q_:'
p1913
tp1914
Rp1915
ag2
(g6
S'\x05\x1e\x01;'
p1916
tp1917
Rp1918
ag2
(g6
S'\xb5\x8f\xaf9'
p1919
tp1920
Rp1921
ag2
(g6
S'W\x10\x0e:'
p1922
tp1923
Rp1924
ag2
(g6
S'Q\xf3f;'
p1925
tp1926
Rp1927
ag2
(g6
S'\xb1Z\xc6;'
p1928
tp1929
Rp1930
ag2
(g6
S'A\xa8\x93;'
p1931
tp1932
Rp1933
ag2
(g6
S"\x02'\x86;"
p1934
tp1935
Rp1936
ag2
(g6
S'\x04b];'
p1937
tp1938
Rp1939
ag2
(g6
S'\x93\xa4\x10;'
p1940
tp1941
Rp1942
ag2
(g6
S'\x086i<'
p1943
tp1944
Rp1945
ag2
(g6
S'C\x92\xb3='
p1946
tp1947
Rp1948
ag2
(g6
S'\xc8\xf8\x01;'
p1949
tp1950
Rp1951
ag2
(g6
S'_\xcd\x89='
p1952
tp1953
Rp1954
ag2
(g6
S'\xc9/}@'
p1955
tp1956
Rp1957
ag2
(g6
S'G\n\x1b='
p1958
tp1959
Rp1960
ag2
(g6
S'\xe89\xcf;'
p1961
tp1962
Rp1963
ag2
(g6
S'\x88\xbf\xc0<'
p1964
tp1965
Rp1966
ag2
(g6
S'\xe4\x8a\x87;'
p1967
tp1968
Rp1969
ag2
(g6
S'@ 4;'
p1970
tp1971
Rp1972
ag2
(g6
S'8=\x06<'
p1973
tp1974
Rp1975
ag2
(g6
S'9TF<'
p1976
tp1977
Rp1978
ag2
(g6
S'\x93\x9cz;'
p1979
tp1980
Rp1981
ag2
(g6
S'\xe3S\xb9:'
p1982
tp1983
Rp1984
ag2
(g6
S'\xc3(\xc2:'
p1985
tp1986
Rp1987
ag2
(g6
S'1\x1e\xa3:'
p1988
tp1989
Rp1990
ag2
(g6
S'Yn";'
p1991
tp1992
Rp1993
ag2
(g6
S'\xbf\x99\xb69'
p1994
tp1995
Rp1996
ag2
(g6
S'g)d;'
p1997
tp1998
Rp1999
ag2
(g6
S'\x07\x8f\x15;'
p2000
tp2001
Rp2002
ag2
(g6
S'w\x90<<'
p2003
tp2004
Rp2005
ag2
(g6
S'\xa7\xc0#:'
p2006
tp2007
Rp2008
ag2
(g6
S'n\xba\x02<'
p2009
tp2010
Rp2011
aa(lp2012
g2
(g6
S'\xb2\xc8\x1a='
p2013
tp2014
Rp2015
ag2
(g6
S'\xb9\x91\x9e;'
p2016
tp2017
Rp2018
ag2
(g6
S'U\xaa\x1c;'
p2019
tp2020
Rp2021
ag2
(g6
S'\xd4\x14\x1d;'
p2022
tp2023
Rp2024
ag2
(g6
S'\x8f\xe6\xc6:'
p2025
tp2026
Rp2027
ag2
(g6
S'\xcc\x15\x11;'
p2028
tp2029
Rp2030
ag2
(g6
S'\x18\x9ai:'
p2031
tp2032
Rp2033
ag2
(g6
S'\x80t\xec9'
p2034
tp2035
Rp2036
ag2
(g6
S'\xd3aJ:'
p2037
tp2038
Rp2039
ag2
(g6
S'\xd5\xda\xda:'
p2040
tp2041
Rp2042
ag2
(g6
S'qB\xa6;'
p2043
tp2044
Rp2045
ag2
(g6
S'\x9b\n:<'
p2046
tp2047
Rp2048
ag2
(g6
S'\x87K\x15<'
p2049
tp2050
Rp2051
ag2
(g6
S'/\x08\xd8<'
p2052
tp2053
Rp2054
ag2
(g6
S'\x9d\xf7@;'
p2055
tp2056
Rp2057
ag2
(g6
S'%\xe2r;'
p2058
tp2059
Rp2060
ag2
(g6
S'\x0f\xec\xb0<'
p2061
tp2062
Rp2063
ag2
(g6
S'\xad\xa7\xf7='
p2064
tp2065
Rp2066
ag2
(g6
S'h\xfd\x80;'
p2067
tp2068
Rp2069
ag2
(g6
S'\x7fr!='
p2070
tp2071
Rp2072
ag2
(g6
S'9\xa7~@'
p2073
tp2074
Rp2075
ag2
(g6
S'\x99nm='
p2076
tp2077
Rp2078
ag2
(g6
S'\xe5\x03\x98<'
p2079
tp2080
Rp2081
ag2
(g6
S'OH>='
p2082
tp2083
Rp2084
ag2
(g6
S'\x14\x92V<'
p2085
tp2086
Rp2087
ag2
(g6
S'{_\x1c<'
p2088
tp2089
Rp2090
ag2
(g6
S'p0\x1a;'
p2091
tp2092
Rp2093
ag2
(g6
S'\x05ci;'
p2094
tp2095
Rp2096
ag2
(g6
S'Py\xab;'
p2097
tp2098
Rp2099
ag2
(g6
S'"\xa8\x93;'
p2100
tp2101
Rp2102
ag2
(g6
S'TV]:'
p2103
tp2104
Rp2105
ag2
(g6
S'R%\x00;'
p2106
tp2107
Rp2108
ag2
(g6
S'p\xa7[9'
p2109
tp2110
Rp2111
ag2
(g6
S'\x13\xb3\n<'
p2112
tp2113
Rp2114
ag2
(g6
S'U\x12\x16<'
p2115
tp2116
Rp2117
ag2
(g6
S'w7\x07='
p2118
tp2119
Rp2120
aa(lp2121
g2
(g6
S'\x87\xd9\xce<'
p2122
tp2123
Rp2124
ag2
(g6
S' C";'
p2125
tp2126
Rp2127
ag2
(g6
S'\xf9\xf4\x0f9'
p2128
tp2129
Rp2130
ag2
(g6
S'+\xdc\xa3;'
p2131
tp2132
Rp2133
ag2
(g6
S'\xfbN\xeb9'
p2134
tp2135
Rp2136
ag2
(g6
S'Q#\x1f:'
p2137
tp2138
Rp2139
ag2
(g6
S'\xf2/%;'
p2140
tp2141
Rp2142
ag2
(g6
S'\xe0\xd5\xcc:'
p2143
tp2144
Rp2145
ag2
(g6
S'\xf3(\x9c:'
p2146
tp2147
Rp2148
ag2
(g6
S'\x91\xa0\x10:'
p2149
tp2150
Rp2151
ag2
(g6
S'\xb8\xc9w:'
p2152
tp2153
Rp2154
ag2
(g6
S'Y)p9'
p2155
tp2156
Rp2157
ag2
(g6
S'\x10\x80h:'
p2158
tp2159
Rp2160
ag2
(g6
S';\xe0\xd1:'
p2161
tp2162
Rp2163
ag2
(g6
S"\x8b'}:"
p2164
tp2165
Rp2166
ag2
(g6
S'\x8f\xa8\x99:'
p2167
tp2168
Rp2169
ag2
(g6
S'\x18\xd9\xc7;'
p2170
tp2171
Rp2172
ag2
(g6
S'@y\xbc;'
p2173
tp2174
Rp2175
ag2
(g6
S'\xdf|\xc0<'
p2176
tp2177
Rp2178
ag2
(g6
S'\xf5\xf7@>'
p2179
tp2180
Rp2181
ag2
(g6
S'\x1d,G='
p2182
tp2183
Rp2184
ag2
(g6
S'\x94sn@'
p2185
tp2186
Rp2187
ag2
(g6
S'\xdb\xf8\x16='
p2188
tp2189
Rp2190
ag2
(g6
S'\xab\x0e)<'
p2191
tp2192
Rp2193
ag2
(g6
S'h\xe8h<'
p2194
tp2195
Rp2196
ag2
(g6
S'\xbc\n\x89<'
p2197
tp2198
Rp2199
ag2
(g6
S'P\x8fo@'
p2200
tp2201
Rp2202
ag2
(g6
S'D\xbel@'
p2203
tp2204
Rp2205
ag2
(g6
S'%(\xdc='
p2206
tp2207
Rp2208
ag2
(g6
S'\x9c\xed\x8c<'
p2209
tp2210
Rp2211
ag2
(g6
S'MXQ@'
p2212
tp2213
Rp2214
ag2
(g6
S'\x9c\x9e\xde<'
p2215
tp2216
Rp2217
ag2
(g6
S'3+_='
p2218
tp2219
Rp2220
ag2
(g6
S'|w\x91<'
p2221
tp2222
Rp2223
ag2
(g6
S'\xbbt\xa6='
p2224
tp2225
Rp2226
ag2
(g6
S'<\x9d3@'
p2227
tp2228
Rp2229
aa(lp2230
g2
(g6
S'\xbbM+='
p2231
tp2232
Rp2233
ag2
(g6
S'U<\x00='
p2234
tp2235
Rp2236
ag2
(g6
S'\xf4O\x10<'
p2237
tp2238
Rp2239
ag2
(g6
S'\x83\x8f\x19<'
p2240
tp2241
Rp2242
ag2
(g6
S'\x99}C<'
p2243
tp2244
Rp2245
ag2
(g6
S'=\xf3\xcb;'
p2246
tp2247
Rp2248
ag2
(g6
S'\xfb\xae\xe8:'
p2249
tp2250
Rp2251
ag2
(g6
S'Y\xaeE<'
p2252
tp2253
Rp2254
ag2
(g6
S'\xed\x12\x13;'
p2255
tp2256
Rp2257
ag2
(g6
S'\xd7\xfeh<'
p2258
tp2259
Rp2260
ag2
(g6
S'V\x90\x93;'
p2261
tp2262
Rp2263
ag2
(g6
S'\x10\x03\x84;'
p2264
tp2265
Rp2266
ag2
(g6
S'9z\x8e;'
p2267
tp2268
Rp2269
ag2
(g6
S'\xb5\xc4h;'
p2270
tp2271
Rp2272
ag2
(g6
S'\x00\xbc\xea;'
p2273
tp2274
Rp2275
ag2
(g6
S'i\xf0E;'
p2276
tp2277
Rp2278
ag2
(g6
S'\x91\xd2\x02;'
p2279
tp2280
Rp2281
ag2
(g6
S'7"\xcc;'
p2282
tp2283
Rp2284
ag2
(g6
S'[$\xd2;'
p2285
tp2286
Rp2287
ag2
(g6
S'`_\xbc;'
p2288
tp2289
Rp2290
ag2
(g6
S'3*\xcc;'
p2291
tp2292
Rp2293
ag2
(g6
S'\x1b\xe2\x80;'
p2294
tp2295
Rp2296
ag2
(g6
S'\xa4\x90\xda;'
p2297
tp2298
Rp2299
ag2
(g6
S'\xa5G\x84;'
p2300
tp2301
Rp2302
ag2
(g6
S'\xa1"^;'
p2303
tp2304
Rp2305
ag2
(g6
S';\x17\xa1;'
p2306
tp2307
Rp2308
ag2
(g6
S'\x0f\xfa\x1f<'
p2309
tp2310
Rp2311
ag2
(g6
S'E\x89N<'
p2312
tp2313
Rp2314
ag2
(g6
S'\x9f\xf1\xa8;'
p2315
tp2316
Rp2317
ag2
(g6
S'q\xec(;'
p2318
tp2319
Rp2320
ag2
(g6
S'\x13\x1f\xaf9'
p2321
tp2322
Rp2323
ag2
(g6
S'(\x8a\x88:'
p2324
tp2325
Rp2326
ag2
(g6
S'\x1f\x14/;'
p2327
tp2328
Rp2329
ag2
(g6
S'\x93\x18\xcb:'
p2330
tp2331
Rp2332
ag2
(g6
S'}@}<'
p2333
tp2334
Rp2335
ag2
(g6
S'\xad\tq<'
p2336
tp2337
Rp2338
aa(lp2339
g2
(g6
S'\xe9\xec]<'
p2340
tp2341
Rp2342
ag2
(g6
S'\x8b\x8ej<'
p2343
tp2344
Rp2345
ag2
(g6
S'\x9e)\x12<'
p2346
tp2347
Rp2348
ag2
(g6
S'\xa0\xd4v;'
p2349
tp2350
Rp2351
ag2
(g6
S'\x9b\xcf\x93;'
p2352
tp2353
Rp2354
ag2
(g6
S'\x88\x96\x9f;'
p2355
tp2356
Rp2357
ag2
(g6
S'P\xa8b;'
p2358
tp2359
Rp2360
ag2
(g6
S'R\xd8\x0b<'
p2361
tp2362
Rp2363
ag2
(g6
S'\xf8:I:'
p2364
tp2365
Rp2366
ag2
(g6
S'\x18/\xd09'
p2367
tp2368
Rp2369
ag2
(g6
S'\xa0\xb4Y8'
p2370
tp2371
Rp2372
ag2
(g6
S'\x89\xd3];'
p2373
tp2374
Rp2375
ag2
(g6
S']\xb4";'
p2376
tp2377
Rp2378
ag2
(g6
S'w\xe8\xe2:'
p2379
tp2380
Rp2381
ag2
(g6
S'+\x8d\x10;'
p2382
tp2383
Rp2384
ag2
(g6
S'\xf7\x92\x95;'
p2385
tp2386
Rp2387
ag2
(g6
S'7\x14\x8b<'
p2388
tp2389
Rp2390
ag2
(g6
S'_\xdd\x97<'
p2391
tp2392
Rp2393
ag2
(g6
S'\xae\xeb\x0c='
p2394
tp2395
Rp2396
ag2
(g6
S'\xd8hs@'
p2397
tp2398
Rp2399
ag2
(g6
S'\xf3\x85`@'
p2400
tp2401
Rp2402
ag2
(g6
S'Z\xb5\x93>'
p2403
tp2404
Rp2405
ag2
(g6
S'K\x1b)='
p2406
tp2407
Rp2408
ag2
(g6
S'\x94F\x18<'
p2409
tp2410
Rp2411
ag2
(g6
S'I\xfb\xcd;'
p2412
tp2413
Rp2414
ag2
(g6
S'\x80g\x8a;'
p2415
tp2416
Rp2417
ag2
(g6
S'\x90\x9f\xe7;'
p2418
tp2419
Rp2420
ag2
(g6
S'\x89\xd3\xdd;'
p2421
tp2422
Rp2423
ag2
(g6
S'PF\xc59'
p2424
tp2425
Rp2426
ag2
(g6
S'\x0fF$<'
p2427
tp2428
Rp2429
ag2
(g6
S'\xf5C\x8e<'
p2430
tp2431
Rp2432
ag2
(g6
S'w\x91Z<'
p2433
tp2434
Rp2435
ag2
(g6
S'\x14hs;'
p2436
tp2437
Rp2438
ag2
(g6
S'\xeb\x18\xf59'
p2439
tp2440
Rp2441
ag2
(g6
S'\x194\x19:'
p2442
tp2443
Rp2444
ag2
(g6
S'\xfb\x94\xa6:'
p2445
tp2446
Rp2447
aa(lp2448
g2
(g6
S'\x00\x1b\x1f;'
p2449
tp2450
Rp2451
ag2
(g6
S'\x0co2;'
p2452
tp2453
Rp2454
ag2
(g6
S'g\xdb5:'
p2455
tp2456
Rp2457
ag2
(g6
S'\xe8\xafY:'
p2458
tp2459
Rp2460
ag2
(g6
S'X<E9'
p2461
tp2462
Rp2463
ag2
(g6
S'\xc8w\xf7:'
p2464
tp2465
Rp2466
ag2
(g6
S'\x9baN;'
p2467
tp2468
Rp2469
ag2
(g6
S'\x01\xcd\x93;'
p2470
tp2471
Rp2472
ag2
(g6
S'\xef\x16n8'
p2473
tp2474
Rp2475
ag2
(g6
S'E|\x9a;'
p2476
tp2477
Rp2478
ag2
(g6
S'!u\xfd='
p2479
tp2480
Rp2481
ag2
(g6
S'\xc9B\xf8<'
p2482
tp2483
Rp2484
ag2
(g6
S'\xb0\xe4\xfe<'
p2485
tp2486
Rp2487
ag2
(g6
S'\xec\xf1\x90:'
p2488
tp2489
Rp2490
ag2
(g6
S'+\xda\xa0:'
p2491
tp2492
Rp2493
ag2
(g6
S'\xf5\x1dR:'
p2494
tp2495
Rp2496
ag2
(g6
S'\x08\xdb\xb8:'
p2497
tp2498
Rp2499
ag2
(g6
S'\xf31f;'
p2500
tp2501
Rp2502
ag2
(g6
S'\xe9KG:'
p2503
tp2504
Rp2505
ag2
(g6
S'\x03\xad\xb2<'
p2506
tp2507
Rp2508
ag2
(g6
S'\xb5"S<'
p2509
tp2510
Rp2511
ag2
(g6
S'\x9a\x9c\x8b<'
p2512
tp2513
Rp2514
ag2
(g6
S'\xa0\xf7\xbd;'
p2515
tp2516
Rp2517
ag2
(g6
S'`G\xd49'
p2518
tp2519
Rp2520
ag2
(g6
S'\x11\xb5\x89<'
p2521
tp2522
Rp2523
ag2
(g6
S'c\xa2\x03<'
p2524
tp2525
Rp2526
ag2
(g6
S'\xd1|\xa2='
p2527
tp2528
Rp2529
ag2
(g6
S'?\xa8\x13;'
p2530
tp2531
Rp2532
ag2
(g6
S'\x1eK\xa8;'
p2533
tp2534
Rp2535
ag2
(g6
S'I\xc8\xdb:'
p2536
tp2537
Rp2538
ag2
(g6
S'e\x9dG:'
p2539
tp2540
Rp2541
ag2
(g6
S'\x95qR;'
p2542
tp2543
Rp2544
ag2
(g6
S'\xd5=\x85;'
p2545
tp2546
Rp2547
ag2
(g6
S'\xdd9M;'
p2548
tp2549
Rp2550
ag2
(g6
S'\xd1\xef\xa9;'
p2551
tp2552
Rp2553
ag2
(g6
S'k\xe2A<'
p2554
tp2555
Rp2556
aa(lp2557
g2
(g6
S'm\xdc\xc0<'
p2558
tp2559
Rp2560
ag2
(g6
S'\x0f\xdb\x0e<'
p2561
tp2562
Rp2563
ag2
(g6
S'\x13R\xf8;'
p2564
tp2565
Rp2566
ag2
(g6
S';\x84@;'
p2567
tp2568
Rp2569
ag2
(g6
S'\xeaU!<'
p2570
tp2571
Rp2572
ag2
(g6
S'$\x9a\xe5;'
p2573
tp2574
Rp2575
ag2
(g6
S'J+\x0e<'
p2576
tp2577
Rp2578
ag2
(g6
S'\xe1dH<'
p2579
tp2580
Rp2581
ag2
(g6
S'\x9fr\x96;'
p2582
tp2583
Rp2584
ag2
(g6
S'\x02\xa1\x9d;'
p2585
tp2586
Rp2587
ag2
(g6
S'\xd0PF:'
p2588
tp2589
Rp2590
ag2
(g6
S'\xe482<'
p2591
tp2592
Rp2593
ag2
(g6
S'\xb4\xeb\xb7;'
p2594
tp2595
Rp2596
ag2
(g6
S'\x8bX\xd7;'
p2597
tp2598
Rp2599
ag2
(g6
S'\x80\x13\xfe;'
p2600
tp2601
Rp2602
ag2
(g6
S'\x0fgN;'
p2603
tp2604
Rp2605
ag2
(g6
S'\x9b\x91\x04;'
p2606
tp2607
Rp2608
ag2
(g6
S'\t\x96\xa5;'
p2609
tp2610
Rp2611
ag2
(g6
S'\x93_\xd7;'
p2612
tp2613
Rp2614
ag2
(g6
S']\x1f\xbe;'
p2615
tp2616
Rp2617
ag2
(g6
S'8"G<'
p2618
tp2619
Rp2620
ag2
(g6
S'\xe1\x83\x04<'
p2621
tp2622
Rp2623
ag2
(g6
S'\xd3\xd2\n<'
p2624
tp2625
Rp2626
ag2
(g6
S'\xa1r\x0c<'
p2627
tp2628
Rp2629
ag2
(g6
S'\x1cyH<'
p2630
tp2631
Rp2632
ag2
(g6
S'\xabu\x0b<'
p2633
tp2634
Rp2635
ag2
(g6
S"\x87'0:"
p2636
tp2637
Rp2638
ag2
(g6
S'\x1bN\xcd:'
p2639
tp2640
Rp2641
ag2
(g6
S'\xf8\x9aA;'
p2642
tp2643
Rp2644
ag2
(g6
S'\x11\xe9S;'
p2645
tp2646
Rp2647
ag2
(g6
S'Cqo<'
p2648
tp2649
Rp2650
ag2
(g6
S'\x7f\xb4\x0e<'
p2651
tp2652
Rp2653
ag2
(g6
S'\xf3?\xa5<'
p2654
tp2655
Rp2656
ag2
(g6
S'e\xc8\x10<'
p2657
tp2658
Rp2659
ag2
(g6
S'\xc4\xe7\xad;'
p2660
tp2661
Rp2662
ag2
(g6
S't\xcb\xfc;'
p2663
tp2664
Rp2665
aa(lp2666
g2
(g6
S'q#N<'
p2667
tp2668
Rp2669
ag2
(g6
S'\xf0\x85\xf7;'
p2670
tp2671
Rp2672
ag2
(g6
S'\xa4F+<'
p2673
tp2674
Rp2675
ag2
(g6
S'\x9f\x86\x1b;'
p2676
tp2677
Rp2678
ag2
(g6
S'w&\x91;'
p2679
tp2680
Rp2681
ag2
(g6
S'\xfc\x1e\x98;'
p2682
tp2683
Rp2684
ag2
(g6
S'\x07\xcaA;'
p2685
tp2686
Rp2687
ag2
(g6
S'\xa3\xa6f;'
p2688
tp2689
Rp2690
ag2
(g6
S'\xd7\x86\x90;'
p2691
tp2692
Rp2693
ag2
(g6
S'\xaf\xfc\xc9:'
p2694
tp2695
Rp2696
ag2
(g6
S'\x01\x89\x8d:'
p2697
tp2698
Rp2699
ag2
(g6
S'\x87~\xb4:'
p2700
tp2701
Rp2702
ag2
(g6
S'\xbb\t\xac;'
p2703
tp2704
Rp2705
ag2
(g6
S'\xa0"\xab<'
p2706
tp2707
Rp2708
ag2
(g6
S'z\xd1\x8b<'
p2709
tp2710
Rp2711
ag2
(g6
S'\xac\xa71<'
p2712
tp2713
Rp2714
ag2
(g6
S'\x82\xfa\x0e<'
p2715
tp2716
Rp2717
ag2
(g6
S'\xedZ+<'
p2718
tp2719
Rp2720
ag2
(g6
S'\x0f5\x0f<'
p2721
tp2722
Rp2723
ag2
(g6
S't\x86\x8d;'
p2724
tp2725
Rp2726
ag2
(g6
S'\x10\xe6\xdc;'
p2727
tp2728
Rp2729
ag2
(g6
S'\x91\x07\xfd;'
p2730
tp2731
Rp2732
ag2
(g6
S'u\xed"<'
p2733
tp2734
Rp2735
ag2
(g6
S'/-\xcf;'
p2736
tp2737
Rp2738
ag2
(g6
S'\x0b\xb0\x86;'
p2739
tp2740
Rp2741
ag2
(g6
S'\tp\x95;'
p2742
tp2743
Rp2744
ag2
(g6
S'\xa2\x8d\x93;'
p2745
tp2746
Rp2747
ag2
(g6
S'\xd9\tg<'
p2748
tp2749
Rp2750
ag2
(g6
S'r\xcc\xa6;'
p2751
tp2752
Rp2753
ag2
(g6
S'\xb7\x85\x89;'
p2754
tp2755
Rp2756
ag2
(g6
S'J\xc3\x94;'
p2757
tp2758
Rp2759
ag2
(g6
S'k\xcdc;'
p2760
tp2761
Rp2762
ag2
(g6
S'9}\x18;'
p2763
tp2764
Rp2765
ag2
(g6
S's\x82\xa4<'
p2766
tp2767
Rp2768
ag2
(g6
S'%\xaa\xb4<'
p2769
tp2770
Rp2771
ag2
(g6
S'\xac\xd9D;'
p2772
tp2773
Rp2774
aa(lp2775
g2
(g6
S'\x03o\x8b;'
p2776
tp2777
Rp2778
ag2
(g6
S'h\x7f\xd0;'
p2779
tp2780
Rp2781
ag2
(g6
S'\xd3\xdd\xa9;'
p2782
tp2783
Rp2784
ag2
(g6
S'\x98\xce\xab;'
p2785
tp2786
Rp2787
ag2
(g6
S'\x18]\xa7;'
p2788
tp2789
Rp2790
ag2
(g6
S'\xc4m\xe7;'
p2791
tp2792
Rp2793
ag2
(g6
S'\xfc2\x13<'
p2794
tp2795
Rp2796
ag2
(g6
S'\x83=a<'
p2797
tp2798
Rp2799
ag2
(g6
S'\xaab\x81;'
p2800
tp2801
Rp2802
ag2
(g6
S'u\x1a\x1e<'
p2803
tp2804
Rp2805
ag2
(g6
S'Wk|<'
p2806
tp2807
Rp2808
ag2
(g6
S't\xf9U<'
p2809
tp2810
Rp2811
ag2
(g6
S'{\xcb\xb5='
p2812
tp2813
Rp2814
ag2
(g6
S'\x01\xf9m='
p2815
tp2816
Rp2817
ag2
(g6
S'\xf5\n\xbe:'
p2818
tp2819
Rp2820
ag2
(g6
S'[\xca\xd3:'
p2821
tp2822
Rp2823
ag2
(g6
S'aK\xba9'
p2824
tp2825
Rp2826
ag2
(g6
S'\xb1)\xa49'
p2827
tp2828
Rp2829
ag2
(g6
S'7\xef\xc9:'
p2830
tp2831
Rp2832
ag2
(g6
S'0b\xd3:'
p2833
tp2834
Rp2835
ag2
(g6
S'\x9aE\xaa;'
p2836
tp2837
Rp2838
ag2
(g6
S' }\xbe;'
p2839
tp2840
Rp2841
ag2
(g6
S'!\x87@<'
p2842
tp2843
Rp2844
ag2
(g6
S'!N/<'
p2845
tp2846
Rp2847
ag2
(g6
S'\r\xed+<'
p2848
tp2849
Rp2850
ag2
(g6
S'\x90,\x02<'
p2851
tp2852
Rp2853
ag2
(g6
S'\xbaO\x89;'
p2854
tp2855
Rp2856
ag2
(g6
S'\xccl\xc1:'
p2857
tp2858
Rp2859
ag2
(g6
S'\x87\x02\x95;'
p2860
tp2861
Rp2862
ag2
(g6
S'\xb7\x84|9'
p2863
tp2864
Rp2865
ag2
(g6
S'\x95\t[<'
p2866
tp2867
Rp2868
ag2
(g6
S'D:\xe3:'
p2869
tp2870
Rp2871
ag2
(g6
S']\xe9\xfc:'
p2872
tp2873
Rp2874
ag2
(g6
S'\xdf\x11\x15;'
p2875
tp2876
Rp2877
ag2
(g6
S'<k\\;'
p2878
tp2879
Rp2880
ag2
(g6
S'w\xb1\x9b<'
p2881
tp2882
Rp2883
aa(lp2884
g2
(g6
S'\xf8\xd2\x85<'
p2885
tp2886
Rp2887
ag2
(g6
S'\xc7\xe0Q<'
p2888
tp2889
Rp2890
ag2
(g6
S'\xc5}\xb3;'
p2891
tp2892
Rp2893
ag2
(g6
S'\xf4\x83\x8f;'
p2894
tp2895
Rp2896
ag2
(g6
S'\x8d\xfd\x9a;'
p2897
tp2898
Rp2899
ag2
(g6
S'#\xc6\xa0;'
p2900
tp2901
Rp2902
ag2
(g6
S'\xfb;\xcd;'
p2903
tp2904
Rp2905
ag2
(g6
S'\xd1\x93a;'
p2906
tp2907
Rp2908
ag2
(g6
S'u\xc8?<'
p2909
tp2910
Rp2911
ag2
(g6
S'}^\x16='
p2912
tp2913
Rp2914
ag2
(g6
S'\xc3*\x17='
p2915
tp2916
Rp2917
ag2
(g6
S'\xa1\xe7\x97<'
p2918
tp2919
Rp2920
ag2
(g6
S'\xfcx\x1a<'
p2921
tp2922
Rp2923
ag2
(g6
S'x\x80\x9b<'
p2924
tp2925
Rp2926
ag2
(g6
S'\xa1<\x1d;'
p2927
tp2928
Rp2929
ag2
(g6
S'\xe3\xbbi;'
p2930
tp2931
Rp2932
ag2
(g6
S'\xcf\xf4\xab;'
p2933
tp2934
Rp2935
ag2
(g6
S'\x81\xe08;'
p2936
tp2937
Rp2938
ag2
(g6
S'\x93\xe9+;'
p2939
tp2940
Rp2941
ag2
(g6
S'\xdd\x95\x0c<'
p2942
tp2943
Rp2944
ag2
(g6
S'l`\xe5:'
p2945
tp2946
Rp2947
ag2
(g6
S'\x8c)l;'
p2948
tp2949
Rp2950
ag2
(g6
S'v\x0f\x0e<'
p2951
tp2952
Rp2953
ag2
(g6
S'\xb5\xd2\xfc;'
p2954
tp2955
Rp2956
ag2
(g6
S'\xb4*\x05<'
p2957
tp2958
Rp2959
ag2
(g6
S'U1q;'
p2960
tp2961
Rp2962
ag2
(g6
S'\xd8\xd4\xca;'
p2963
tp2964
Rp2965
ag2
(g6
S'M\xf2\xb5;'
p2966
tp2967
Rp2968
ag2
(g6
S'/N\xeb;'
p2969
tp2970
Rp2971
ag2
(g6
S'\xc0\x9b\xad;'
p2972
tp2973
Rp2974
ag2
(g6
S'\x05q\x1f<'
p2975
tp2976
Rp2977
ag2
(g6
S'\x05\x06\x15<'
p2978
tp2979
Rp2980
ag2
(g6
S'\x1f\xe5g<'
p2981
tp2982
Rp2983
ag2
(g6
S'\xb6k\x85<'
p2984
tp2985
Rp2986
ag2
(g6
S' \xccM;'
p2987
tp2988
Rp2989
ag2
(g6
S'\xf3\x88\xc1;'
p2990
tp2991
Rp2992
aa(lp2993
g2
(g6
S'\xed\xf5\x99;'
p2994
tp2995
Rp2996
ag2
(g6
S'_\xa94;'
p2997
tp2998
Rp2999
ag2
(g6
S'\x8b\x90\xe3;'
p3000
tp3001
Rp3002
ag2
(g6
S'\x91\x03R;'
p3003
tp3004
Rp3005
ag2
(g6
S'\x9d\xefP:'
p3006
tp3007
Rp3008
ag2
(g6
S'\x00\xc2\x9a;'
p3009
tp3010
Rp3011
ag2
(g6
S'\xed\x97n<'
p3012
tp3013
Rp3014
ag2
(g6
S'\xe1\xb9\xa6:'
p3015
tp3016
Rp3017
ag2
(g6
S'\x9c\x7f\xb9;'
p3018
tp3019
Rp3020
ag2
(g6
S'\x89\xaf\x85<'
p3021
tp3022
Rp3023
ag2
(g6
S'\x8b\x1a\xda<'
p3024
tp3025
Rp3026
ag2
(g6
S'\xa7\xa9\x86<'
p3027
tp3028
Rp3029
ag2
(g6
S'\xd4\xb8/<'
p3030
tp3031
Rp3032
ag2
(g6
S'\xf5\xc1\xe0;'
p3033
tp3034
Rp3035
ag2
(g6
S'q\xfc\x8c;'
p3036
tp3037
Rp3038
ag2
(g6
S']\xe5\xf9;'
p3039
tp3040
Rp3041
ag2
(g6
S'\x7f\x98\xf7:'
p3042
tp3043
Rp3044
ag2
(g6
S'c\xbb\xb49'
p3045
tp3046
Rp3047
ag2
(g6
S'\xd0hN;'
p3048
tp3049
Rp3050
ag2
(g6
S'\xaeB\x97;'
p3051
tp3052
Rp3053
ag2
(g6
S'\xbbt\x82<'
p3054
tp3055
Rp3056
ag2
(g6
S'g\xd5\xab<'
p3057
tp3058
Rp3059
ag2
(g6
S'\r]\x83<'
p3060
tp3061
Rp3062
ag2
(g6
S'\x187\x9c<'
p3063
tp3064
Rp3065
ag2
(g6
S'\xb5\xa2\xd1<'
p3066
tp3067
Rp3068
ag2
(g6
S'\x87P(:'
p3069
tp3070
Rp3071
ag2
(g6
S'}\xee\x80<'
p3072
tp3073
Rp3074
ag2
(g6
S'!\x01~<'
p3075
tp3076
Rp3077
ag2
(g6
S'/\x93M;'
p3078
tp3079
Rp3080
ag2
(g6
S'\xbdNM;'
p3081
tp3082
Rp3083
ag2
(g6
S'\xf0\xff&;'
p3084
tp3085
Rp3086
ag2
(g6
S'\xcdAA;'
p3087
tp3088
Rp3089
ag2
(g6
S'Wk\xb7;'
p3090
tp3091
Rp3092
ag2
(g6
S'\x83\xf5\xfb:'
p3093
tp3094
Rp3095
ag2
(g6
S'9\xb9\xb7;'
p3096
tp3097
Rp3098
ag2
(g6
S'\xcf\x82Z;'
p3099
tp3100
Rp3101
aa(lp3102
g2
(g6
S"\xf8'\xbc:"
p3103
tp3104
Rp3105
ag2
(g6
S'\xb3\x8b3;'
p3106
tp3107
Rp3108
ag2
(g6
S'\x99\xd0\x8c:'
p3109
tp3110
Rp3111
ag2
(g6
S'\x03\xd9T:'
p3112
tp3113
Rp3114
ag2
(g6
S'\xcc\x96N:'
p3115
tp3116
Rp3117
ag2
(g6
S'\xc1\xb7\xe1:'
p3118
tp3119
Rp3120
ag2
(g6
S'/w\xb6;'
p3121
tp3122
Rp3123
ag2
(g6
S'\xbc7\x9c<'
p3124
tp3125
Rp3126
ag2
(g6
S'\x0f\x1bY<'
p3127
tp3128
Rp3129
ag2
(g6
S"\x03'\x13<"
p3130
tp3131
Rp3132
ag2
(g6
S'\rK0<'
p3133
tp3134
Rp3135
ag2
(g6
S'\x1d=\x95;'
p3136
tp3137
Rp3138
ag2
(g6
S'\xb3\xc6\xd4;'
p3139
tp3140
Rp3141
ag2
(g6
S'\x9b\xec\xe5;'
p3142
tp3143
Rp3144
ag2
(g6
S"\x87&'<"
p3145
tp3146
Rp3147
ag2
(g6
S'\x11e\x1f<'
p3148
tp3149
Rp3150
ag2
(g6
S'#H\x14<'
p3151
tp3152
Rp3153
ag2
(g6
S'\xf8\xe7\xb3;'
p3154
tp3155
Rp3156
ag2
(g6
S'8\xa5\xef;'
p3157
tp3158
Rp3159
ag2
(g6
S"'\x1a\x85;"
p3160
tp3161
Rp3162
ag2
(g6
S'8\xaa0;'
p3163
tp3164
Rp3165
ag2
(g6
S'5\x1d\x8a9'
p3166
tp3167
Rp3168
ag2
(g6
S'\xfd.\xae;'
p3169
tp3170
Rp3171
ag2
(g6
S'\xd5a\x80:'
p3172
tp3173
Rp3174
ag2
(g6
S'\xcd\x19\x0c;'
p3175
tp3176
Rp3177
ag2
(g6
S'\xb8\xdf\xbc:'
p3178
tp3179
Rp3180
ag2
(g6
S'U\x1c\xff;'
p3181
tp3182
Rp3183
ag2
(g6
S'\xb3\xd0\x81<'
p3184
tp3185
Rp3186
ag2
(g6
S'\t\xd8x<'
p3187
tp3188
Rp3189
ag2
(g6
S'\xb5\xbc_<'
p3190
tp3191
Rp3192
ag2
(g6
S'\xa3\x9c\x87<'
p3193
tp3194
Rp3195
ag2
(g6
S'\xab\x8d\x14<'
p3196
tp3197
Rp3198
ag2
(g6
S'`\xc4f;'
p3199
tp3200
Rp3201
ag2
(g6
S'\x05\x1d\xb4;'
p3202
tp3203
Rp3204
ag2
(g6
S'\xff\xa0\x8f;'
p3205
tp3206
Rp3207
ag2
(g6
S'/\xb1\x12;'
p3208
tp3209
Rp3210
aa(lp3211
g2
(g6
S'a\xff\x94;'
p3212
tp3213
Rp3214
ag2
(g6
S'\xab\x85A;'
p3215
tp3216
Rp3217
ag2
(g6
S'\xac0\x9d;'
p3218
tp3219
Rp3220
ag2
(g6
S'#\x16x<'
p3221
tp3222
Rp3223
ag2
(g6
S"\x0b'\xa4<"
p3224
tp3225
Rp3226
ag2
(g6
S'\xf1\xac\xda;'
p3227
tp3228
Rp3229
ag2
(g6
S's\xe1\x82;'
p3230
tp3231
Rp3232
ag2
(g6
S'\xd5s\x8e;'
p3233
tp3234
Rp3235
ag2
(g6
S'7\xa6\x92;'
p3236
tp3237
Rp3238
ag2
(g6
S'\rO\x8d;'
p3239
tp3240
Rp3241
ag2
(g6
S'\xe8T\x96;'
p3242
tp3243
Rp3244
ag2
(g6
S'\x9d\x0c\xb3;'
p3245
tp3246
Rp3247
ag2
(g6
S'\x01\x8fL;'
p3248
tp3249
Rp3250
ag2
(g6
S'h"n;'
p3251
tp3252
Rp3253
ag2
(g6
S'\x15\xa9 <'
p3254
tp3255
Rp3256
ag2
(g6
S'\x01\xb8\x0b;'
p3257
tp3258
Rp3259
ag2
(g6
S'\x97\x1aK;'
p3260
tp3261
Rp3262
ag2
(g6
S'L\x8a\x9d;'
p3263
tp3264
Rp3265
ag2
(g6
S'\x17`\x0c<'
p3266
tp3267
Rp3268
ag2
(g6
S"\xb4E'<"
p3269
tp3270
Rp3271
ag2
(g6
S'q)\xac<'
p3272
tp3273
Rp3274
ag2
(g6
S'\xe1z\x88;'
p3275
tp3276
Rp3277
ag2
(g6
S'\xe7\x8e\xa4<'
p3278
tp3279
Rp3280
ag2
(g6
S'[\x9eE<'
p3281
tp3282
Rp3283
ag2
(g6
S'O\x9b<;'
p3284
tp3285
Rp3286
ag2
(g6
S'}\xa8\x1b<'
p3287
tp3288
Rp3289
ag2
(g6
S'\xaf\xee.<'
p3290
tp3291
Rp3292
ag2
(g6
S'\xdd\xb4\x9c;'
p3293
tp3294
Rp3295
ag2
(g6
S'\x0c\x08\xe0;'
p3296
tp3297
Rp3298
ag2
(g6
S'\x0fQ\x03<'
p3299
tp3300
Rp3301
ag2
(g6
S'X\xe7\x9c;'
p3302
tp3303
Rp3304
ag2
(g6
S'\x8c\xfb\x11;'
p3305
tp3306
Rp3307
ag2
(g6
S'K\xb8\xad;'
p3308
tp3309
Rp3310
ag2
(g6
S'\x95\xae\xef;'
p3311
tp3312
Rp3313
ag2
(g6
S'\r\xbb^<'
p3314
tp3315
Rp3316
ag2
(g6
S'\xb2\xa1*<'
p3317
tp3318
Rp3319
aa(lp3320
g2
(g6
S'Yz\x91:'
p3321
tp3322
Rp3323
ag2
(g6
S'Ez\xd9:'
p3324
tp3325
Rp3326
ag2
(g6
S'\xae\x9a\x15;'
p3327
tp3328
Rp3329
ag2
(g6
S'{B\xe4:'
p3330
tp3331
Rp3332
ag2
(g6
S'\x0b\x0fg;'
p3333
tp3334
Rp3335
ag2
(g6
S'\x02\x1f\x04<'
p3336
tp3337
Rp3338
ag2
(g6
S'H\x8b0<'
p3339
tp3340
Rp3341
ag2
(g6
S'\t\\\x81<'
p3342
tp3343
Rp3344
ag2
(g6
S'\xef\xb0n<'
p3345
tp3346
Rp3347
ag2
(g6
S'\xe1\xc9\xae;'
p3348
tp3349
Rp3350
ag2
(g6
S'x49;'
p3351
tp3352
Rp3353
ag2
(g6
S'\x83\x91,;'
p3354
tp3355
Rp3356
ag2
(g6
S'\x07\xa7`:'
p3357
tp3358
Rp3359
ag2
(g6
S'\x05\xc8\xb4;'
p3360
tp3361
Rp3362
ag2
(g6
S'\x95\x915;'
p3363
tp3364
Rp3365
ag2
(g6
S'\x8b\xd6\xb9;'
p3366
tp3367
Rp3368
ag2
(g6
S'\x01\xfbI<'
p3369
tp3370
Rp3371
ag2
(g6
S'\xbc\xf7\xbe;'
p3372
tp3373
Rp3374
ag2
(g6
S'?\xfc\xf3;'
p3375
tp3376
Rp3377
ag2
(g6
S'+\xe2&<'
p3378
tp3379
Rp3380
ag2
(g6
S'\xdb\xd5 :'
p3381
tp3382
Rp3383
ag2
(g6
S'\x82\x9c\x83;'
p3384
tp3385
Rp3386
ag2
(g6
S'\xd4\xc7\xb5<'
p3387
tp3388
Rp3389
ag2
(g6
S'"?\x95;'
p3390
tp3391
Rp3392
ag2
(g6
S'\x15\xcd\x17='
p3393
tp3394
Rp3395
ag2
(g6
S'\xd5\xbae@'
p3396
tp3397
Rp3398
ag2
(g6
S'gK\xd9B'
p3399
tp3400
Rp3401
aa(lp3402
g2
(g6
S'c\xbc7:'
p3403
tp3404
Rp3405
ag2
(g6
S'\xdb\x8b\x9c9'
p3406
tp3407
Rp3408
ag2
(g6
S'%3\x0b:'
p3409
tp3410
Rp3411
ag2
(g6
S'\x83\x87\xc29'
p3412
tp3413
Rp3414
ag2
(g6
S'OW\x9e:'
p3415
tp3416
Rp3417
ag2
(g6
S'i\x08\x9a:'
p3418
tp3419
Rp3420
ag2
(g6
S'\xbf\xc6\x919'
p3421
tp3422
Rp3423
ag2
(g6
S'\xcd\xf9\xfa9'
p3424
tp3425
Rp3426
ag2
(g6
S'_\xc9\x15:'
p3427
tp3428
Rp3429
ag2
(g6
S'\xf0+\xc89'
p3430
tp3431
Rp3432
ag2
(g6
S'\xab\x94!;'
p3433
tp3434
Rp3435
ag2
(g6
S'\xdf\x99\xe59'
p3436
tp3437
Rp3438
ag2
(g6
S'\xb3\x04\x11;'
p3439
tp3440
Rp3441
ag2
(g6
S'\xab7\xfe9'
p3442
tp3443
Rp3444
ag2
(g6
S'L\xe7\x8f:'
p3445
tp3446
Rp3447
ag2
(g6
S'\xab\xc4\x8c9'
p3448
tp3449
Rp3450
ag2
(g6
S'I\x99\x0b9'
p3451
tp3452
Rp3453
ag2
(g6
S'\xf9\xfe\xbb:'
p3454
tp3455
Rp3456
ag2
(g6
S'\xef$\xad9'
p3457
tp3458
Rp3459
ag2
(g6
S'\xcbj\xd4:'
p3460
tp3461
Rp3462
ag2
(g6
S'\xd8\x96l:'
p3463
tp3464
Rp3465
ag2
(g6
S'~\xfb\x85:'
p3466
tp3467
Rp3468
ag2
(g6
S'\xc1\x1f\x8d9'
p3469
tp3470
Rp3471
ag2
(g6
S'\x07g\x9d9'
p3472
tp3473
Rp3474
ag2
(g6
S'\xf1\x8f\x18:'
p3475
tp3476
Rp3477
ag2
(g6
S'\x08A6:'
p3478
tp3479
Rp3480
ag2
(g6
S'\xd2\x98\x0e:'
p3481
tp3482
Rp3483
ag2
(g6
S'mX\xb4:'
p3484
tp3485
Rp3486
ag2
(g6
S'\x05\x9e\xa4;'
p3487
tp3488
Rp3489
ag2
(g6
S'Ye.<'
p3490
tp3491
Rp3492
ag2
(g6
S'\xe0Y\x05<'
p3493
tp3494
Rp3495
ag2
(g6
S'\xe7|V:'
p3496
tp3497
Rp3498
ag2
(g6
S'\x19^\x87;'
p3499
tp3500
Rp3501
ag2
(g6
S'\x1c;u;'
p3502
tp3503
Rp3504
ag2
(g6
S'c\xe3\xcd:'
p3505
tp3506
Rp3507
ag2
(g6
S'\xca\xb0\x1f;'
p3508
tp3509
Rp3510
aa(lp3511
g2
(g6
S'\x0c!f;'
p3512
tp3513
Rp3514
ag2
(g6
S'S\xdfD:'
p3515
tp3516
Rp3517
ag2
(g6
S'\x1d^\x909'
p3518
tp3519
Rp3520
ag2
(g6
S'\xb5C\x969'
p3521
tp3522
Rp3523
ag2
(g6
S'u\x82\x8f:'
p3524
tp3525
Rp3526
ag2
(g6
S'<\xd5\x0e:'
p3527
tp3528
Rp3529
ag2
(g6
S'\xb1c+:'
p3530
tp3531
Rp3532
ag2
(g6
S'\xd7b\x18;'
p3533
tp3534
Rp3535
ag2
(g6
S'`/^<'
p3536
tp3537
Rp3538
ag2
(g6
S'\\\xc8\x0e;'
p3539
tp3540
Rp3541
ag2
(g6
S'\x1fa\x81@'
p3542
tp3543
Rp3544
ag2
(g6
S'X\xce\\<'
p3545
tp3546
Rp3547
ag2
(g6
S'\xc5p*<'
p3548
tp3549
Rp3550
ag2
(g6
S'\xfc\xe7\xd58'
p3551
tp3552
Rp3553
ag2
(g6
S'\xb0o\x15<'
p3554
tp3555
Rp3556
ag2
(g6
S'\x95\xdd8<'
p3557
tp3558
Rp3559
ag2
(g6
S'\xad\xdf\xf8;'
p3560
tp3561
Rp3562
ag2
(g6
S'\xb0H2:'
p3563
tp3564
Rp3565
ag2
(g6
S'e\x08\x939'
p3566
tp3567
Rp3568
ag2
(g6
S'e^w@'
p3569
tp3570
Rp3571
ag2
(g6
S'U\xc5^@'
p3572
tp3573
Rp3574
ag2
(g6
S'=c\x02>'
p3575
tp3576
Rp3577
ag2
(g6
S'\xb1\xd0^<'
p3578
tp3579
Rp3580
ag2
(g6
S'\xe5\x9d\x02='
p3581
tp3582
Rp3583
ag2
(g6
S'K\x91u<'
p3584
tp3585
Rp3586
ag2
(g6
S'5sO;'
p3587
tp3588
Rp3589
ag2
(g6
S'\xf9\xe7\x02<'
p3590
tp3591
Rp3592
ag2
(g6
S'3\x9e\xbe;'
p3593
tp3594
Rp3595
ag2
(g6
S'\xc9\xe2\x94;'
p3596
tp3597
Rp3598
ag2
(g6
S'\xbb\x87O<'
p3599
tp3600
Rp3601
ag2
(g6
S'qP\xc4;'
p3602
tp3603
Rp3604
ag2
(g6
S'\xfd\x04W='
p3605
tp3606
Rp3607
ag2
(g6
S'\xecR\xfe:'
p3608
tp3609
Rp3610
ag2
(g6
S'\xa0i\xbb:'
p3611
tp3612
Rp3613
ag2
(g6
S'!s\x17<'
p3614
tp3615
Rp3616
ag2
(g6
S'B\xf7\x10;'
p3617
tp3618
Rp3619
aa(lp3620
g2
(g6
S'\xbd\xb2\xd1;'
p3621
tp3622
Rp3623
ag2
(g6
S'q\\\x1a<'
p3624
tp3625
Rp3626
ag2
(g6
S'\x11\xa0\xfd:'
p3627
tp3628
Rp3629
ag2
(g6
S'a\xeb\xca;'
p3630
tp3631
Rp3632
ag2
(g6
S'\x98\x82\xd5;'
p3633
tp3634
Rp3635
ag2
(g6
S'\xdcR\x80;'
p3636
tp3637
Rp3638
ag2
(g6
S'\x8b\xc5\xfb:'
p3639
tp3640
Rp3641
ag2
(g6
S'ma\xb1;'
p3642
tp3643
Rp3644
ag2
(g6
S'\x17B\x87;'
p3645
tp3646
Rp3647
ag2
(g6
S'h*\x84<'
p3648
tp3649
Rp3650
ag2
(g6
S'\xdd{<<'
p3651
tp3652
Rp3653
ag2
(g6
S'\xc7*\xb9:'
p3654
tp3655
Rp3656
ag2
(g6
S'\xb1\x10\xfb;'
p3657
tp3658
Rp3659
ag2
(g6
S'g)\xec<'
p3660
tp3661
Rp3662
ag2
(g6
S'?F\xc4:'
p3663
tp3664
Rp3665
ag2
(g6
S'\x98,\xd5:'
p3666
tp3667
Rp3668
ag2
(g6
S'\x98=\x07;'
p3669
tp3670
Rp3671
ag2
(g6
S'\x9b8\x07<'
p3672
tp3673
Rp3674
ag2
(g6
S'\x03\xf9\x04<'
p3675
tp3676
Rp3677
ag2
(g6
S'$n\xb9;'
p3678
tp3679
Rp3680
ag2
(g6
S'\xa8L\xb5<'
p3681
tp3682
Rp3683
ag2
(g6
S'^@\x80<'
p3684
tp3685
Rp3686
ag2
(g6
S'\x88\xb0\xd2:'
p3687
tp3688
Rp3689
ag2
(g6
S'!\xb2B;'
p3690
tp3691
Rp3692
ag2
(g6
S']h\xd3;'
p3693
tp3694
Rp3695
ag2
(g6
S'D\\\xdb;'
p3696
tp3697
Rp3698
ag2
(g6
S'\xf3\xda3;'
p3699
tp3700
Rp3701
ag2
(g6
S'\xb5\x1bw;'
p3702
tp3703
Rp3704
ag2
(g6
S'\xcfP!;'
p3705
tp3706
Rp3707
ag2
(g6
S'\xcdn8;'
p3708
tp3709
Rp3710
ag2
(g6
S'5b\x81;'
p3711
tp3712
Rp3713
ag2
(g6
S'\xb9*C<'
p3714
tp3715
Rp3716
ag2
(g6
S' z\x02='
p3717
tp3718
Rp3719
ag2
(g6
S'\x93/o@'
p3720
tp3721
Rp3722
ag2
(g6
S'_\x82;<'
p3723
tp3724
Rp3725
ag2
(g6
S'D/e;'
p3726
tp3727
Rp3728
aa(lp3729
g2
(g6
S'E\x00\xf8:'
p3730
tp3731
Rp3732
ag2
(g6
S'\xbd\xbb\xa89'
p3733
tp3734
Rp3735
ag2
(g6
S'\xe3\x8d\x929'
p3736
tp3737
Rp3738
ag2
(g6
S'\x94\xb1W:'
p3739
tp3740
Rp3741
ag2
(g6
S'#\x97\x03:'
p3742
tp3743
Rp3744
ag2
(g6
S'\xc9m\x9f:'
p3745
tp3746
Rp3747
ag2
(g6
S'\x04\x14h;'
p3748
tp3749
Rp3750
ag2
(g6
S'\xd8l\xd79'
p3751
tp3752
Rp3753
ag2
(g6
S'\xe2\xd0\x909'
p3754
tp3755
Rp3756
ag2
(g6
S'\xd3\x99\xe2:'
p3757
tp3758
Rp3759
ag2
(g6
S'8\x9bB:'
p3760
tp3761
Rp3762
ag2
(g6
S'\x95#\x95:'
p3763
tp3764
Rp3765
ag2
(g6
S'\xe7\x97,9'
p3766
tp3767
Rp3768
ag2
(g6
S's\xebY:'
p3769
tp3770
Rp3771
ag2
(g6
S'"0\x11:'
p3772
tp3773
Rp3774
ag2
(g6
S'\xfb\xbc\xa49'
p3775
tp3776
Rp3777
ag2
(g6
S'\xddwW:'
p3778
tp3779
Rp3780
ag2
(g6
S' ]\x8c;'
p3781
tp3782
Rp3783
ag2
(g6
S'\xa4\x14\x12:'
p3784
tp3785
Rp3786
ag2
(g6
S'<l\xc39'
p3787
tp3788
Rp3789
ag2
(g6
S'\xab\xb0+:'
p3790
tp3791
Rp3792
ag2
(g6
S'\xb8\x9e\xb8:'
p3793
tp3794
Rp3795
ag2
(g6
S'\xeb\x0e^;'
p3796
tp3797
Rp3798
ag2
(g6
S'\xa4CT<'
p3799
tp3800
Rp3801
ag2
(g6
S'g\x98\xfd;'
p3802
tp3803
Rp3804
ag2
(g6
S'\xfdh\xe4<'
p3805
tp3806
Rp3807
ag2
(g6
S'(q/:'
p3808
tp3809
Rp3810
ag2
(g6
S'\x930\xfc;'
p3811
tp3812
Rp3813
ag2
(g6
S'\xec\xbbn;'
p3814
tp3815
Rp3816
ag2
(g6
S'\xfbL\x90<'
p3817
tp3818
Rp3819
ag2
(g6
S'a\xdf\x82@'
p3820
tp3821
Rp3822
ag2
(g6
S'O\x7f\x05<'
p3823
tp3824
Rp3825
ag2
(g6
S':\xfc\x8e;'
p3826
tp3827
Rp3828
ag2
(g6
S'\x00x\xef;'
p3829
tp3830
Rp3831
ag2
(g6
S'\\2\x12:'
p3832
tp3833
Rp3834
ag2
(g6
S'|\x17\x15;'
p3835
tp3836
Rp3837
aa(lp3838
g2
(g6
S'\xdd\x9a\xce9'
p3839
tp3840
Rp3841
ag2
(g6
S'W\x07A9'
p3842
tp3843
Rp3844
ag2
(g6
S'\x06\xc2\xa8:'
p3845
tp3846
Rp3847
ag2
(g6
S'\xad\xc2\xe7:'
p3848
tp3849
Rp3850
ag2
(g6
S'\x036\xaa:'
p3851
tp3852
Rp3853
ag2
(g6
S'\x13\x95\xd8:'
p3854
tp3855
Rp3856
ag2
(g6
S'\x15);;'
p3857
tp3858
Rp3859
ag2
(g6
S'\xf1\xc6\xb2:'
p3860
tp3861
Rp3862
ag2
(g6
S'\x8d\xc1\x91:'
p3863
tp3864
Rp3865
ag2
(g6
S'\xb6\xb0\x8b:'
p3866
tp3867
Rp3868
ag2
(g6
S'-R\xcc:'
p3869
tp3870
Rp3871
ag2
(g6
S'\xd9>\x96;'
p3872
tp3873
Rp3874
ag2
(g6
S'\x90}\xce9'
p3875
tp3876
Rp3877
ag2
(g6
S'\xf0\xca\xb5:'
p3878
tp3879
Rp3880
ag2
(g6
S'\xfd\xe0F:'
p3881
tp3882
Rp3883
ag2
(g6
S'{\x9c\xf29'
p3884
tp3885
Rp3886
ag2
(g6
S'\xec\xbdD:'
p3887
tp3888
Rp3889
ag2
(g6
S'\xa1\x02W;'
p3890
tp3891
Rp3892
ag2
(g6
S'\x10,\xb4;'
p3893
tp3894
Rp3895
ag2
(g6
S'u\xc1\xbe9'
p3896
tp3897
Rp3898
ag2
(g6
S'\xc1p\x97:'
p3899
tp3900
Rp3901
ag2
(g6
S'}\xd6\xdc9'
p3902
tp3903
Rp3904
ag2
(g6
S'\xb0SA;'
p3905
tp3906
Rp3907
ag2
(g6
S'y\x8f\xdf:'
p3908
tp3909
Rp3910
ag2
(g6
S'\xb0\n\x91;'
p3911
tp3912
Rp3913
ag2
(g6
S'\xd3\x92+<'
p3914
tp3915
Rp3916
ag2
(g6
S'\xd9B\x04;'
p3917
tp3918
Rp3919
ag2
(g6
S'\r(2;'
p3920
tp3921
Rp3922
ag2
(g6
S'\xa0E\\;'
p3923
tp3924
Rp3925
ag2
(g6
S'\xbd;\x0c<'
p3926
tp3927
Rp3928
ag2
(g6
S'\x92\xf7\x97;'
p3929
tp3930
Rp3931
ag2
(g6
S'\x89\x0f49'
p3932
tp3933
Rp3934
ag2
(g6
S'\x1b0\xc3:'
p3935
tp3936
Rp3937
ag2
(g6
S'\x98<_:'
p3938
tp3939
Rp3940
ag2
(g6
S',"s9'
p3941
tp3942
Rp3943
ag2
(g6
S'\xd9;\x9e:'
p3944
tp3945
Rp3946
aa(lp3947
g2
(g6
S'7\xe8\x03<'
p3948
tp3949
Rp3950
ag2
(g6
S'\xdbF9<'
p3951
tp3952
Rp3953
ag2
(g6
S'\xe9\xff\xc5;'
p3954
tp3955
Rp3956
ag2
(g6
S'\xb8\x8e\xd5:'
p3957
tp3958
Rp3959
ag2
(g6
S'\x10\x06\xc9:'
p3960
tp3961
Rp3962
ag2
(g6
S'\x95\x1b\x8f:'
p3963
tp3964
Rp3965
ag2
(g6
S'\xebp+:'
p3966
tp3967
Rp3968
ag2
(g6
S'q\x045:'
p3969
tp3970
Rp3971
ag2
(g6
S'\xdb\xa7\xf6:'
p3972
tp3973
Rp3974
ag2
(g6
S'\xad\xa0h;'
p3975
tp3976
Rp3977
ag2
(g6
S'~\x9a\n<'
p3978
tp3979
Rp3980
ag2
(g6
S'\xcb\x18\xc4;'
p3981
tp3982
Rp3983
ag2
(g6
S'\xf8\xbax@'
p3984
tp3985
Rp3986
ag2
(g6
S'\x01\xba=='
p3987
tp3988
Rp3989
ag2
(g6
S'%5\x90;'
p3990
tp3991
Rp3992
ag2
(g6
S'=\n\xc6:'
p3993
tp3994
Rp3995
ag2
(g6
S'\x7f\xf3\x86:'
p3996
tp3997
Rp3998
ag2
(g6
S'\xb97C;'
p3999
tp4000
Rp4001
ag2
(g6
S'\x90x\x19:'
p4002
tp4003
Rp4004
ag2
(g6
S'\x0f%\xb6:'
p4005
tp4006
Rp4007
ag2
(g6
S'\xbc?\x0e<'
p4008
tp4009
Rp4010
ag2
(g6
S'\x1b\xcd\xa8;'
p4011
tp4012
Rp4013
ag2
(g6
S'<_|@'
p4014
tp4015
Rp4016
ag2
(g6
S'\xdd\xa2k@'
p4017
tp4018
Rp4019
ag2
(g6
S'\xe5\x06\x99='
p4020
tp4021
Rp4022
ag2
(g6
S'\xd0\x0c\x8b<'
p4023
tp4024
Rp4025
ag2
(g6
S'\xef\xd0\xe2<'
p4026
tp4027
Rp4028
ag2
(g6
S':\x14\x80;'
p4029
tp4030
Rp4031
ag2
(g6
S'\xc0\x0e\x87<'
p4032
tp4033
Rp4034
ag2
(g6
S'\xa0?P;'
p4035
tp4036
Rp4037
ag2
(g6
S'\xef}O<'
p4038
tp4039
Rp4040
ag2
(g6
S'\xbcNV;'
p4041
tp4042
Rp4043
ag2
(g6
S'\x7f\xee\xbf;'
p4044
tp4045
Rp4046
ag2
(g6
S'\xdb\xc8\x94;'
p4047
tp4048
Rp4049
ag2
(g6
S'ac\xff:'
p4050
tp4051
Rp4052
ag2
(g6
S'\x8f \x84<'
p4053
tp4054
Rp4055
aa(lp4056
g2
(g6
S'\xdf\x8f\xdc:'
p4057
tp4058
Rp4059
ag2
(g6
S'x\x8d\xd5:'
p4060
tp4061
Rp4062
ag2
(g6
S'\xe4MT;'
p4063
tp4064
Rp4065
ag2
(g6
S'\t\x0f\xc5:'
p4066
tp4067
Rp4068
ag2
(g6
S'>O\x10;'
p4069
tp4070
Rp4071
ag2
(g6
S'm\xe8p;'
p4072
tp4073
Rp4074
ag2
(g6
S'\xaf&c;'
p4075
tp4076
Rp4077
ag2
(g6
S'\x9d\xc0\xaf:'
p4078
tp4079
Rp4080
ag2
(g6
S'\x7f\xff\xe2;'
p4081
tp4082
Rp4083
ag2
(g6
S'\x14#\xf1;'
p4084
tp4085
Rp4086
ag2
(g6
S'\xb0\x84\xf1;'
p4087
tp4088
Rp4089
ag2
(g6
S'G\xe3\xc5;'
p4090
tp4091
Rp4092
ag2
(g6
S'$>\xaa;'
p4093
tp4094
Rp4095
ag2
(g6
S'\xa8\x16\x0f:'
p4096
tp4097
Rp4098
ag2
(g6
S'\x80\x95<<'
p4099
tp4100
Rp4101
ag2
(g6
S'\x9c\x80\xb2:'
p4102
tp4103
Rp4104
ag2
(g6
S'=\xa2 9'
p4105
tp4106
Rp4107
ag2
(g6
S'\x0b\x10\xfb:'
p4108
tp4109
Rp4110
ag2
(g6
S'pm\x8b<'
p4111
tp4112
Rp4113
ag2
(g6
S'/\xca\xdd;'
p4114
tp4115
Rp4116
ag2
(g6
S'o\x17\x8c<'
p4117
tp4118
Rp4119
ag2
(g6
S'-\xa6^;'
p4120
tp4121
Rp4122
ag2
(g6
S'\x9c\xc7j<'
p4123
tp4124
Rp4125
ag2
(g6
S'\x80\x19L<'
p4126
tp4127
Rp4128
ag2
(g6
S'w\x90\xc9;'
p4129
tp4130
Rp4131
ag2
(g6
S'\xdd\xcb\xc0;'
p4132
tp4133
Rp4134
ag2
(g6
S'\xe8\xcf;<'
p4135
tp4136
Rp4137
ag2
(g6
S'\x03>\xe8;'
p4138
tp4139
Rp4140
ag2
(g6
S'\xe3\xe7\xdb:'
p4141
tp4142
Rp4143
ag2
(g6
S'(\x07\xb6;'
p4144
tp4145
Rp4146
ag2
(g6
S' \x9b\x8b='
p4147
tp4148
Rp4149
ag2
(g6
S'\xcd\xd6z<'
p4150
tp4151
Rp4152
ag2
(g6
S'\xc0\xbe\xc9:'
p4153
tp4154
Rp4155
ag2
(g6
S'\xff%\xa0;'
p4156
tp4157
Rp4158
ag2
(g6
S'[A+='
p4159
tp4160
Rp4161
ag2
(g6
S'\x8f\x15\xf0='
p4162
tp4163
Rp4164
aa(lp4165
g2
(g6
S'\x00i?:'
p4166
tp4167
Rp4168
ag2
(g6
S'\x19,\x87;'
p4169
tp4170
Rp4171
ag2
(g6
S'\x9d\xf6\xb6:'
p4172
tp4173
Rp4174
ag2
(g6
S'\xed\x86\xcf:'
p4175
tp4176
Rp4177
ag2
(g6
S'\x13z\x8f9'
p4178
tp4179
Rp4180
ag2
(g6
S'\x0f\x0bv;'
p4181
tp4182
Rp4183
ag2
(g6
S'\xf3\x85K:'
p4184
tp4185
Rp4186
ag2
(g6
S'\x93e\x939'
p4187
tp4188
Rp4189
ag2
(g6
S'\x1e\xfa\x88:'
p4190
tp4191
Rp4192
ag2
(g6
S'\xf3\xd4\\:'
p4193
tp4194
Rp4195
ag2
(g6
S'\x01\x84\xb3:'
p4196
tp4197
Rp4198
ag2
(g6
S'#\x9c$:'
p4199
tp4200
Rp4201
ag2
(g6
S'\xd9\xcd\\;'
p4202
tp4203
Rp4204
ag2
(g6
S'z\xdf%;'
p4205
tp4206
Rp4207
ag2
(g6
S'Q\x16\x93;'
p4208
tp4209
Rp4210
ag2
(g6
S'\xf7\xae";'
p4211
tp4212
Rp4213
ag2
(g6
S'8\xcf\xcc9'
p4214
tp4215
Rp4216
ag2
(g6
S'A\xf1k<'
p4217
tp4218
Rp4219
ag2
(g6
S'\xa9z\x10='
p4220
tp4221
Rp4222
ag2
(g6
S'\x95\xaa\xbe<'
p4223
tp4224
Rp4225
ag2
(g6
S'nW\x86@'
p4226
tp4227
Rp4228
ag2
(g6
S'd|7;'
p4229
tp4230
Rp4231
ag2
(g6
S'\xcf\x17\xcdB'
p4232
tp4233
Rp4234
aa(lp4235
g2
(g6
S'M\xcc\xc3;'
p4236
tp4237
Rp4238
ag2
(g6
S'\xdc\xab\x05;'
p4239
tp4240
Rp4241
ag2
(g6
S'9h\x8a;'
p4242
tp4243
Rp4244
ag2
(g6
S'=\xaa\x07:'
p4245
tp4246
Rp4247
ag2
(g6
S'\xcf\x18\x949'
p4248
tp4249
Rp4250
ag2
(g6
S'\xe8\xdb\xb2:'
p4251
tp4252
Rp4253
ag2
(g6
S'\xdcU\xf2:'
p4254
tp4255
Rp4256
ag2
(g6
S'\xa5\x0c\x85;'
p4257
tp4258
Rp4259
ag2
(g6
S'\xddgL:'
p4260
tp4261
Rp4262
ag2
(g6
S'c\xf3?;'
p4263
tp4264
Rp4265
ag2
(g6
S'\xb1S\x9c;'
p4266
tp4267
Rp4268
ag2
(g6
S'\x1d\x0f\x8e9'
p4269
tp4270
Rp4271
ag2
(g6
S'l\x8b\x1b;'
p4272
tp4273
Rp4274
ag2
(g6
S'o\xa6\xa0:'
p4275
tp4276
Rp4277
ag2
(g6
S'\xc0\xc5\xed9'
p4278
tp4279
Rp4280
ag2
(g6
S'\x94\xc1\xe99'
p4281
tp4282
Rp4283
ag2
(g6
S'\x93\x96\xaf;'
p4284
tp4285
Rp4286
ag2
(g6
S'\x95\x11\x1c<'
p4287
tp4288
Rp4289
ag2
(g6
S'y\x92\xcb:'
p4290
tp4291
Rp4292
ag2
(g6
S'$\x8a\xd2:'
p4293
tp4294
Rp4295
ag2
(g6
S'\xd8\xa9\x0c;'
p4296
tp4297
Rp4298
ag2
(g6
S'%\x1c\xfa:'
p4299
tp4300
Rp4301
ag2
(g6
S'kK\xef:'
p4302
tp4303
Rp4304
ag2
(g6
S'\xe72\xaf;'
p4305
tp4306
Rp4307
ag2
(g6
S'\x15\xb0\xd9;'
p4308
tp4309
Rp4310
ag2
(g6
S'[\xfe\xb6:'
p4311
tp4312
Rp4313
ag2
(g6
S'5\x8f\xcf:'
p4314
tp4315
Rp4316
ag2
(g6
S'\xd8\x9f\xbb9'
p4317
tp4318
Rp4319
ag2
(g6
S'\xef\xd1\xad;'
p4320
tp4321
Rp4322
ag2
(g6
S'39\xc0;'
p4323
tp4324
Rp4325
ag2
(g6
S'\xb1H\xae9'
p4326
tp4327
Rp4328
ag2
(g6
S'\xe8\xfb\x99;'
p4329
tp4330
Rp4331
ag2
(g6
S'\x83sM<'
p4332
tp4333
Rp4334
ag2
(g6
S'uM6;'
p4335
tp4336
Rp4337
ag2
(g6
S'\x02k\x1e;'
p4338
tp4339
Rp4340
ag2
(g6
S'\xa5\xd6\xd4;'
p4341
tp4342
Rp4343
aa(lp4344
g2
(g6
S'\xeb9\x8b:'
p4345
tp4346
Rp4347
ag2
(g6
S'8;3;'
p4348
tp4349
Rp4350
ag2
(g6
S'\xf4\xd1?;'
p4351
tp4352
Rp4353
ag2
(g6
S'\x8c\xc6*;'
p4354
tp4355
Rp4356
ag2
(g6
S'p\xc2\xbe;'
p4357
tp4358
Rp4359
ag2
(g6
S'\xf5\xd8\x08:'
p4360
tp4361
Rp4362
ag2
(g6
S'xix:'
p4363
tp4364
Rp4365
ag2
(g6
S'\x97a\xdc;'
p4366
tp4367
Rp4368
ag2
(g6
S'B\xa6\x80<'
p4369
tp4370
Rp4371
ag2
(g6
S'\xbdAt:'
p4372
tp4373
Rp4374
ag2
(g6
S'\xd8\x11\x88<'
p4375
tp4376
Rp4377
ag2
(g6
S'\xe5#\xbe<'
p4378
tp4379
Rp4380
ag2
(g6
S'\xb1\x98\x81='
p4381
tp4382
Rp4383
ag2
(g6
S'\xd9\xbcO='
p4384
tp4385
Rp4386
ag2
(g6
S'0|\xde;'
p4387
tp4388
Rp4389
ag2
(g6
S'3{\xa8<'
p4390
tp4391
Rp4392
ag2
(g6
S'M\x17\xbdB'
p4393
tp4394
Rp4395
aa(lp4396
g2
(g6
S'\x83\xd0D<'
p4397
tp4398
Rp4399
ag2
(g6
S'\xf0\xd5\xfc;'
p4400
tp4401
Rp4402
ag2
(g6
S'\xee\x91\x1f<'
p4403
tp4404
Rp4405
ag2
(g6
S'\xf1\x90=;'
p4406
tp4407
Rp4408
ag2
(g6
S'\xcd\x1f\x94<'
p4409
tp4410
Rp4411
ag2
(g6
S'4\x98\xe3:'
p4412
tp4413
Rp4414
ag2
(g6
S'\x1d\x93\xe7;'
p4415
tp4416
Rp4417
ag2
(g6
S'\x8e= <'
p4418
tp4419
Rp4420
ag2
(g6
S"'\x14\xc2;"
p4421
tp4422
Rp4423
ag2
(g6
S'\xec\xb0\xd1;'
p4424
tp4425
Rp4426
ag2
(g6
S'\xa5W\xd79'
p4427
tp4428
Rp4429
ag2
(g6
S'\x7f\xe5\xa8<'
p4430
tp4431
Rp4432
ag2
(g6
S'S\xe6\x93:'
p4433
tp4434
Rp4435
ag2
(g6
S'\x1d\x0c\xb2<'
p4436
tp4437
Rp4438
ag2
(g6
S'K i:'
p4439
tp4440
Rp4441
ag2
(g6
S'\r{\xa7;'
p4442
tp4443
Rp4444
ag2
(g6
S'k\x9c#<'
p4445
tp4446
Rp4447
ag2
(g6
S'\xf5\xf9\x9b;'
p4448
tp4449
Rp4450
ag2
(g6
S'\xad;\xb9;'
p4451
tp4452
Rp4453
ag2
(g6
S'3\xec3<'
p4454
tp4455
Rp4456
ag2
(g6
S's:g;'
p4457
tp4458
Rp4459
ag2
(g6
S'\x97;F<'
p4460
tp4461
Rp4462
ag2
(g6
S'9\x97\t<'
p4463
tp4464
Rp4465
ag2
(g6
S'Sw!;'
p4466
tp4467
Rp4468
ag2
(g6
S'\x08MR<'
p4469
tp4470
Rp4471
ag2
(g6
S'\xbd\x9c\xa2;'
p4472
tp4473
Rp4474
ag2
(g6
S'K|\xf7:'
p4475
tp4476
Rp4477
ag2
(g6
S'G\xef\xa7;'
p4478
tp4479
Rp4480
ag2
(g6
S'%\x04T<'
p4481
tp4482
Rp4483
ag2
(g6
S'\xbdQ\xad;'
p4484
tp4485
Rp4486
ag2
(g6
S'\xeb\xe6\xf79'
p4487
tp4488
Rp4489
ag2
(g6
S'YI\x8b;'
p4490
tp4491
Rp4492
ag2
(g6
S'5\x1e#<'
p4493
tp4494
Rp4495
ag2
(g6
S'Wbx;'
p4496
tp4497
Rp4498
ag2
(g6
S'\xfb\xd79:'
p4499
tp4500
Rp4501
ag2
(g6
S'\x8f{\xa5;'
p4502
tp4503
Rp4504
aa(lp4505
g2
(g6
S'\x97\xd8\x8d;'
p4506
tp4507
Rp4508
ag2
(g6
S'A\x08\x95;'
p4509
tp4510
Rp4511
ag2
(g6
S'\xf0i\x98:'
p4512
tp4513
Rp4514
ag2
(g6
S'\xf9\n\x1e;'
p4515
tp4516
Rp4517
ag2
(g6
S'\xab`E;'
p4518
tp4519
Rp4520
ag2
(g6
S'\x87\xbb\x1c:'
p4521
tp4522
Rp4523
ag2
(g6
S'!\x06T<'
p4524
tp4525
Rp4526
ag2
(g6
S'l\xa9\x19;'
p4527
tp4528
Rp4529
ag2
(g6
S'UX\xf38'
p4530
tp4531
Rp4532
ag2
(g6
S'\xa9Pe;'
p4533
tp4534
Rp4535
ag2
(g6
S'\x01,+;'
p4536
tp4537
Rp4538
ag2
(g6
S'M4\x82;'
p4539
tp4540
Rp4541
ag2
(g6
S'\x96\x84\xa8:'
p4542
tp4543
Rp4544
ag2
(g6
S'\xd1J\x8a;'
p4545
tp4546
Rp4547
ag2
(g6
S'\x04\xb0\x11<'
p4548
tp4549
Rp4550
ag2
(g6
S'\x132`='
p4551
tp4552
Rp4553
ag2
(g6
S'\xfa8\x05='
p4554
tp4555
Rp4556
ag2
(g6
S'\xf5?\xa9<'
p4557
tp4558
Rp4559
ag2
(g6
S'\xd3\xa9F;'
p4560
tp4561
Rp4562
ag2
(g6
S'\xfd\x04\xdf;'
p4563
tp4564
Rp4565
ag2
(g6
S'\xef@\x07<'
p4566
tp4567
Rp4568
ag2
(g6
S'\xb8\xe7J;'
p4569
tp4570
Rp4571
ag2
(g6
S'E"\xa0:'
p4572
tp4573
Rp4574
ag2
(g6
S'\xc2\x9a\x8a:'
p4575
tp4576
Rp4577
ag2
(g6
S'\xdd\x0e\xfd:'
p4578
tp4579
Rp4580
ag2
(g6
S'\xe7\xab\x06;'
p4581
tp4582
Rp4583
ag2
(g6
S'\xd4 \x1a;'
p4584
tp4585
Rp4586
ag2
(g6
S'\x10\x10M:'
p4587
tp4588
Rp4589
ag2
(g6
S'\xe0fC<'
p4590
tp4591
Rp4592
ag2
(g6
S'\xe3\xa8\x94<'
p4593
tp4594
Rp4595
ag2
(g6
S'C\xe1\xa4;'
p4596
tp4597
Rp4598
ag2
(g6
S'P\x1b*;'
p4599
tp4600
Rp4601
ag2
(g6
S'5\xd9p;'
p4602
tp4603
Rp4604
ag2
(g6
S'\n\xab\x94;'
p4605
tp4606
Rp4607
ag2
(g6
S'\x94R\xcb;'
p4608
tp4609
Rp4610
ag2
(g6
S'\x85\x0e\x95;'
p4611
tp4612
Rp4613
aa(lp4614
g2
(g6
S'4}\xe8;'
p4615
tp4616
Rp4617
ag2
(g6
S'\xa0\x1aT;'
p4618
tp4619
Rp4620
ag2
(g6
S'\x8f\x16c;'
p4621
tp4622
Rp4623
ag2
(g6
S'#d\x97:'
p4624
tp4625
Rp4626
ag2
(g6
S'{\xde\xee:'
p4627
tp4628
Rp4629
ag2
(g6
S'\xc3|\xff:'
p4630
tp4631
Rp4632
ag2
(g6
S'\x11\\\x9f:'
p4633
tp4634
Rp4635
ag2
(g6
S'\x95\x1b8;'
p4636
tp4637
Rp4638
ag2
(g6
S'\x94\xf8\x80;'
p4639
tp4640
Rp4641
ag2
(g6
S'\x93\xed};'
p4642
tp4643
Rp4644
ag2
(g6
S'9\x82\x1b;'
p4645
tp4646
Rp4647
ag2
(g6
S'SV\xc6;'
p4648
tp4649
Rp4650
ag2
(g6
S'\xdd\xe2o;'
p4651
tp4652
Rp4653
ag2
(g6
S'\xa8\x86\x8c<'
p4654
tp4655
Rp4656
ag2
(g6
S'L}\x9c;'
p4657
tp4658
Rp4659
ag2
(g6
S'\x8f\xbb\x85='
p4660
tp4661
Rp4662
ag2
(g6
S'\xa0(\xfc<'
p4663
tp4664
Rp4665
ag2
(g6
S'\x89[\xc7B'
p4666
tp4667
Rp4668
aa(lp4669
g2
(g6
S'\x93=4<'
p4670
tp4671
Rp4672
ag2
(g6
S'\xe7\xae\x17<'
p4673
tp4674
Rp4675
ag2
(g6
S'\xbbCp<'
p4676
tp4677
Rp4678
ag2
(g6
S'G\xe1\xf7:'
p4679
tp4680
Rp4681
ag2
(g6
S'\x809\xf7:'
p4682
tp4683
Rp4684
ag2
(g6
S'\xf4\\\x93<'
p4685
tp4686
Rp4687
ag2
(g6
S'\xe9h\x94;'
p4688
tp4689
Rp4690
ag2
(g6
S'\xa7u\x84;'
p4691
tp4692
Rp4693
ag2
(g6
S'#"\x87;'
p4694
tp4695
Rp4696
ag2
(g6
S'\x8c"[<'
p4697
tp4698
Rp4699
ag2
(g6
S'0\xed8;'
p4700
tp4701
Rp4702
ag2
(g6
S'p\x84\xe9:'
p4703
tp4704
Rp4705
ag2
(g6
S'\xd1>\x80<'
p4706
tp4707
Rp4708
ag2
(g6
S'\xe3\xf8\x92;'
p4709
tp4710
Rp4711
ag2
(g6
S' {\x1c;'
p4712
tp4713
Rp4714
ag2
(g6
S')G\x0b;'
p4715
tp4716
Rp4717
ag2
(g6
S'\xcfv\xd9:'
p4718
tp4719
Rp4720
ag2
(g6
S'\xd3|\xce;'
p4721
tp4722
Rp4723
ag2
(g6
S'\x0c\xadE<'
p4724
tp4725
Rp4726
ag2
(g6
S';J7;'
p4727
tp4728
Rp4729
ag2
(g6
S"\xe1'\xd2;"
p4730
tp4731
Rp4732
ag2
(g6
S';\xc2\xe6:'
p4733
tp4734
Rp4735
ag2
(g6
S'\x1d\xe7\xfa:'
p4736
tp4737
Rp4738
ag2
(g6
S'\xfb\xf5\xc6:'
p4739
tp4740
Rp4741
ag2
(g6
S'\xa9\xbb\xa0;'
p4742
tp4743
Rp4744
ag2
(g6
S'-\x17C<'
p4745
tp4746
Rp4747
ag2
(g6
S'\xe0\x8b\x83@'
p4748
tp4749
Rp4750
ag2
(g6
S"a'\x7f@"
p4751
tp4752
Rp4753
ag2
(g6
S'Ec\xfc<'
p4754
tp4755
Rp4756
ag2
(g6
S'\xf4\xday<'
p4757
tp4758
Rp4759
ag2
(g6
S'\xb8e\x90;'
p4760
tp4761
Rp4762
ag2
(g6
S'\xe3 w@'
p4763
tp4764
Rp4765
ag2
(g6
S'\xcb.\x06='
p4766
tp4767
Rp4768
ag2
(g6
S'}_\xb5;'
p4769
tp4770
Rp4771
ag2
(g6
S'\x87\x00\xbe<'
p4772
tp4773
Rp4774
ag2
(g6
S'\xe9}\xa6;'
p4775
tp4776
Rp4777
aa(lp4778
g2
(g6
S'\xf3\r\xc0;'
p4779
tp4780
Rp4781
ag2
(g6
S'?\x81\xc09'
p4782
tp4783
Rp4784
ag2
(g6
S'\xc0=j:'
p4785
tp4786
Rp4787
ag2
(g6
S'\xecpZ;'
p4788
tp4789
Rp4790
ag2
(g6
S'\xf8H\xf9:'
p4791
tp4792
Rp4793
ag2
(g6
S'Ib\x13;'
p4794
tp4795
Rp4796
ag2
(g6
S'\x95\xf7\x02;'
p4797
tp4798
Rp4799
ag2
(g6
S'\xc5\x85v:'
p4800
tp4801
Rp4802
ag2
(g6
S'`mE:'
p4803
tp4804
Rp4805
ag2
(g6
S'Y^\x89;'
p4806
tp4807
Rp4808
ag2
(g6
S'\xc4\r\x8a<'
p4809
tp4810
Rp4811
ag2
(g6
S'\xd5S ;'
p4812
tp4813
Rp4814
ag2
(g6
S'M2\x1a;'
p4815
tp4816
Rp4817
ag2
(g6
S'\xa3{4;'
p4818
tp4819
Rp4820
ag2
(g6
S'i\xb3\xc39'
p4821
tp4822
Rp4823
ag2
(g6
S'K\x19\xf1:'
p4824
tp4825
Rp4826
ag2
(g6
S'k\xbd\xbb9'
p4827
tp4828
Rp4829
ag2
(g6
S'\x99\x16\x17:'
p4830
tp4831
Rp4832
ag2
(g6
S'\xbc\xcb};'
p4833
tp4834
Rp4835
ag2
(g6
S')\x9e\x14<'
p4836
tp4837
Rp4838
ag2
(g6
S'\xa4\x1e\xb29'
p4839
tp4840
Rp4841
ag2
(g6
S'\xc5\xaf\x15;'
p4842
tp4843
Rp4844
ag2
(g6
S'\x91cW:'
p4845
tp4846
Rp4847
ag2
(g6
S'\xcf\x00\xa89'
p4848
tp4849
Rp4850
ag2
(g6
S'\xdcO\xd09'
p4851
tp4852
Rp4853
ag2
(g6
S'\xa8\xf5\xcd:'
p4854
tp4855
Rp4856
ag2
(g6
S'\x8d-m;'
p4857
tp4858
Rp4859
ag2
(g6
S'@2\xdc;'
p4860
tp4861
Rp4862
ag2
(g6
S'[\x10\r:'
p4863
tp4864
Rp4865
ag2
(g6
S'0\x1e:;'
p4866
tp4867
Rp4868
ag2
(g6
S'}\x92\xf4;'
p4869
tp4870
Rp4871
ag2
(g6
S'\x91\x9f\x82@'
p4872
tp4873
Rp4874
ag2
(g6
S'\x8d\xfe{='
p4875
tp4876
Rp4877
ag2
(g6
S'\xb1\x8f\x1f<'
p4878
tp4879
Rp4880
ag2
(g6
S'{\x00\x01<'
p4881
tp4882
Rp4883
ag2
(g6
S'`\xff\xe79'
p4884
tp4885
Rp4886
aa(lp4887
g2
(g6
S'q\x93\x8d;'
p4888
tp4889
Rp4890
ag2
(g6
S'\rK\xc8:'
p4891
tp4892
Rp4893
ag2
(g6
S'\xc8\xacB;'
p4894
tp4895
Rp4896
ag2
(g6
S'x\xf6\x13:'
p4897
tp4898
Rp4899
ag2
(g6
S'\xd4\xcb,:'
p4900
tp4901
Rp4902
ag2
(g6
S'S\x92G;'
p4903
tp4904
Rp4905
ag2
(g6
S'\xa7<\x03;'
p4906
tp4907
Rp4908
ag2
(g6
S'\x0e\xd1\xa19'
p4909
tp4910
Rp4911
ag2
(g6
S'c\x03\x7f:'
p4912
tp4913
Rp4914
ag2
(g6
S'\\\x03\xc2:'
p4915
tp4916
Rp4917
ag2
(g6
S'P}\x00;'
p4918
tp4919
Rp4920
ag2
(g6
S'\xe2b\x8c;'
p4921
tp4922
Rp4923
ag2
(g6
S'-U59'
p4924
tp4925
Rp4926
ag2
(g6
S'\x85\xb6\xeb9'
p4927
tp4928
Rp4929
ag2
(g6
S'\x9b\xe3"<'
p4930
tp4931
Rp4932
ag2
(g6
S'\xfbo\x06<'
p4933
tp4934
Rp4935
ag2
(g6
S'\xa9G)<'
p4936
tp4937
Rp4938
ag2
(g6
S'\x08\xb9\x1a:'
p4939
tp4940
Rp4941
ag2
(g6
S'\xc8\xcd2;'
p4942
tp4943
Rp4944
ag2
(g6
S'&W\x13<'
p4945
tp4946
Rp4947
ag2
(g6
S')\xb9\x9c<'
p4948
tp4949
Rp4950
ag2
(g6
S'\x0b\xd5\x11;'
p4951
tp4952
Rp4953
ag2
(g6
S'\x13\xf6\x85:'
p4954
tp4955
Rp4956
ag2
(g6
S'\x97\x82b;'
p4957
tp4958
Rp4959
ag2
(g6
S'\x7f^8;'
p4960
tp4961
Rp4962
ag2
(g6
S'\x18O\xc3;'
p4963
tp4964
Rp4965
ag2
(g6
S'`\xe9H9'
p4966
tp4967
Rp4968
ag2
(g6
S'p\x98Q;'
p4969
tp4970
Rp4971
ag2
(g6
S'\xdb\x9cq:'
p4972
tp4973
Rp4974
ag2
(g6
S'7`\x0f;'
p4975
tp4976
Rp4977
ag2
(g6
S'\x1c;\x81<'
p4978
tp4979
Rp4980
ag2
(g6
S'\x9b\xe9w@'
p4981
tp4982
Rp4983
ag2
(g6
S'=h\xfd;'
p4984
tp4985
Rp4986
ag2
(g6
S'yg\x82:'
p4987
tp4988
Rp4989
ag2
(g6
S'\xcf\xaf\x14;'
p4990
tp4991
Rp4992
ag2
(g6
S'\xb5V\x1a;'
p4993
tp4994
Rp4995
aa(lp4996
g2
(g6
S'x\xf5\xed9'
p4997
tp4998
Rp4999
ag2
(g6
S'(\xf2\x8c9'
p5000
tp5001
Rp5002
ag2
(g6
S';\xf6\xbc9'
p5003
tp5004
Rp5005
ag2
(g6
S'\xd3\x15\x03;'
p5006
tp5007
Rp5008
ag2
(g6
S'\x00Xx9'
p5009
tp5010
Rp5011
ag2
(g6
S'<V\xe2:'
p5012
tp5013
Rp5014
ag2
(g6
S'\x0b\xcd\x8c:'
p5015
tp5016
Rp5017
ag2
(g6
S'I1#;'
p5018
tp5019
Rp5020
ag2
(g6
S'lm\x83;'
p5021
tp5022
Rp5023
ag2
(g6
S'g\xc5-<'
p5024
tp5025
Rp5026
ag2
(g6
S'O:F;'
p5027
tp5028
Rp5029
ag2
(g6
S'\xf7\x84\xb8:'
p5030
tp5031
Rp5032
ag2
(g6
S'\xcb\xf5\xe9;'
p5033
tp5034
Rp5035
ag2
(g6
S'Ypm@'
p5036
tp5037
Rp5038
ag2
(g6
S'K\xf6P@'
p5039
tp5040
Rp5041
ag2
(g6
S'h\xf1@>'
p5042
tp5043
Rp5044
ag2
(g6
S'\xd9\xc6\xccB'
p5045
tp5046
Rp5047
aa(lp5048
g2
(g6
S'\x97\x07\x7f;'
p5049
tp5050
Rp5051
ag2
(g6
S'\xe5\xe9\x87;'
p5052
tp5053
Rp5054
ag2
(g6
S'\xe1m\xce;'
p5055
tp5056
Rp5057
ag2
(g6
S'\x9b,\xde;'
p5058
tp5059
Rp5060
ag2
(g6
S'w\x84\xeb:'
p5061
tp5062
Rp5063
ag2
(g6
S'mq\xa4:'
p5064
tp5065
Rp5066
ag2
(g6
S'\x08od;'
p5067
tp5068
Rp5069
ag2
(g6
S'\x02j)9'
p5070
tp5071
Rp5072
ag2
(g6
S'\xb8mC;'
p5073
tp5074
Rp5075
ag2
(g6
S'h\xc2\r;'
p5076
tp5077
Rp5078
ag2
(g6
S'\xc0\xe4\x89;'
p5079
tp5080
Rp5081
ag2
(g6
S'\xc1\xc5z;'
p5082
tp5083
Rp5084
ag2
(g6
S'\xec\x8f\x85:'
p5085
tp5086
Rp5087
ag2
(g6
S'M\x81\xd3:'
p5088
tp5089
Rp5090
ag2
(g6
S'\x08-H:'
p5091
tp5092
Rp5093
ag2
(g6
S'\x1dc\x8a:'
p5094
tp5095
Rp5096
ag2
(g6
S'\x95?\xe6:'
p5097
tp5098
Rp5099
ag2
(g6
S'\xf1l\xbb;'
p5100
tp5101
Rp5102
ag2
(g6
S'K\xd5+;'
p5103
tp5104
Rp5105
ag2
(g6
S'x\x1a\xc1:'
p5106
tp5107
Rp5108
ag2
(g6
S'\xc1h7<'
p5109
tp5110
Rp5111
ag2
(g6
S']\xc5\x91:'
p5112
tp5113
Rp5114
ag2
(g6
S'5\xaaT;'
p5115
tp5116
Rp5117
ag2
(g6
S';\x8f\x118'
p5118
tp5119
Rp5120
ag2
(g6
S'\x87\xb0\x03;'
p5121
tp5122
Rp5123
ag2
(g6
S'e\x9a\xcd;'
p5124
tp5125
Rp5126
ag2
(g6
S'\xa5\xd9k;'
p5127
tp5128
Rp5129
ag2
(g6
S'C\xb5y;'
p5130
tp5131
Rp5132
ag2
(g6
S'\x99\x12\xa7;'
p5133
tp5134
Rp5135
ag2
(g6
S'\x03V\xfc5'
p5136
tp5137
Rp5138
ag2
(g6
S'\xc9)J9'
p5139
tp5140
Rp5141
ag2
(g6
S'\xf7UE:'
p5142
tp5143
Rp5144
ag2
(g6
S'RU\x00;'
p5145
tp5146
Rp5147
ag2
(g6
S'xJ\xe49'
p5148
tp5149
Rp5150
ag2
(g6
S'm\r\\;'
p5151
tp5152
Rp5153
ag2
(g6
S'\xb7A\x80;'
p5154
tp5155
Rp5156
aa(lp5157
g2
(g6
S'\xbc\xaa\r;'
p5158
tp5159
Rp5160
ag2
(g6
S'\xe0\xad6:'
p5161
tp5162
Rp5163
ag2
(g6
S'\x0f\xc9\xc0:'
p5164
tp5165
Rp5166
ag2
(g6
S'Q\xbf\x03:'
p5167
tp5168
Rp5169
ag2
(g6
S'5\xc1\xdb:'
p5170
tp5171
Rp5172
ag2
(g6
S'\x87\x87\x1c:'
p5173
tp5174
Rp5175
ag2
(g6
S'\xa97&:'
p5176
tp5177
Rp5178
ag2
(g6
S'(YC:'
p5179
tp5180
Rp5181
ag2
(g6
S'\x15+\x86;'
p5182
tp5183
Rp5184
ag2
(g6
S'IL\xd19'
p5185
tp5186
Rp5187
ag2
(g6
S'%v\xd4:'
p5188
tp5189
Rp5190
ag2
(g6
S'\xecP\x05;'
p5191
tp5192
Rp5193
ag2
(g6
S'\x95\xb9\xfb;'
p5194
tp5195
Rp5196
ag2
(g6
S'\xf3LE:'
p5197
tp5198
Rp5199
ag2
(g6
S'\xa7|\xa59'
p5200
tp5201
Rp5202
ag2
(g6
S'\xf7\x0c\x8e;'
p5203
tp5204
Rp5205
ag2
(g6
S'9\xbf3;'
p5206
tp5207
Rp5208
ag2
(g6
S'\xa6\xc8\x9d;'
p5209
tp5210
Rp5211
ag2
(g6
S'ue\x00<'
p5212
tp5213
Rp5214
ag2
(g6
S'\xb7\xf64<'
p5215
tp5216
Rp5217
ag2
(g6
S'\xa2$\x8d:'
p5218
tp5219
Rp5220
ag2
(g6
S'\x00\xd7\x93;'
p5221
tp5222
Rp5223
ag2
(g6
S'\xf9!\x9b<'
p5224
tp5225
Rp5226
ag2
(g6
S'\x18\xc2L='
p5227
tp5228
Rp5229
ag2
(g6
S'W\xa3\x19;'
p5230
tp5231
Rp5232
ag2
(g6
S'[k\xf2:'
p5233
tp5234
Rp5235
ag2
(g6
S'hB\x15:'
p5236
tp5237
Rp5238
ag2
(g6
S';\x06f:'
p5239
tp5240
Rp5241
ag2
(g6
S'pnL:'
p5242
tp5243
Rp5244
ag2
(g6
S'!\x1a\x00:'
p5245
tp5246
Rp5247
ag2
(g6
S'\xf1\x0b\x13;'
p5248
tp5249
Rp5250
ag2
(g6
S'\xa7\xf0i:'
p5251
tp5252
Rp5253
ag2
(g6
S'\x9d\xdc7:'
p5254
tp5255
Rp5256
ag2
(g6
S'\xb4y\xc5:'
p5257
tp5258
Rp5259
ag2
(g6
S'\xfc-\x87;'
p5260
tp5261
Rp5262
ag2
(g6
S'\xd7HA<'
p5263
tp5264
Rp5265
aa(lp5266
g2
(g6
S'\xfd\xd1\x87;'
p5267
tp5268
Rp5269
ag2
(g6
S'\xcd7\x04;'
p5270
tp5271
Rp5272
ag2
(g6
S'\xc5\xbbP;'
p5273
tp5274
Rp5275
ag2
(g6
S'\x9c\x9a\xb9;'
p5276
tp5277
Rp5278
ag2
(g6
S'/\x13\x13<'
p5279
tp5280
Rp5281
ag2
(g6
S'\xdb\xb0\x1b<'
p5282
tp5283
Rp5284
ag2
(g6
S'\xac59<'
p5285
tp5286
Rp5287
ag2
(g6
S'g\x11\xe2;'
p5288
tp5289
Rp5290
ag2
(g6
S'\x98p\xd2;'
p5291
tp5292
Rp5293
ag2
(g6
S'Ao\xe7;'
p5294
tp5295
Rp5296
ag2
(g6
S'\xb1q\x1c<'
p5297
tp5298
Rp5299
ag2
(g6
S'\xed\xd4\t;'
p5300
tp5301
Rp5302
ag2
(g6
S'\xff"\x03;'
p5303
tp5304
Rp5305
ag2
(g6
S'M\x05\xe1:'
p5306
tp5307
Rp5308
ag2
(g6
S'\x11s\xde:'
p5309
tp5310
Rp5311
ag2
(g6
S'\xb5\xfaP9'
p5312
tp5313
Rp5314
ag2
(g6
S'\x85\xde\x8e:'
p5315
tp5316
Rp5317
ag2
(g6
S'\xcaA\x83<'
p5318
tp5319
Rp5320
ag2
(g6
S'\x84\xf6\xd1;'
p5321
tp5322
Rp5323
ag2
(g6
S'a\x15~;'
p5324
tp5325
Rp5326
ag2
(g6
S'\xbd\t\xfc;'
p5327
tp5328
Rp5329
ag2
(g6
S'{\x0f\xfd;'
p5330
tp5331
Rp5332
ag2
(g6
S'-\x98\x0c;'
p5333
tp5334
Rp5335
ag2
(g6
S'\x7f\xee\xad:'
p5336
tp5337
Rp5338
ag2
(g6
S'\x9bbi:'
p5339
tp5340
Rp5341
ag2
(g6
S'\xd5\x0bs<'
p5342
tp5343
Rp5344
ag2
(g6
S'\x1b~\xc3<'
p5345
tp5346
Rp5347
ag2
(g6
S'\xab\xf5n;'
p5348
tp5349
Rp5350
ag2
(g6
S'\xd8\xfa\xf5:'
p5351
tp5352
Rp5353
ag2
(g6
S'\x88\xd4\xd2:'
p5354
tp5355
Rp5356
ag2
(g6
S'G\xaa+9'
p5357
tp5358
Rp5359
ag2
(g6
S'{J\x9c;'
p5360
tp5361
Rp5362
ag2
(g6
S'\x9d\x8e\xef;'
p5363
tp5364
Rp5365
ag2
(g6
S'\xbf\xe8\\<'
p5366
tp5367
Rp5368
ag2
(g6
S'\x8dT\x1c<'
p5369
tp5370
Rp5371
ag2
(g6
S'\xe9/\x87;'
p5372
tp5373
Rp5374
aa(lp5375
g2
(g6
S'\x11O\x88;'
p5376
tp5377
Rp5378
ag2
(g6
S'[o\xba;'
p5379
tp5380
Rp5381
ag2
(g6
S'z\xdb\x86:'
p5382
tp5383
Rp5384
ag2
(g6
S'7\x9e\x9c;'
p5385
tp5386
Rp5387
ag2
(g6
S'I\xd7c;'
p5388
tp5389
Rp5390
ag2
(g6
S'\x8d\xa26<'
p5391
tp5392
Rp5393
ag2
(g6
S'\xd0T\xc9<'
p5394
tp5395
Rp5396
ag2
(g6
S'\xc9\xd1E:'
p5397
tp5398
Rp5399
ag2
(g6
S'\xc0\xee\xe2;'
p5400
tp5401
Rp5402
ag2
(g6
S'\xdf\xe1\x83;'
p5403
tp5404
Rp5405
ag2
(g6
S't]\xec;'
p5406
tp5407
Rp5408
ag2
(g6
S'w\x19\xe2<'
p5409
tp5410
Rp5411
ag2
(g6
S'\xf7.\n<'
p5412
tp5413
Rp5414
ag2
(g6
S'\x83\x16\xe5:'
p5415
tp5416
Rp5417
ag2
(g6
S'\xa0\x1c{;'
p5418
tp5419
Rp5420
ag2
(g6
S'K\xfbS:'
p5421
tp5422
Rp5423
ag2
(g6
S'\xa1\x1b\x06;'
p5424
tp5425
Rp5426
ag2
(g6
S'\xc0Vf:'
p5427
tp5428
Rp5429
ag2
(g6
S'\x1b\xce\xe5:'
p5430
tp5431
Rp5432
ag2
(g6
S'H\x07-;'
p5433
tp5434
Rp5435
ag2
(g6
S'!\xaa\x97:'
p5436
tp5437
Rp5438
ag2
(g6
S'\x85e\x8f:'
p5439
tp5440
Rp5441
ag2
(g6
S'748;'
p5442
tp5443
Rp5444
ag2
(g6
S'4J\xdc;'
p5445
tp5446
Rp5447
ag2
(g6
S']<\x88<'
p5448
tp5449
Rp5450
ag2
(g6
S'uk\xd4<'
p5451
tp5452
Rp5453
ag2
(g6
S'U\xc9\xa5<'
p5454
tp5455
Rp5456
ag2
(g6
S'\x8d\xcf\xd3;'
p5457
tp5458
Rp5459
ag2
(g6
S'\x94m-;'
p5460
tp5461
Rp5462
ag2
(g6
S'\x13\x90\xd6;'
p5463
tp5464
Rp5465
ag2
(g6
S'`\xffJ;'
p5466
tp5467
Rp5468
ag2
(g6
S'aw=;'
p5469
tp5470
Rp5471
ag2
(g6
S'X(c;'
p5472
tp5473
Rp5474
ag2
(g6
S'\x98\xf3c;'
p5475
tp5476
Rp5477
ag2
(g6
S'\x11*$;'
p5478
tp5479
Rp5480
ag2
(g6
S'\xe8\xdeO;'
p5481
tp5482
Rp5483
aa(lp5484
g2
(g6
S'\xfd\x96\n<'
p5485
tp5486
Rp5487
ag2
(g6
S'\xfb<\x8c;'
p5488
tp5489
Rp5490
ag2
(g6
S'Y\xc7\x12;'
p5491
tp5492
Rp5493
ag2
(g6
S'C\x0c\xa9:'
p5494
tp5495
Rp5496
ag2
(g6
S'\x15\xfb\xb6:'
p5497
tp5498
Rp5499
ag2
(g6
S'H ";'
p5500
tp5501
Rp5502
ag2
(g6
S'\xd4\xf0\\:'
p5503
tp5504
Rp5505
ag2
(g6
S'\x93X\xc2;'
p5506
tp5507
Rp5508
ag2
(g6
S'!\xce*:'
p5509
tp5510
Rp5511
ag2
(g6
S'\xd9-\xc7:'
p5512
tp5513
Rp5514
ag2
(g6
S'\x9d?/<'
p5515
tp5516
Rp5517
ag2
(g6
S'\xa1\xbb%='
p5518
tp5519
Rp5520
ag2
(g6
S'\xabY_@'
p5521
tp5522
Rp5523
ag2
(g6
S'8\x9cl@'
p5524
tp5525
Rp5526
ag2
(g6
S'8\xbbj@'
p5527
tp5528
Rp5529
ag2
(g6
S'K\x05(='
p5530
tp5531
Rp5532
ag2
(g6
S'D\x9e\x98;'
p5533
tp5534
Rp5535
ag2
(g6
S'\xe3TL='
p5536
tp5537
Rp5538
ag2
(g6
S']\x7f\x1d<'
p5539
tp5540
Rp5541
ag2
(g6
S'\xc1\xf3m:'
p5542
tp5543
Rp5544
ag2
(g6
S'S.\xdf;'
p5545
tp5546
Rp5547
ag2
(g6
S'\x85\xb9\xdb9'
p5548
tp5549
Rp5550
ag2
(g6
S'+\x84\xcc;'
p5551
tp5552
Rp5553
ag2
(g6
S'\x8f\t\xbc<'
p5554
tp5555
Rp5556
ag2
(g6
S'\xf9\xac\x17;'
p5557
tp5558
Rp5559
ag2
(g6
S'\xdd\xc6\xa7<'
p5560
tp5561
Rp5562
ag2
(g6
S'\x85\x10\xd8;'
p5563
tp5564
Rp5565
ag2
(g6
S'/yi@'
p5566
tp5567
Rp5568
ag2
(g6
S'\xa9\\\x0c='
p5569
tp5570
Rp5571
ag2
(g6
S'\x1b\x17\x9e:'
p5572
tp5573
Rp5574
ag2
(g6
S'\x15\x9a\x1e='
p5575
tp5576
Rp5577
ag2
(g6
S'\x106\xfd:'
p5578
tp5579
Rp5580
ag2
(g6
S's\x82|<'
p5581
tp5582
Rp5583
ag2
(g6
S'\xf8M\xf49'
p5584
tp5585
Rp5586
ag2
(g6
S'\x8b\xf0w<'
p5587
tp5588
Rp5589
ag2
(g6
S'\x17\xff\xc2<'
p5590
tp5591
Rp5592
aa(lp5593
g2
(g6
S'\x84\x97\xe0;'
p5594
tp5595
Rp5596
ag2
(g6
S'7\n\x87;'
p5597
tp5598
Rp5599
ag2
(g6
S'\xeb\xbe\x1f:'
p5600
tp5601
Rp5602
ag2
(g6
S'so\t:'
p5603
tp5604
Rp5605
ag2
(g6
S'\x8d\xc7\xad;'
p5606
tp5607
Rp5608
ag2
(g6
S'x[\xab;'
p5609
tp5610
Rp5611
ag2
(g6
S'\rS\xfd;'
p5612
tp5613
Rp5614
ag2
(g6
S'\xf9\xda\xa7;'
p5615
tp5616
Rp5617
ag2
(g6
S'C\x08\xaa:'
p5618
tp5619
Rp5620
ag2
(g6
S'\x98\x1c\xca;'
p5621
tp5622
Rp5623
ag2
(g6
S'\x10\x12\x15<'
p5624
tp5625
Rp5626
ag2
(g6
S'\xd4DG<'
p5627
tp5628
Rp5629
ag2
(g6
S'\x04\xf7\xd8<'
p5630
tp5631
Rp5632
ag2
(g6
S'\r\xc3(;'
p5633
tp5634
Rp5635
ag2
(g6
S's\x90-<'
p5636
tp5637
Rp5638
ag2
(g6
S'\xd8\xc4\xbb:'
p5639
tp5640
Rp5641
ag2
(g6
S'D\xbbL;'
p5642
tp5643
Rp5644
ag2
(g6
S'O\xdb\x159'
p5645
tp5646
Rp5647
ag2
(g6
S')\xc1\xe68'
p5648
tp5649
Rp5650
ag2
(g6
S'0\xde\x80:'
p5651
tp5652
Rp5653
ag2
(g6
S'\x953\xe0;'
p5654
tp5655
Rp5656
ag2
(g6
S'\xd9\x04J;'
p5657
tp5658
Rp5659
ag2
(g6
S'\xc4_n<'
p5660
tp5661
Rp5662
ag2
(g6
S'ek\x88<'
p5663
tp5664
Rp5665
ag2
(g6
S'=\x12P;'
p5666
tp5667
Rp5668
ag2
(g6
S'\x97G\x16:'
p5669
tp5670
Rp5671
ag2
(g6
S'\x85\x0c\x99:'
p5672
tp5673
Rp5674
ag2
(g6
S'\xbf\x81\x19<'
p5675
tp5676
Rp5677
ag2
(g6
S'\xbcKU:'
p5678
tp5679
Rp5680
ag2
(g6
S'\xd1\xc8K:'
p5681
tp5682
Rp5683
ag2
(g6
S'\x14.\x8a:'
p5684
tp5685
Rp5686
ag2
(g6
S'\xf4\xe8*:'
p5687
tp5688
Rp5689
ag2
(g6
S'g\xc9\x959'
p5690
tp5691
Rp5692
ag2
(g6
S'\xf0r\xfc9'
p5693
tp5694
Rp5695
ag2
(g6
S'\xfb\xa1\xbd9'
p5696
tp5697
Rp5698
ag2
(g6
S'\x07#\xfd9'
p5699
tp5700
Rp5701
aa(lp5702
g2
(g6
S'\xc1\xe6,:'
p5703
tp5704
Rp5705
ag2
(g6
S'[]\xc5:'
p5706
tp5707
Rp5708
ag2
(g6
S'\x13\xbc\x9d:'
p5709
tp5710
Rp5711
ag2
(g6
S'\xdf\xbb\x18;'
p5712
tp5713
Rp5714
ag2
(g6
S'/"[;'
p5715
tp5716
Rp5717
ag2
(g6
S'g\x02\x8c;'
p5718
tp5719
Rp5720
ag2
(g6
S'\x9c\xb0\x19<'
p5721
tp5722
Rp5723
ag2
(g6
S'\xb8\xbe\x00='
p5724
tp5725
Rp5726
ag2
(g6
S'\xa1\x19\xe1;'
p5727
tp5728
Rp5729
ag2
(g6
S'\x1b:\xb7<'
p5730
tp5731
Rp5732
ag2
(g6
S'\x01\x98\x98<'
p5733
tp5734
Rp5735
ag2
(g6
S'\xc8\x95\xa0;'
p5736
tp5737
Rp5738
ag2
(g6
S'\xff\x9b\xf5:'
p5739
tp5740
Rp5741
ag2
(g6
S'\x11\xae\n;'
p5742
tp5743
Rp5744
ag2
(g6
S'Sb\xd7;'
p5745
tp5746
Rp5747
ag2
(g6
S'\xb7\x00\xa5<'
p5748
tp5749
Rp5750
ag2
(g6
S'\x85|\xda;'
p5751
tp5752
Rp5753
ag2
(g6
S'@*M<'
p5754
tp5755
Rp5756
ag2
(g6
S'7e\x8a<'
p5757
tp5758
Rp5759
ag2
(g6
S'\x8b\xbc\xd3;'
p5760
tp5761
Rp5762
ag2
(g6
S'k\xa8\x80<'
p5763
tp5764
Rp5765
ag2
(g6
S'\xf9\xa0O<'
p5766
tp5767
Rp5768
ag2
(g6
S'\x8cS\x86;'
p5769
tp5770
Rp5771
ag2
(g6
S'+~2;'
p5772
tp5773
Rp5774
ag2
(g6
S'U\xbc\x7f;'
p5775
tp5776
Rp5777
ag2
(g6
S'h\x1d\xcd;'
p5778
tp5779
Rp5780
ag2
(g6
S'Q\xb4\x98;'
p5781
tp5782
Rp5783
ag2
(g6
S',%\x0f<'
p5784
tp5785
Rp5786
ag2
(g6
S'\\\xadX<'
p5787
tp5788
Rp5789
ag2
(g6
S'<\xa3::'
p5790
tp5791
Rp5792
ag2
(g6
S'\xa7\xca\x90;'
p5793
tp5794
Rp5795
ag2
(g6
S'd\xeb\xe5:'
p5796
tp5797
Rp5798
ag2
(g6
S'q\xfb\xa4:'
p5799
tp5800
Rp5801
ag2
(g6
S'\xdf\x05\x02;'
p5802
tp5803
Rp5804
ag2
(g6
S'\xd2S\xa2;'
p5805
tp5806
Rp5807
ag2
(g6
S'\xd9\x1e\x0b<'
p5808
tp5809
Rp5810
aa(lp5811
g2
(g6
S'#\xa0S<'
p5812
tp5813
Rp5814
ag2
(g6
S'H\x04\xfa;'
p5815
tp5816
Rp5817
ag2
(g6
S'\x05\x9eP:'
p5818
tp5819
Rp5820
ag2
(g6
S'\t\xaf\x8b:'
p5821
tp5822
Rp5823
ag2
(g6
S'pZy;'
p5824
tp5825
Rp5826
ag2
(g6
S'\x83\xe0\x01:'
p5827
tp5828
Rp5829
ag2
(g6
S'\xb1r\x8a;'
p5830
tp5831
Rp5832
ag2
(g6
S'Da\x80:'
p5833
tp5834
Rp5835
ag2
(g6
S'A\xc7~;'
p5836
tp5837
Rp5838
ag2
(g6
S'\x98\x13\xde;'
p5839
tp5840
Rp5841
ag2
(g6
S'\xcf8x;'
p5842
tp5843
Rp5844
ag2
(g6
S'y\x10\x13;'
p5845
tp5846
Rp5847
ag2
(g6
S'o\x8d`:'
p5848
tp5849
Rp5850
ag2
(g6
S'\x9c)\xc3:'
p5851
tp5852
Rp5853
ag2
(g6
S'\xe9"\xef9'
p5854
tp5855
Rp5856
ag2
(g6
S'\xb5\xbd\n;'
p5857
tp5858
Rp5859
ag2
(g6
S'\xf3\x14\x1e<'
p5860
tp5861
Rp5862
ag2
(g6
S'\xcf\xc6\x98;'
p5863
tp5864
Rp5865
ag2
(g6
S'\xecM\x14<'
p5866
tp5867
Rp5868
ag2
(g6
S'-\x9c\x96<'
p5869
tp5870
Rp5871
ag2
(g6
S'\x87K\x00<'
p5872
tp5873
Rp5874
ag2
(g6
S'\xbb\xc2\xf2;'
p5875
tp5876
Rp5877
ag2
(g6
S'\xebT\x0c<'
p5878
tp5879
Rp5880
ag2
(g6
S'\x87\x01\xe6;'
p5881
tp5882
Rp5883
ag2
(g6
S'L\xe4\x9b;'
p5884
tp5885
Rp5886
ag2
(g6
S'T\xe2\xee:'
p5887
tp5888
Rp5889
ag2
(g6
S')\x13\x9c;'
p5890
tp5891
Rp5892
ag2
(g6
S'\xd0\xc5\x8b;'
p5893
tp5894
Rp5895
ag2
(g6
S'\x01\xc7)='
p5896
tp5897
Rp5898
ag2
(g6
S'ql*;'
p5899
tp5900
Rp5901
ag2
(g6
S'\x01o\xdf:'
p5902
tp5903
Rp5904
ag2
(g6
S'DF\xb0:'
p5905
tp5906
Rp5907
ag2
(g6
S'8Yr:'
p5908
tp5909
Rp5910
ag2
(g6
S'\xd7\x13\xac;'
p5911
tp5912
Rp5913
ag2
(g6
S'k\x08\xf8;'
p5914
tp5915
Rp5916
ag2
(g6
S'\x91\xb1e@'
p5917
tp5918
Rp5919
aa(lp5920
g2
(g6
S'\xef\xcf\xa9<'
p5921
tp5922
Rp5923
ag2
(g6
S'\xe8\xdf\xbd:'
p5924
tp5925
Rp5926
ag2
(g6
S'\x8c\x84\x07:'
p5927
tp5928
Rp5929
ag2
(g6
S'\xdfM\xce9'
p5930
tp5931
Rp5932
ag2
(g6
S'\xfbD\x0f:'
p5933
tp5934
Rp5935
ag2
(g6
S'K\xcbY7'
p5936
tp5937
Rp5938
ag2
(g6
S'8n\x99:'
p5939
tp5940
Rp5941
ag2
(g6
S'\x18\xbbF:'
p5942
tp5943
Rp5944
ag2
(g6
S'\xb1\xf2L:'
p5945
tp5946
Rp5947
ag2
(g6
S'\xc8q?9'
p5948
tp5949
Rp5950
ag2
(g6
S'\xc9U\x129'
p5951
tp5952
Rp5953
ag2
(g6
S'\xad\x96\x9f:'
p5954
tp5955
Rp5956
ag2
(g6
S'\xe1!\x86:'
p5957
tp5958
Rp5959
ag2
(g6
S'\xd55\xe4;'
p5960
tp5961
Rp5962
ag2
(g6
S'\x81\xf8\x8d:'
p5963
tp5964
Rp5965
ag2
(g6
S'\xf3\x12\xc4:'
p5966
tp5967
Rp5968
ag2
(g6
S'K~89'
p5969
tp5970
Rp5971
ag2
(g6
S'\x07\xf9\xce:'
p5972
tp5973
Rp5974
ag2
(g6
S'\x88\xb2\xee9'
p5975
tp5976
Rp5977
ag2
(g6
S'\xe7P\x18:'
p5978
tp5979
Rp5980
ag2
(g6
S'|B\x1c8'
p5981
tp5982
Rp5983
ag2
(g6
S'Q\xc8\x94;'
p5984
tp5985
Rp5986
ag2
(g6
S'\xbe\xc6\x9c:'
p5987
tp5988
Rp5989
ag2
(g6
S'\xd5a\xe2;'
p5990
tp5991
Rp5992
ag2
(g6
S'\xa0Gl<'
p5993
tp5994
Rp5995
ag2
(g6
S'\xe5\xe2\x84='
p5996
tp5997
Rp5998
ag2
(g6
S'!\xfd\x0e='
p5999
tp6000
Rp6001
ag2
(g6
S'\xc8;\x9b;'
p6002
tp6003
Rp6004
ag2
(g6
S'6\xd0\xa6<'
p6005
tp6006
Rp6007
ag2
(g6
S'\xbf\x8a\xaf<'
p6008
tp6009
Rp6010
ag2
(g6
S'Xn\xd8<'
p6011
tp6012
Rp6013
ag2
(g6
S'd\xebu@'
p6014
tp6015
Rp6016
ag2
(g6
S'ID\xb1='
p6017
tp6018
Rp6019
ag2
(g6
S'C=:;'
p6020
tp6021
Rp6022
ag2
(g6
S'4\xe80:'
p6023
tp6024
Rp6025
ag2
(g6
S'\x17\xe3.<'
p6026
tp6027
Rp6028
aa(lp6029
g2
(g6
S'\x08\xe0\x0c<'
p6030
tp6031
Rp6032
ag2
(g6
S'\x89\xc6Z:'
p6033
tp6034
Rp6035
ag2
(g6
S'\xb9\xf6\x06:'
p6036
tp6037
Rp6038
ag2
(g6
S'\xef\xaa\xe99'
p6039
tp6040
Rp6041
ag2
(g6
S'`h\xfd9'
p6042
tp6043
Rp6044
ag2
(g6
S"\xba@':"
p6045
tp6046
Rp6047
ag2
(g6
S'}\xcb\xd1:'
p6048
tp6049
Rp6050
ag2
(g6
S';\xdb\xe87'
p6051
tp6052
Rp6053
ag2
(g6
S'p\xf82:'
p6054
tp6055
Rp6056
ag2
(g6
S'\xcc\x9e?;'
p6057
tp6058
Rp6059
ag2
(g6
S'[\xc69;'
p6060
tp6061
Rp6062
ag2
(g6
S'l\xa8/9'
p6063
tp6064
Rp6065
ag2
(g6
S'=\x07i:'
p6066
tp6067
Rp6068
ag2
(g6
S']\xf6L:'
p6069
tp6070
Rp6071
ag2
(g6
S'\x07g\n:'
p6072
tp6073
Rp6074
ag2
(g6
S' &\xc7;'
p6075
tp6076
Rp6077
ag2
(g6
S's\x02\x02<'
p6078
tp6079
Rp6080
ag2
(g6
S'\x0b\x89\xa2<'
p6081
tp6082
Rp6083
ag2
(g6
S'\x9b\xf1s@'
p6084
tp6085
Rp6086
ag2
(g6
S'\xe3\x9f6='
p6087
tp6088
Rp6089
ag2
(g6
S'\xc1<\xcbB'
p6090
tp6091
Rp6092
aa(lp6093
g2
(g6
S'o\x9d\xb1<'
p6094
tp6095
Rp6096
ag2
(g6
S'\xa8\x99\xf3;'
p6097
tp6098
Rp6099
ag2
(g6
S'c\x1d\xcc;'
p6100
tp6101
Rp6102
ag2
(g6
S'\xc0S\xa2;'
p6103
tp6104
Rp6105
ag2
(g6
S'?\xcf=;'
p6106
tp6107
Rp6108
ag2
(g6
S'\x80\x13W:'
p6109
tp6110
Rp6111
ag2
(g6
S'\xb0\xda\xc4;'
p6112
tp6113
Rp6114
ag2
(g6
S'I\xd2i@'
p6115
tp6116
Rp6117
ag2
(g6
S'\x08\xacn@'
p6118
tp6119
Rp6120
ag2
(g6
S'\xa0\xf8\xa5<'
p6121
tp6122
Rp6123
ag2
(g6
S'\xcf,#<'
p6124
tp6125
Rp6126
ag2
(g6
S'\xa3%w@'
p6127
tp6128
Rp6129
ag2
(g6
S'\xa5\x80h='
p6130
tp6131
Rp6132
ag2
(g6
S'\x13\n\x0f='
p6133
tp6134
Rp6135
ag2
(g6
S'a\xd1\xb7='
p6136
tp6137
Rp6138
ag2
(g6
S'\xb5\x1f\x9a;'
p6139
tp6140
Rp6141
ag2
(g6
S'p\xf80;'
p6142
tp6143
Rp6144
ag2
(g6
S'O\x92\x90<'
p6145
tp6146
Rp6147
ag2
(g6
S'7\x1e&:'
p6148
tp6149
Rp6150
ag2
(g6
S'\xb5\x1fw@'
p6151
tp6152
Rp6153
ag2
(g6
S'\xc8Pl@'
p6154
tp6155
Rp6156
ag2
(g6
S'\x11z5>'
p6157
tp6158
Rp6159
ag2
(g6
S'\xb8\xc9)='
p6160
tp6161
Rp6162
ag2
(g6
S'\x1b\xe4\t='
p6163
tp6164
Rp6165
ag2
(g6
S'PL\xa3<'
p6166
tp6167
Rp6168
ag2
(g6
S'\x139#='
p6169
tp6170
Rp6171
ag2
(g6
S'\\\xe5v;'
p6172
tp6173
Rp6174
ag2
(g6
S'\xe4\rQ<'
p6175
tp6176
Rp6177
ag2
(g6
S'{G\xba;'
p6178
tp6179
Rp6180
ag2
(g6
S'\x98\xbev@'
p6181
tp6182
Rp6183
ag2
(g6
S'\xa0g\xcb='
p6184
tp6185
Rp6186
ag2
(g6
S'\xc1W\x03<'
p6187
tp6188
Rp6189
ag2
(g6
S'\x97\x12R<'
p6190
tp6191
Rp6192
ag2
(g6
S'_;\x86;'
p6193
tp6194
Rp6195
ag2
(g6
S'T\nU;'
p6196
tp6197
Rp6198
ag2
(g6
S'X\xc5&<'
p6199
tp6200
Rp6201
aa(lp6202
g2
(g6
S'\xef\x88f<'
p6203
tp6204
Rp6205
ag2
(g6
S'\xebA\xba;'
p6206
tp6207
Rp6208
ag2
(g6
S'\xff\x94\xf0:'
p6209
tp6210
Rp6211
ag2
(g6
S'\x14;6<'
p6212
tp6213
Rp6214
ag2
(g6
S'\x9f^\x05;'
p6215
tp6216
Rp6217
ag2
(g6
S'\xc0\xa7]<'
p6218
tp6219
Rp6220
ag2
(g6
S'/\x97\x19;'
p6221
tp6222
Rp6223
ag2
(g6
S'\xc0\xc9+;'
p6224
tp6225
Rp6226
ag2
(g6
S'o\xc9\x0f;'
p6227
tp6228
Rp6229
ag2
(g6
S'\x85>\xbb;'
p6230
tp6231
Rp6232
ag2
(g6
S'w\x1c9<'
p6233
tp6234
Rp6235
ag2
(g6
S'$\x11\xb2;'
p6236
tp6237
Rp6238
ag2
(g6
S'\x81\xa2\x19;'
p6239
tp6240
Rp6241
ag2
(g6
S'\x89L\xd4:'
p6242
tp6243
Rp6244
ag2
(g6
S'\x85\xf5\xd3;'
p6245
tp6246
Rp6247
ag2
(g6
S',\xffg:'
p6248
tp6249
Rp6250
ag2
(g6
S"\x08\x11';"
p6251
tp6252
Rp6253
ag2
(g6
S'\x04\x19F:'
p6254
tp6255
Rp6256
ag2
(g6
S'M\xdc\x84:'
p6257
tp6258
Rp6259
ag2
(g6
S'\x1b\x19\x93:'
p6260
tp6261
Rp6262
ag2
(g6
S'g\x9f\xcb:'
p6263
tp6264
Rp6265
ag2
(g6
S'\xc1\xef\xc99'
p6266
tp6267
Rp6268
ag2
(g6
S'\xe2\xb5\x04:'
p6269
tp6270
Rp6271
ag2
(g6
S'\xc3\xde\x9d;'
p6272
tp6273
Rp6274
ag2
(g6
S'\xe1!\x8c;'
p6275
tp6276
Rp6277
ag2
(g6
S'P\r\xa79'
p6278
tp6279
Rp6280
ag2
(g6
S'W\x0b\xb0:'
p6281
tp6282
Rp6283
ag2
(g6
S' \xe7\xeb9'
p6284
tp6285
Rp6286
ag2
(g6
S'E\xe4\x1f;'
p6287
tp6288
Rp6289
ag2
(g6
S'\xd0x\xbd;'
p6290
tp6291
Rp6292
ag2
(g6
S'\x90fB9'
p6293
tp6294
Rp6295
ag2
(g6
S'LK\xb3:'
p6296
tp6297
Rp6298
ag2
(g6
S'\x01\xdeu;'
p6299
tp6300
Rp6301
ag2
(g6
S'H.M<'
p6302
tp6303
Rp6304
ag2
(g6
S'\t\x186;'
p6305
tp6306
Rp6307
ag2
(g6
S'\xc0\xc4^;'
p6308
tp6309
Rp6310
aa(lp6311
g2
(g6
S'\xa4\xe3M;'
p6312
tp6313
Rp6314
ag2
(g6
S'-\xd0A;'
p6315
tp6316
Rp6317
ag2
(g6
S'\xed~\x00;'
p6318
tp6319
Rp6320
ag2
(g6
S't\xd5\x9d:'
p6321
tp6322
Rp6323
ag2
(g6
S'\xf9\xe0\x85:'
p6324
tp6325
Rp6326
ag2
(g6
S'%\xfa-:'
p6327
tp6328
Rp6329
ag2
(g6
S's\xbdY:'
p6330
tp6331
Rp6332
ag2
(g6
S'\xc0\xd7m9'
p6333
tp6334
Rp6335
ag2
(g6
S'dG\xc7:'
p6336
tp6337
Rp6338
ag2
(g6
S'!\xd0(:'
p6339
tp6340
Rp6341
ag2
(g6
S'T\x85?:'
p6342
tp6343
Rp6344
ag2
(g6
S'\ry,:'
p6345
tp6346
Rp6347
ag2
(g6
S'\x9d\x02\xd79'
p6348
tp6349
Rp6350
ag2
(g6
S'\xa9\xd6\x009'
p6351
tp6352
Rp6353
ag2
(g6
S'\x87\xcf\x05;'
p6354
tp6355
Rp6356
ag2
(g6
S'\xfd9\x01:'
p6357
tp6358
Rp6359
ag2
(g6
S'iX\xc0:'
p6360
tp6361
Rp6362
ag2
(g6
S'\x17o\xa2<'
p6363
tp6364
Rp6365
ag2
(g6
S'B0\xa9<'
p6366
tp6367
Rp6368
ag2
(g6
S'\xe5\xacp:'
p6369
tp6370
Rp6371
ag2
(g6
S'\x85\x8b49'
p6372
tp6373
Rp6374
ag2
(g6
S'\xd5g\xc7;'
p6375
tp6376
Rp6377
ag2
(g6
S'qJ\xe0;'
p6378
tp6379
Rp6380
ag2
(g6
S'cqY<'
p6381
tp6382
Rp6383
ag2
(g6
S'\xed\xa3/<'
p6384
tp6385
Rp6386
ag2
(g6
S'\x01\xa2%;'
p6387
tp6388
Rp6389
ag2
(g6
S'\x8d4h;'
p6390
tp6391
Rp6392
ag2
(g6
S'\x01\x08\xf6:'
p6393
tp6394
Rp6395
ag2
(g6
S'#T\x13;'
p6396
tp6397
Rp6398
ag2
(g6
S'\x1ek\x19;'
p6399
tp6400
Rp6401
ag2
(g6
S'\xa8\t\xbf:'
p6402
tp6403
Rp6404
ag2
(g6
S'P\xbf8;'
p6405
tp6406
Rp6407
ag2
(g6
S'\xc3\x05n;'
p6408
tp6409
Rp6410
ag2
(g6
S'\xa3\xfd\x9b;'
p6411
tp6412
Rp6413
ag2
(g6
S'\x81z\xa9;'
p6414
tp6415
Rp6416
ag2
(g6
S'\xa9Y\x01<'
p6417
tp6418
Rp6419
aa(lp6420
g2
(g6
S'\xe8\t?<'
p6421
tp6422
Rp6423
ag2
(g6
S'\x8f\x02\xcf;'
p6424
tp6425
Rp6426
ag2
(g6
S'/\x1fF:'
p6427
tp6428
Rp6429
ag2
(g6
S'\x89\xd5u;'
p6430
tp6431
Rp6432
ag2
(g6
S'\xf4\xd9k9'
p6433
tp6434
Rp6435
ag2
(g6
S'8E\x1f;'
p6436
tp6437
Rp6438
ag2
(g6
S'9jj:'
p6439
tp6440
Rp6441
ag2
(g6
S'8\x99B:'
p6442
tp6443
Rp6444
ag2
(g6
S'\xdc\x8a-:'
p6445
tp6446
Rp6447
ag2
(g6
S'\x13\x0f%:'
p6448
tp6449
Rp6450
ag2
(g6
S'\xacW\xb6:'
p6451
tp6452
Rp6453
ag2
(g6
S'\xcf\xe3\x16;'
p6454
tp6455
Rp6456
ag2
(g6
S'\xa5f4<'
p6457
tp6458
Rp6459
ag2
(g6
S'Hh\x83;'
p6460
tp6461
Rp6462
ag2
(g6
S'O\xc0\x18<'
p6463
tp6464
Rp6465
ag2
(g6
S'q\x82\x92<'
p6466
tp6467
Rp6468
ag2
(g6
S'k\x19p@'
p6469
tp6470
Rp6471
ag2
(g6
S'H\x99b@'
p6472
tp6473
Rp6474
ag2
(g6
S'W`R>'
p6475
tp6476
Rp6477
ag2
(g6
S'#\x14\xf5<'
p6478
tp6479
Rp6480
ag2
(g6
S'\x8bE\xdf<'
p6481
tp6482
Rp6483
ag2
(g6
S"i'\x7f;"
p6484
tp6485
Rp6486
ag2
(g6
S'\xb7\xc7w;'
p6487
tp6488
Rp6489
ag2
(g6
S'\xd51\x7f:'
p6490
tp6491
Rp6492
ag2
(g6
S'\x8b,\x1c;'
p6493
tp6494
Rp6495
ag2
(g6
S'\x1d\xcf\x0e;'
p6496
tp6497
Rp6498
ag2
(g6
S'\xb7p\x8d;'
p6499
tp6500
Rp6501
ag2
(g6
S'\x9f\x8f+;'
p6502
tp6503
Rp6504
ag2
(g6
S'{vq:'
p6505
tp6506
Rp6507
ag2
(g6
S'\xe1\x0fr8'
p6508
tp6509
Rp6510
ag2
(g6
S'1\xfa\x828'
p6511
tp6512
Rp6513
ag2
(g6
S'#=\xbc;'
p6514
tp6515
Rp6516
ag2
(g6
S'\xcd\x97\xf5:'
p6517
tp6518
Rp6519
ag2
(g6
S'\xd7\x8d\x1f;'
p6520
tp6521
Rp6522
ag2
(g6
S'\xf9XD;'
p6523
tp6524
Rp6525
ag2
(g6
S'8\x95g;'
p6526
tp6527
Rp6528
aa(lp6529
g2
(g6
S'\xcb\xd0+;'
p6530
tp6531
Rp6532
ag2
(g6
S'q?+7'
p6533
tp6534
Rp6535
ag2
(g6
S'}\xb4\x1c:'
p6536
tp6537
Rp6538
ag2
(g6
S'i\x12^;'
p6539
tp6540
Rp6541
ag2
(g6
S'gTb9'
p6542
tp6543
Rp6544
ag2
(g6
S'\xa4I\xe7:'
p6545
tp6546
Rp6547
ag2
(g6
S"'Sv:"
p6548
tp6549
Rp6550
ag2
(g6
S'D\xbf4:'
p6551
tp6552
Rp6553
ag2
(g6
S'\xa5\xea{:'
p6554
tp6555
Rp6556
ag2
(g6
S'g\x8e\xb98'
p6557
tp6558
Rp6559
ag2
(g6
S'\xea\x8c\x068'
p6560
tp6561
Rp6562
ag2
(g6
S'\xf1\xc6\xc3:'
p6563
tp6564
Rp6565
ag2
(g6
S'd\xb1\x08;'
p6566
tp6567
Rp6568
ag2
(g6
S'h\x15\xde9'
p6569
tp6570
Rp6571
ag2
(g6
S'\xb3\xbd\xfe:'
p6572
tp6573
Rp6574
ag2
(g6
S'`\xa4B:'
p6575
tp6576
Rp6577
ag2
(g6
S'\xff\xd7_<'
p6578
tp6579
Rp6580
ag2
(g6
S'ua\xc5<'
p6581
tp6582
Rp6583
ag2
(g6
S'@\xef\x82@'
p6584
tp6585
Rp6586
ag2
(g6
S'SCq;'
p6587
tp6588
Rp6589
ag2
(g6
S'\xb3}\xccB'
p6590
tp6591
Rp6592
aa(lp6593
g2
(g6
S'\x84\xa0\x8f:'
p6594
tp6595
Rp6596
ag2
(g6
S"'T?:"
p6597
tp6598
Rp6599
ag2
(g6
S'6\xe9\x97:'
p6600
tp6601
Rp6602
ag2
(g6
S'\xd7(\x83:'
p6603
tp6604
Rp6605
ag2
(g6
S'\x9dHM:'
p6606
tp6607
Rp6608
ag2
(g6
S'\xaa~\x15:'
p6609
tp6610
Rp6611
ag2
(g6
S'D\xcd\xdf:'
p6612
tp6613
Rp6614
ag2
(g6
S'o\xa1\x1f:'
p6615
tp6616
Rp6617
ag2
(g6
S';\xd7\xad:'
p6618
tp6619
Rp6620
ag2
(g6
S')\x8e\x0f;'
p6621
tp6622
Rp6623
ag2
(g6
S'3\xcbS:'
p6624
tp6625
Rp6626
ag2
(g6
S'\x13r%;'
p6627
tp6628
Rp6629
ag2
(g6
S'_\xff\xda9'
p6630
tp6631
Rp6632
ag2
(g6
S'at\xa0:'
p6633
tp6634
Rp6635
ag2
(g6
S'Ph\xcc:'
p6636
tp6637
Rp6638
ag2
(g6
S',\xcdD;'
p6639
tp6640
Rp6641
ag2
(g6
S'UD\x939'
p6642
tp6643
Rp6644
ag2
(g6
S'8%\x9c:'
p6645
tp6646
Rp6647
ag2
(g6
S'{\xb5\xb3:'
p6648
tp6649
Rp6650
ag2
(g6
S'\x08/\x9f:'
p6651
tp6652
Rp6653
ag2
(g6
S'\xf4\x05\x06<'
p6654
tp6655
Rp6656
ag2
(g6
S'\xa8Jz:'
p6657
tp6658
Rp6659
ag2
(g6
S'u"\xa5:'
p6660
tp6661
Rp6662
ag2
(g6
S'\x1b\xd9\x7f;'
p6663
tp6664
Rp6665
ag2
(g6
S'\x15K?;'
p6666
tp6667
Rp6668
ag2
(g6
S'\xad\x044:'
p6669
tp6670
Rp6671
ag2
(g6
S'\x8b\xbc\xa79'
p6672
tp6673
Rp6674
ag2
(g6
S'h\xcc\xc99'
p6675
tp6676
Rp6677
ag2
(g6
S'\xf5\xaf\x90;'
p6678
tp6679
Rp6680
ag2
(g6
S'\xcd"\x82;'
p6681
tp6682
Rp6683
ag2
(g6
S'h\x1c\xf9:'
p6684
tp6685
Rp6686
ag2
(g6
S'HE\xca;'
p6687
tp6688
Rp6689
ag2
(g6
S'\xad\xff\xcb:'
p6690
tp6691
Rp6692
ag2
(g6
S'\x8cE\x1c<'
p6693
tp6694
Rp6695
ag2
(g6
S'5g\x82@'
p6696
tp6697
Rp6698
ag2
(g6
S'\x10U\xcf='
p6699
tp6700
Rp6701
aa(lp6702
g2
(g6
S'\x8f\xb8,<'
p6703
tp6704
Rp6705
ag2
(g6
S'\x11\x1f\x13;'
p6706
tp6707
Rp6708
ag2
(g6
S'\xfbo\x9a9'
p6709
tp6710
Rp6711
ag2
(g6
S'\xfb/=:'
p6712
tp6713
Rp6714
ag2
(g6
S'\x05\xd9\xbf9'
p6715
tp6716
Rp6717
ag2
(g6
S'\xc9X89'
p6718
tp6719
Rp6720
ag2
(g6
S'\x04\x0e\xa59'
p6721
tp6722
Rp6723
ag2
(g6
S'\x84q\xbe9'
p6724
tp6725
Rp6726
ag2
(g6
S'Tg\xd79'
p6727
tp6728
Rp6729
ag2
(g6
S'\x8c\x8b\xf77'
p6730
tp6731
Rp6732
ag2
(g6
S'\xbb\x9b\xbb8'
p6733
tp6734
Rp6735
ag2
(g6
S'\x0f\x94\x9a9'
p6736
tp6737
Rp6738
ag2
(g6
S'\xcc\xaf\xde8'
p6739
tp6740
Rp6741
ag2
(g6
S'\xed/\x829'
p6742
tp6743
Rp6744
ag2
(g6
S'K\xf2::'
p6745
tp6746
Rp6747
ag2
(g6
S'i\x1d\xd9;'
p6748
tp6749
Rp6750
ag2
(g6
S'$\xca\xe9;'
p6751
tp6752
Rp6753
ag2
(g6
S'!c$:'
p6754
tp6755
Rp6756
ag2
(g6
S'\x08\x02J:'
p6757
tp6758
Rp6759
ag2
(g6
S'3:\x18<'
p6760
tp6761
Rp6762
ag2
(g6
S'\xe1\xe8\x1d;'
p6763
tp6764
Rp6765
ag2
(g6
S"\x17!';"
p6766
tp6767
Rp6768
ag2
(g6
S'\x99\x12\x839'
p6769
tp6770
Rp6771
ag2
(g6
S'%\xb8\x9a:'
p6772
tp6773
Rp6774
ag2
(g6
S'\x82\x86\x94;'
p6775
tp6776
Rp6777
ag2
(g6
S'\x84\xf5d;'
p6778
tp6779
Rp6780
ag2
(g6
S'L`\x1a<'
p6781
tp6782
Rp6783
ag2
(g6
S'\xf3\xdd$='
p6784
tp6785
Rp6786
ag2
(g6
S'3)\x88;'
p6787
tp6788
Rp6789
ag2
(g6
S'Q\x8b\x0b;'
p6790
tp6791
Rp6792
ag2
(g6
S'5PJ;'
p6793
tp6794
Rp6795
ag2
(g6
S'\x85\xe4C:'
p6796
tp6797
Rp6798
ag2
(g6
S'\r\x8f\xa19'
p6799
tp6800
Rp6801
ag2
(g6
S'\xab\xd5T:'
p6802
tp6803
Rp6804
ag2
(g6
S'\x91+\x15:'
p6805
tp6806
Rp6807
ag2
(g6
S'^6\x13:'
p6808
tp6809
Rp6810
aa(lp6811
g2
(g6
S'\xfb\xd4\xb8:'
p6812
tp6813
Rp6814
ag2
(g6
S"\x97\x05';"
p6815
tp6816
Rp6817
ag2
(g6
S'T\xb3\xb3:'
p6818
tp6819
Rp6820
ag2
(g6
S"'0\x1a;"
p6821
tp6822
Rp6823
ag2
(g6
S'">"9'
p6824
tp6825
Rp6826
ag2
(g6
S'{D\xff:'
p6827
tp6828
Rp6829
ag2
(g6
S'\x9c\x8dT:'
p6830
tp6831
Rp6832
ag2
(g6
S'T\x1a\xdd9'
p6833
tp6834
Rp6835
ag2
(g6
S'\x8f\xfeX8'
p6836
tp6837
Rp6838
ag2
(g6
S'\xa0\xed(:'
p6839
tp6840
Rp6841
ag2
(g6
S'v\x13\x8f:'
p6842
tp6843
Rp6844
ag2
(g6
S'\x01\xcb\xd9;'
p6845
tp6846
Rp6847
ag2
(g6
S'\xc5\x99\xbb<'
p6848
tp6849
Rp6850
ag2
(g6
S'\xd8g\xbb<'
p6851
tp6852
Rp6853
ag2
(g6
S'\x1f\xfe\xa1;'
p6854
tp6855
Rp6856
ag2
(g6
S'\xb8\xffM;'
p6857
tp6858
Rp6859
ag2
(g6
S'Yw%:'
p6860
tp6861
Rp6862
ag2
(g6
S'\xdb\xce\x8a:'
p6863
tp6864
Rp6865
ag2
(g6
S'3a=7'
p6866
tp6867
Rp6868
ag2
(g6
S'\xe8\x06\xd1:'
p6869
tp6870
Rp6871
ag2
(g6
S'\x81)\xab:'
p6872
tp6873
Rp6874
ag2
(g6
S'\xe4\xa0m;'
p6875
tp6876
Rp6877
ag2
(g6
S'{\xea\xfb;'
p6878
tp6879
Rp6880
ag2
(g6
S'!W\xbc;'
p6881
tp6882
Rp6883
ag2
(g6
S'\x19\xca\xf0:'
p6884
tp6885
Rp6886
ag2
(g6
S'\xdd`k;'
p6887
tp6888
Rp6889
ag2
(g6
S'+\x84\xe7;'
p6890
tp6891
Rp6892
ag2
(g6
S'\x99\xb0l<'
p6893
tp6894
Rp6895
ag2
(g6
S'W\x1cY<'
p6896
tp6897
Rp6898
ag2
(g6
S'\x88\xf9\n<'
p6899
tp6900
Rp6901
ag2
(g6
S'\x08\xeeX;'
p6902
tp6903
Rp6904
ag2
(g6
S'\xaa\xdc\x08;'
p6905
tp6906
Rp6907
ag2
(g6
S'c\xf4g;'
p6908
tp6909
Rp6910
ag2
(g6
S'\x8eu\x8e:'
p6911
tp6912
Rp6913
ag2
(g6
S'\xf5R\xd1:'
p6914
tp6915
Rp6916
ag2
(g6
S'\xb2\xab\x93:'
p6917
tp6918
Rp6919
aa(lp6920
g2
(g6
S'e\xfc`:'
p6921
tp6922
Rp6923
ag2
(g6
S'2\x87%;'
p6924
tp6925
Rp6926
ag2
(g6
S'\x97\xf2_;'
p6927
tp6928
Rp6929
ag2
(g6
S'\r\xcc\x1c;'
p6930
tp6931
Rp6932
ag2
(g6
S'C-n;'
p6933
tp6934
Rp6935
ag2
(g6
S'I\xe3\xed;'
p6936
tp6937
Rp6938
ag2
(g6
S'\x1c1$<'
p6939
tp6940
Rp6941
ag2
(g6
S'\x9b_\x86;'
p6942
tp6943
Rp6944
ag2
(g6
S'\x831j;'
p6945
tp6946
Rp6947
ag2
(g6
S'\xf1iW;'
p6948
tp6949
Rp6950
ag2
(g6
S'\xdb%\xcb:'
p6951
tp6952
Rp6953
ag2
(g6
S'8@~;'
p6954
tp6955
Rp6956
ag2
(g6
S';G-<'
p6957
tp6958
Rp6959
ag2
(g6
S'\x9b\xa8\xb2<'
p6960
tp6961
Rp6962
ag2
(g6
S'\x83\xa5m<'
p6963
tp6964
Rp6965
ag2
(g6
S'\\\xea\x07='
p6966
tp6967
Rp6968
ag2
(g6
S'\x1b\xdaF<'
p6969
tp6970
Rp6971
ag2
(g6
S'{\r\xca<'
p6972
tp6973
Rp6974
ag2
(g6
S'hP\xa3;'
p6975
tp6976
Rp6977
ag2
(g6
S"\x15'\x85<"
p6978
tp6979
Rp6980
ag2
(g6
S'D\xdd\xb2<'
p6981
tp6982
Rp6983
ag2
(g6
S'\xd9\xe4\xc4B'
p6984
tp6985
Rp6986
aa(lp6987
g2
(g6
S'\x19T\x01;'
p6988
tp6989
Rp6990
ag2
(g6
S'\x1b\xff,;'
p6991
tp6992
Rp6993
ag2
(g6
S'PuC:'
p6994
tp6995
Rp6996
ag2
(g6
S'M7\xd5:'
p6997
tp6998
Rp6999
ag2
(g6
S'$\x19k;'
p7000
tp7001
Rp7002
ag2
(g6
S'\x9f\xca+;'
p7003
tp7004
Rp7005
ag2
(g6
S'\xd8\xe0\xe8;'
p7006
tp7007
Rp7008
ag2
(g6
S'do_:'
p7009
tp7010
Rp7011
ag2
(g6
S'\xcfK3:'
p7012
tp7013
Rp7014
ag2
(g6
S'\x11\xed\x16:'
p7015
tp7016
Rp7017
ag2
(g6
S'\x91\xa8\xf9:'
p7018
tp7019
Rp7020
ag2
(g6
S'\xbb\x05\xf3:'
p7021
tp7022
Rp7023
ag2
(g6
S'\xe6\xa0\x10;'
p7024
tp7025
Rp7026
ag2
(g6
S'\x98\x14\xc8:'
p7027
tp7028
Rp7029
ag2
(g6
S'\xb0\xb1\x1d:'
p7030
tp7031
Rp7032
ag2
(g6
S'T\xa0k;'
p7033
tp7034
Rp7035
ag2
(g6
S'+M\x05;'
p7036
tp7037
Rp7038
ag2
(g6
S'\x1e9\x00;'
p7039
tp7040
Rp7041
ag2
(g6
S'\xb3\x90\xbd9'
p7042
tp7043
Rp7044
ag2
(g6
S'M\xbcd;'
p7045
tp7046
Rp7047
ag2
(g6
S')\x8e\x82:'
p7048
tp7049
Rp7050
ag2
(g6
S'\x08\xb8K;'
p7051
tp7052
Rp7053
ag2
(g6
S'A\x12\t;'
p7054
tp7055
Rp7056
ag2
(g6
S'E\x8a::'
p7057
tp7058
Rp7059
ag2
(g6
S'\xb3\xfb\xa4:'
p7060
tp7061
Rp7062
ag2
(g6
S'\x04d(;'
p7063
tp7064
Rp7065
ag2
(g6
S'\x1b?g:'
p7066
tp7067
Rp7068
ag2
(g6
S'\xc8Fw;'
p7069
tp7070
Rp7071
ag2
(g6
S';\x98L9'
p7072
tp7073
Rp7074
ag2
(g6
S'\xac\xeb\xf9:'
p7075
tp7076
Rp7077
ag2
(g6
S'\xdb\x10\xb0:'
p7078
tp7079
Rp7080
ag2
(g6
S"'>\x19;"
p7081
tp7082
Rp7083
ag2
(g6
S'\xb5\xac\x8f9'
p7084
tp7085
Rp7086
ag2
(g6
S'\xa8\xea-;'
p7087
tp7088
Rp7089
ag2
(g6
S'\xd8\xd8\xcb;'
p7090
tp7091
Rp7092
ag2
(g6
S'Q\xc2\xbf<'
p7093
tp7094
Rp7095
aa(lp7096
g2
(g6
S'\xd3g):'
p7097
tp7098
Rp7099
ag2
(g6
S'\x952\xd89'
p7100
tp7101
Rp7102
ag2
(g6
S'Uo\xbf:'
p7103
tp7104
Rp7105
ag2
(g6
S'\xa0+V;'
p7106
tp7107
Rp7108
ag2
(g6
S'\xd5\x93\x8e:'
p7109
tp7110
Rp7111
ag2
(g6
S'u\xa4\x8f:'
p7112
tp7113
Rp7114
ag2
(g6
S'\xc8\xe8\xf6:'
p7115
tp7116
Rp7117
ag2
(g6
S'W\xb0N:'
p7118
tp7119
Rp7120
ag2
(g6
S'\x06\xf9\x04:'
p7121
tp7122
Rp7123
ag2
(g6
S'\xa4\xa9\xb69'
p7124
tp7125
Rp7126
ag2
(g6
S'\xa3r.8'
p7127
tp7128
Rp7129
ag2
(g6
S'\xa4\x90O:'
p7130
tp7131
Rp7132
ag2
(g6
S'\xc3\xb3\x9b:'
p7133
tp7134
Rp7135
ag2
(g6
S'\x87\x89\x15;'
p7136
tp7137
Rp7138
ag2
(g6
S'\n\x9f\x90:'
p7139
tp7140
Rp7141
ag2
(g6
S'\xfc\x88\x88;'
p7142
tp7143
Rp7144
ag2
(g6
S'M\xea\x00;'
p7145
tp7146
Rp7147
ag2
(g6
S'\t\xa7A;'
p7148
tp7149
Rp7150
ag2
(g6
S'/!\x08<'
p7151
tp7152
Rp7153
ag2
(g6
S'ks\x80<'
p7154
tp7155
Rp7156
ag2
(g6
S'C\x9f9:'
p7157
tp7158
Rp7159
ag2
(g6
S'\x15\x02w;'
p7160
tp7161
Rp7162
ag2
(g6
S'\xd1n6<'
p7163
tp7164
Rp7165
ag2
(g6
S'\xe4\x19K<'
p7166
tp7167
Rp7168
ag2
(g6
S'\x9d\x1f/<'
p7169
tp7170
Rp7171
ag2
(g6
S'i\xbc\x9b;'
p7172
tp7173
Rp7174
ag2
(g6
S'KU\x9d:'
p7175
tp7176
Rp7177
ag2
(g6
S'\x1ar);'
p7178
tp7179
Rp7180
ag2
(g6
S'\\\xf9\x90:'
p7181
tp7182
Rp7183
ag2
(g6
S'o|\x1c<'
p7184
tp7185
Rp7186
ag2
(g6
S'\x84L\xa5<'
p7187
tp7188
Rp7189
ag2
(g6
S'\x88B\x18<'
p7190
tp7191
Rp7192
ag2
(g6
S'\x03\xd5!='
p7193
tp7194
Rp7195
ag2
(g6
S'|\xbb_='
p7196
tp7197
Rp7198
ag2
(g6
S'A\xf7\xd9<'
p7199
tp7200
Rp7201
ag2
(g6
S'%\xf5\xaf<'
p7202
tp7203
Rp7204
aa(lp7205
g2
(g6
S'\x0e\xd7\x8b;'
p7206
tp7207
Rp7208
ag2
(g6
S'\xd9\x11\x05;'
p7209
tp7210
Rp7211
ag2
(g6
S'\x81y\x8a:'
p7212
tp7213
Rp7214
ag2
(g6
S'\x10\x82\x92;'
p7215
tp7216
Rp7217
ag2
(g6
S'\xf3\xa9\xf0:'
p7218
tp7219
Rp7220
ag2
(g6
S'c\xd5\xbd9'
p7221
tp7222
Rp7223
ag2
(g6
S'\x01\xce\x14:'
p7224
tp7225
Rp7226
ag2
(g6
S'\x91N\x0c;'
p7227
tp7228
Rp7229
ag2
(g6
S'\xb4\xc6\x97;'
p7230
tp7231
Rp7232
ag2
(g6
S'V\xf9\x89;'
p7233
tp7234
Rp7235
ag2
(g6
S'\xb5\xdc\xc3:'
p7236
tp7237
Rp7238
ag2
(g6
S'\xa9O\xc4:'
p7239
tp7240
Rp7241
ag2
(g6
S'\xe36\n;'
p7242
tp7243
Rp7244
ag2
(g6
S'\xd3\x1b\xc9:'
p7245
tp7246
Rp7247
ag2
(g6
S'd\xc1\xb4:'
p7248
tp7249
Rp7250
ag2
(g6
S'\x9b\xe3\xb7:'
p7251
tp7252
Rp7253
ag2
(g6
S'\xf7f\x8b:'
p7254
tp7255
Rp7256
ag2
(g6
S'H\x97\xc3:'
p7257
tp7258
Rp7259
ag2
(g6
S'\xd0\xf2\xb2;'
p7260
tp7261
Rp7262
ag2
(g6
S'e&F8'
p7263
tp7264
Rp7265
ag2
(g6
S'9E\x1b;'
p7266
tp7267
Rp7268
ag2
(g6
S',\xcf\x8f;'
p7269
tp7270
Rp7271
ag2
(g6
S'\x1c\xc2Q;'
p7272
tp7273
Rp7274
ag2
(g6
S'@\x08\xba;'
p7275
tp7276
Rp7277
ag2
(g6
S':Q <'
p7278
tp7279
Rp7280
ag2
(g6
S'\x10\x07\x0c='
p7281
tp7282
Rp7283
ag2
(g6
S'iC\x9f<'
p7284
tp7285
Rp7286
ag2
(g6
S'\x99V\x88<'
p7287
tp7288
Rp7289
ag2
(g6
S'TQ=<'
p7290
tp7291
Rp7292
ag2
(g6
S'\xe0=/<'
p7293
tp7294
Rp7295
ag2
(g6
S'\xc9\xb6\xed;'
p7296
tp7297
Rp7298
ag2
(g6
S'P@.;'
p7299
tp7300
Rp7301
ag2
(g6
S'\xa8N\x14:'
p7302
tp7303
Rp7304
ag2
(g6
S'\xd3m\xd8:'
p7305
tp7306
Rp7307
ag2
(g6
S'\r\xc3\x96:'
p7308
tp7309
Rp7310
ag2
(g6
S'\xf9c\xc7:'
p7311
tp7312
Rp7313
aa(lp7314
g2
(g6
S'm\x9c\xb5:'
p7315
tp7316
Rp7317
ag2
(g6
S'AY\x1d:'
p7318
tp7319
Rp7320
ag2
(g6
S'Y\x95\xef:'
p7321
tp7322
Rp7323
ag2
(g6
S'CX\t;'
p7324
tp7325
Rp7326
ag2
(g6
S'\xcf\x87\xd7;'
p7327
tp7328
Rp7329
ag2
(g6
S'\xa75i<'
p7330
tp7331
Rp7332
ag2
(g6
S'g\xfaZ<'
p7333
tp7334
Rp7335
ag2
(g6
S'\x806T<'
p7336
tp7337
Rp7338
ag2
(g6
S'7\x04\xc9;'
p7339
tp7340
Rp7341
ag2
(g6
S'l6\xc3:'
p7342
tp7343
Rp7344
ag2
(g6
S'eoN:'
p7345
tp7346
Rp7347
ag2
(g6
S'3\xaf\xb8;'
p7348
tp7349
Rp7350
ag2
(g6
S'P\xb8\x8e;'
p7351
tp7352
Rp7353
ag2
(g6
S'\xd1-\xd5;'
p7354
tp7355
Rp7356
ag2
(g6
S'\xd5\xf7\xa09'
p7357
tp7358
Rp7359
ag2
(g6
S'Y\xe6x;'
p7360
tp7361
Rp7362
ag2
(g6
S'\xa3\xd5\r;'
p7363
tp7364
Rp7365
ag2
(g6
S'G(\x04;'
p7366
tp7367
Rp7368
ag2
(g6
S'\x1f\xd2\xd4;'
p7369
tp7370
Rp7371
ag2
(g6
S'\x01EN:'
p7372
tp7373
Rp7374
ag2
(g6
S'\x03\xa6\xea:'
p7375
tp7376
Rp7377
ag2
(g6
S'\x01>u;'
p7378
tp7379
Rp7380
ag2
(g6
S'1\x07\xff:'
p7381
tp7382
Rp7383
ag2
(g6
S'I\xb0\x06;'
p7384
tp7385
Rp7386
ag2
(g6
S'\x9d86;'
p7387
tp7388
Rp7389
ag2
(g6
S'dN\xc1;'
p7390
tp7391
Rp7392
ag2
(g6
S'x\xa3\x99;'
p7393
tp7394
Rp7395
ag2
(g6
S'\xb4\xc9]<'
p7396
tp7397
Rp7398
ag2
(g6
S'\x1e\x1e\x81<'
p7399
tp7400
Rp7401
ag2
(g6
S'\x7f\xbdU;'
p7402
tp7403
Rp7404
ag2
(g6
S'R\xe1\x0b;'
p7405
tp7406
Rp7407
ag2
(g6
S'?\x18\xdd:'
p7408
tp7409
Rp7410
ag2
(g6
S'G\xab\x1b;'
p7411
tp7412
Rp7413
ag2
(g6
S'\x9aJ\x0e;'
p7414
tp7415
Rp7416
ag2
(g6
S'\x08\xaf+;'
p7417
tp7418
Rp7419
ag2
(g6
S'\x95v\xb5:'
p7420
tp7421
Rp7422
aa(lp7423
g2
(g6
S'\xc3W\xf6;'
p7424
tp7425
Rp7426
ag2
(g6
S'\xd7dB<'
p7427
tp7428
Rp7429
ag2
(g6
S'X\x10B;'
p7430
tp7431
Rp7432
ag2
(g6
S'\x16\x08\x99;'
p7433
tp7434
Rp7435
ag2
(g6
S'\xf3\xb7\xb9;'
p7436
tp7437
Rp7438
ag2
(g6
S'\t\xbe\x0c<'
p7439
tp7440
Rp7441
ag2
(g6
S'J\xf2\xa0;'
p7442
tp7443
Rp7444
ag2
(g6
S'\x18\x85\xb6;'
p7445
tp7446
Rp7447
ag2
(g6
S'\xa9\xed\xf3;'
p7448
tp7449
Rp7450
ag2
(g6
S'\xafRE;'
p7451
tp7452
Rp7453
ag2
(g6
S'F\x95\xa9:'
p7454
tp7455
Rp7456
ag2
(g6
S'\xb8\xa6X:'
p7457
tp7458
Rp7459
ag2
(g6
S'\xf2Q\x07;'
p7460
tp7461
Rp7462
ag2
(g6
S'\xb0\x83\xc6:'
p7463
tp7464
Rp7465
ag2
(g6
S'\x9f\x8dk9'
p7466
tp7467
Rp7468
ag2
(g6
S'J\x8d\x1c;'
p7469
tp7470
Rp7471
ag2
(g6
S'C\x1b\xab;'
p7472
tp7473
Rp7474
ag2
(g6
S'\xbe\xb7 <'
p7475
tp7476
Rp7477
ag2
(g6
S'\x87\xeb\x83<'
p7478
tp7479
Rp7480
ag2
(g6
S'\x87\xe3\xfc<'
p7481
tp7482
Rp7483
ag2
(g6
S'\x8f\xb7\xc0<'
p7484
tp7485
Rp7486
ag2
(g6
S'\xe0\xd4\xcbB'
p7487
tp7488
Rp7489
aa(lp7490
g2
(g6
S'\xb9\xa7F;'
p7491
tp7492
Rp7493
ag2
(g6
S'n\x7f\x85;'
p7494
tp7495
Rp7496
ag2
(g6
S'c\xccV;'
p7497
tp7498
Rp7499
ag2
(g6
S'\x91\x165;'
p7500
tp7501
Rp7502
ag2
(g6
S'\x17\xdc\x04;'
p7503
tp7504
Rp7505
ag2
(g6
S'7\x92\xb2;'
p7506
tp7507
Rp7508
ag2
(g6
S'lN\x7f:'
p7509
tp7510
Rp7511
ag2
(g6
S'8J\xbb;'
p7512
tp7513
Rp7514
ag2
(g6
S'[\xb5\xdd;'
p7515
tp7516
Rp7517
ag2
(g6
S'\xc1)Q;'
p7518
tp7519
Rp7520
ag2
(g6
S'a\x14_;'
p7521
tp7522
Rp7523
ag2
(g6
S'Tr&:'
p7524
tp7525
Rp7526
ag2
(g6
S';h[:'
p7527
tp7528
Rp7529
ag2
(g6
S'-l\x89<'
p7530
tp7531
Rp7532
ag2
(g6
S'\xff\xae\r;'
p7533
tp7534
Rp7535
ag2
(g6
S'3mz<'
p7536
tp7537
Rp7538
ag2
(g6
S'\x19$\x82@'
p7539
tp7540
Rp7541
ag2
(g6
S'9\xa0{<'
p7542
tp7543
Rp7544
ag2
(g6
S'\x98\xc4b<'
p7545
tp7546
Rp7547
ag2
(g6
S'\xa5s\x81@'
p7548
tp7549
Rp7550
ag2
(g6
S'%\x0b\xaf<'
p7551
tp7552
Rp7553
ag2
(g6
S'\x8d\xe5X<'
p7554
tp7555
Rp7556
ag2
(g6
S'gzz@'
p7557
tp7558
Rp7559
ag2
(g6
S'["z@'
p7560
tp7561
Rp7562
ag2
(g6
S'\xeat\x85='
p7563
tp7564
Rp7565
ag2
(g6
S'0\xe0\x97<'
p7566
tp7567
Rp7568
ag2
(g6
S'|8\xaf<'
p7569
tp7570
Rp7571
ag2
(g6
S'N\xd9"<'
p7572
tp7573
Rp7574
ag2
(g6
S'H\x00q@'
p7575
tp7576
Rp7577
ag2
(g6
S'G\xd21='
p7578
tp7579
Rp7580
ag2
(g6
S'\xade\xb5<'
p7581
tp7582
Rp7583
ag2
(g6
S'\x95.t@'
p7584
tp7585
Rp7586
ag2
(g6
S'}\x12Y='
p7587
tp7588
Rp7589
ag2
(g6
S'\xb8\xe2\xc9;'
p7590
tp7591
Rp7592
ag2
(g6
S'\x1cm\xe2<'
p7593
tp7594
Rp7595
ag2
(g6
S'\x9bR\xb2;'
p7596
tp7597
Rp7598
aa(lp7599
g2
(g6
S'\xa3\t\x91<'
p7600
tp7601
Rp7602
ag2
(g6
S'a\xa5\x0e<'
p7603
tp7604
Rp7605
ag2
(g6
S'\x9c"\xa2:'
p7606
tp7607
Rp7608
ag2
(g6
S'b\xf9\xa0;'
p7609
tp7610
Rp7611
ag2
(g6
S'+\n\x9f:'
p7612
tp7613
Rp7614
ag2
(g6
S'\x90\x86\xf9;'
p7615
tp7616
Rp7617
ag2
(g6
S'\x15;\xc6:'
p7618
tp7619
Rp7620
ag2
(g6
S'3\x90\xc9;'
p7621
tp7622
Rp7623
ag2
(g6
S'8\x95r:'
p7624
tp7625
Rp7626
ag2
(g6
S'\x81[<;'
p7627
tp7628
Rp7629
ag2
(g6
S'/J\x0c;'
p7630
tp7631
Rp7632
ag2
(g6
S'\xbc\xc3\x85;'
p7633
tp7634
Rp7635
ag2
(g6
S'm"8;'
p7636
tp7637
Rp7638
ag2
(g6
S'\x97\xca\x93:'
p7639
tp7640
Rp7641
ag2
(g6
S'X\x15\xc7:'
p7642
tp7643
Rp7644
ag2
(g6
S'tS\x8b;'
p7645
tp7646
Rp7647
ag2
(g6
S'\x189\xe9:'
p7648
tp7649
Rp7650
ag2
(g6
S'\xb8\x0e\xba:'
p7651
tp7652
Rp7653
ag2
(g6
S'\x95x\x059'
p7654
tp7655
Rp7656
ag2
(g6
S'c:\xdc:'
p7657
tp7658
Rp7659
ag2
(g6
S'\xe1/7;'
p7660
tp7661
Rp7662
ag2
(g6
S'\xa5o\xf9:'
p7663
tp7664
Rp7665
ag2
(g6
S'\x9d\xda\xa99'
p7666
tp7667
Rp7668
ag2
(g6
S'\xa8\xba5:'
p7669
tp7670
Rp7671
ag2
(g6
S'\x0bT\xd99'
p7672
tp7673
Rp7674
ag2
(g6
S'\xa8*x;'
p7675
tp7676
Rp7677
ag2
(g6
S'\x07\x9d\x02:'
p7678
tp7679
Rp7680
ag2
(g6
S'K\x9c\xef:'
p7681
tp7682
Rp7683
ag2
(g6
S'+v\x079'
p7684
tp7685
Rp7686
ag2
(g6
S'\x81\xbb\x069'
p7687
tp7688
Rp7689
ag2
(g6
S'x\x9ea9'
p7690
tp7691
Rp7692
ag2
(g6
S'\xc5\xa01;'
p7693
tp7694
Rp7695
ag2
(g6
S']\x1d\x93;'
p7696
tp7697
Rp7698
ag2
(g6
S'[Sl;'
p7699
tp7700
Rp7701
ag2
(g6
S'\x07\x17\xda:'
p7702
tp7703
Rp7704
ag2
(g6
S'\xf4R\x07:'
p7705
tp7706
Rp7707
aa(lp7708
g2
(g6
S"'d\xb6:"
p7709
tp7710
Rp7711
ag2
(g6
S'\xde\xb0\x14:'
p7712
tp7713
Rp7714
ag2
(g6
S'\xe0\xb7\r9'
p7715
tp7716
Rp7717
ag2
(g6
S';\x97\xad9'
p7718
tp7719
Rp7720
ag2
(g6
S'\xc5\x1b\x1a:'
p7721
tp7722
Rp7723
ag2
(g6
S'\xcb\x177:'
p7724
tp7725
Rp7726
ag2
(g6
S'MY\x0b:'
p7727
tp7728
Rp7729
ag2
(g6
S'2$\xa7:'
p7730
tp7731
Rp7732
ag2
(g6
S'%\xa3\xa9;'
p7733
tp7734
Rp7735
ag2
(g6
S'\xa0\xd9a;'
p7736
tp7737
Rp7738
ag2
(g6
S'\xf5C=;'
p7739
tp7740
Rp7741
ag2
(g6
S'\xa8X\x91;'
p7742
tp7743
Rp7744
ag2
(g6
S'\xc8\x98\x07;'
p7745
tp7746
Rp7747
ag2
(g6
S'\xe9\x11\x889'
p7748
tp7749
Rp7750
ag2
(g6
S'K\xae\xa2:'
p7751
tp7752
Rp7753
ag2
(g6
S'\xe7\xdfP<'
p7754
tp7755
Rp7756
ag2
(g6
S'\xe1\xa7\x87:'
p7757
tp7758
Rp7759
ag2
(g6
S'\x99\x8fx9'
p7760
tp7761
Rp7762
ag2
(g6
S'\x0b\x17\x81<'
p7763
tp7764
Rp7765
ag2
(g6
S'=\re@'
p7766
tp7767
Rp7768
ag2
(g6
S'\x15\x00\xf9<'
p7769
tp7770
Rp7771
ag2
(g6
S'\xbc\xd4\xa1;'
p7772
tp7773
Rp7774
ag2
(g6
S'\xb5\xb9k@'
p7775
tp7776
Rp7777
ag2
(g6
S'\xb9H\x1c='
p7778
tp7779
Rp7780
ag2
(g6
S'!_\xeb<'
p7781
tp7782
Rp7783
ag2
(g6
S'\x99\xfbR;'
p7784
tp7785
Rp7786
ag2
(g6
S'\x9b\x89b@'
p7787
tp7788
Rp7789
ag2
(g6
S'm\x95g@'
p7790
tp7791
Rp7792
ag2
(g6
S'\xb0%\xa3='
p7793
tp7794
Rp7795
ag2
(g6
S'\xbc\xfa\xc8;'
p7796
tp7797
Rp7798
ag2
(g6
S'\xac/\xc0<'
p7799
tp7800
Rp7801
ag2
(g6
S'\x14\x98<<'
p7802
tp7803
Rp7804
ag2
(g6
S'\x93`\xba;'
p7805
tp7806
Rp7807
ag2
(g6
S'\xc4\xfc\x10<'
p7808
tp7809
Rp7810
ag2
(g6
S'\xd5\x8e\xb4;'
p7811
tp7812
Rp7813
ag2
(g6
S'\xf0|2<'
p7814
tp7815
Rp7816
aa(lp7817
g2
(g6
S'\xe7v\xc4;'
p7818
tp7819
Rp7820
ag2
(g6
S'\x94\x00\xe0;'
p7821
tp7822
Rp7823
ag2
(g6
S'\x04"-;'
p7824
tp7825
Rp7826
ag2
(g6
S'\xf1\x1e99'
p7827
tp7828
Rp7829
ag2
(g6
S'\x01D;;'
p7830
tp7831
Rp7832
ag2
(g6
S'\xe3,\x83;'
p7833
tp7834
Rp7835
ag2
(g6
S'*\xf8\x84;'
p7836
tp7837
Rp7838
ag2
(g6
S'\xd0\xdb\x8e;'
p7839
tp7840
Rp7841
ag2
(g6
S'\xc7\xf7\xe5:'
p7842
tp7843
Rp7844
ag2
(g6
S'\xa2\x87\x93;'
p7845
tp7846
Rp7847
ag2
(g6
S'\xd3\xc6\xc6;'
p7848
tp7849
Rp7850
ag2
(g6
S'\xc7\x19\xb7;'
p7851
tp7852
Rp7853
ag2
(g6
S'\x85\xa7v@'
p7854
tp7855
Rp7856
ag2
(g6
S'q\xa0\x1b='
p7857
tp7858
Rp7859
ag2
(g6
S'\xb9dM;'
p7860
tp7861
Rp7862
ag2
(g6
S'\x19\x86\r<'
p7863
tp7864
Rp7865
ag2
(g6
S'\xa9\n\x80;'
p7866
tp7867
Rp7868
ag2
(g6
S'\xe7\xb0\x15='
p7869
tp7870
Rp7871
ag2
(g6
S'[\xd2\xcfB'
p7872
tp7873
Rp7874
aa(lp7875
g2
(g6
S'\xb5\xeb\x90;'
p7876
tp7877
Rp7878
ag2
(g6
S'\xf3\xcf(;'
p7879
tp7880
Rp7881
ag2
(g6
S'\xa8\xb7\x9f;'
p7882
tp7883
Rp7884
ag2
(g6
S'\x870\x1f;'
p7885
tp7886
Rp7887
ag2
(g6
S'\xa5\xe8\xc5:'
p7888
tp7889
Rp7890
ag2
(g6
S'\xd3\x0f\xbf;'
p7891
tp7892
Rp7893
ag2
(g6
S'$\xce\x9a:'
p7894
tp7895
Rp7896
ag2
(g6
S'\x0b\x80k<'
p7897
tp7898
Rp7899
ag2
(g6
S't`~<'
p7900
tp7901
Rp7902
ag2
(g6
S'\xb8\xd5k@'
p7903
tp7904
Rp7905
ag2
(g6
S'\xbf\x07g@'
p7906
tp7907
Rp7908
ag2
(g6
S']\xfc`@'
p7909
tp7910
Rp7911
ag2
(g6
S'\xb0\xe6e@'
p7912
tp7913
Rp7914
ag2
(g6
S'\xa3\xcbx='
p7915
tp7916
Rp7917
ag2
(g6
S'\x08\xe2\xd3<'
p7918
tp7919
Rp7920
ag2
(g6
S'\xdf\x06\x0c='
p7921
tp7922
Rp7923
ag2
(g6
S'srC<'
p7924
tp7925
Rp7926
ag2
(g6
S'|=~<'
p7927
tp7928
Rp7929
ag2
(g6
S'l-\x84<'
p7930
tp7931
Rp7932
ag2
(g6
S'ax\x15<'
p7933
tp7934
Rp7935
ag2
(g6
S'l\x11\xc0;'
p7936
tp7937
Rp7938
ag2
(g6
S'\x90\xc6\xa9<'
p7939
tp7940
Rp7941
ag2
(g6
S'\x8b\x11Z<'
p7942
tp7943
Rp7944
ag2
(g6
S'\x8d\xdc\xea;'
p7945
tp7946
Rp7947
ag2
(g6
S'\x9cP\n>'
p7948
tp7949
Rp7950
ag2
(g6
S'\xcb\xc8\xac;'
p7951
tp7952
Rp7953
ag2
(g6
S'\xe9\xdc\x94<'
p7954
tp7955
Rp7956
ag2
(g6
S'\xad\xc7\xeb;'
p7957
tp7958
Rp7959
ag2
(g6
S'\xdd\xc4\xe9='
p7960
tp7961
Rp7962
ag2
(g6
S'G\xbc\xfc:'
p7963
tp7964
Rp7965
ag2
(g6
S'{Ce<'
p7966
tp7967
Rp7968
ag2
(g6
S'\x98\xf8\xf89'
p7969
tp7970
Rp7971
ag2
(g6
S'`\xf3\xe1:'
p7972
tp7973
Rp7974
ag2
(g6
S'(\xdc\xde;'
p7975
tp7976
Rp7977
ag2
(g6
S',\x90\xe1;'
p7978
tp7979
Rp7980
ag2
(g6
S'5\xac\x9e;'
p7981
tp7982
Rp7983
aa(lp7984
g2
(g6
S'\x9d72;'
p7985
tp7986
Rp7987
ag2
(g6
S'_{\xc2:'
p7988
tp7989
Rp7990
ag2
(g6
S'\x91\xb1\x9c;'
p7991
tp7992
Rp7993
ag2
(g6
S'\xdf \x98:'
p7994
tp7995
Rp7996
ag2
(g6
S'\xd7\x0198'
p7997
tp7998
Rp7999
ag2
(g6
S'\xa9%\x1d;'
p8000
tp8001
Rp8002
ag2
(g6
S'\xed\x11|:'
p8003
tp8004
Rp8005
ag2
(g6
S'\xde\x84\x0b:'
p8006
tp8007
Rp8008
ag2
(g6
S'\xc1\xe7\x0f:'
p8009
tp8010
Rp8011
ag2
(g6
S'\xc0<\xe2:'
p8012
tp8013
Rp8014
ag2
(g6
S'\x1f9\xa7;'
p8015
tp8016
Rp8017
ag2
(g6
S'+\xfb\xc19'
p8018
tp8019
Rp8020
ag2
(g6
S'\x92\xdd\x07;'
p8021
tp8022
Rp8023
ag2
(g6
S',TZ:'
p8024
tp8025
Rp8026
ag2
(g6
S'\xe8\xbdw<'
p8027
tp8028
Rp8029
ag2
(g6
S'\xff\xe8@:'
p8030
tp8031
Rp8032
ag2
(g6
S'\x98p\xbf:'
p8033
tp8034
Rp8035
ag2
(g6
S'D\x17v;'
p8036
tp8037
Rp8038
ag2
(g6
S'[F\x93;'
p8039
tp8040
Rp8041
ag2
(g6
S'\x9f%\xf3<'
p8042
tp8043
Rp8044
ag2
(g6
S'\x00\xb7s@'
p8045
tp8046
Rp8047
ag2
(g6
S'U\xf0\xcf<'
p8048
tp8049
Rp8050
ag2
(g6
S'\x05\xbdO;'
p8051
tp8052
Rp8053
ag2
(g6
S'|#\xf1:'
p8054
tp8055
Rp8056
ag2
(g6
S'\x8dT\xbd;'
p8057
tp8058
Rp8059
ag2
(g6
S'\x94y><'
p8060
tp8061
Rp8062
ag2
(g6
S'\x9b\xd4\xb2:'
p8063
tp8064
Rp8065
ag2
(g6
S'\x04\x1d^<'
p8066
tp8067
Rp8068
ag2
(g6
S'\x90\x1b\xc8;'
p8069
tp8070
Rp8071
ag2
(g6
S'y\x10W;'
p8072
tp8073
Rp8074
ag2
(g6
S'\x80F\xc8:'
p8075
tp8076
Rp8077
ag2
(g6
S'\x99-\x91:'
p8078
tp8079
Rp8080
ag2
(g6
S'\x82k\xa39'
p8081
tp8082
Rp8083
ag2
(g6
S'\x03\x93\x1c:'
p8084
tp8085
Rp8086
ag2
(g6
S'\xe5\xb8\x8a:'
p8087
tp8088
Rp8089
ag2
(g6
S'\x95-\x91;'
p8090
tp8091
Rp8092
aa(lp8093
g2
(g6
S'\xe3\xfa\x94:'
p8094
tp8095
Rp8096
ag2
(g6
S'\xc3\xdbg:'
p8097
tp8098
Rp8099
ag2
(g6
S'g\x08\x029'
p8100
tp8101
Rp8102
ag2
(g6
S'!#.9'
p8103
tp8104
Rp8105
ag2
(g6
S'k\x87\xe6:'
p8106
tp8107
Rp8108
ag2
(g6
S'\xcd\x02v:'
p8109
tp8110
Rp8111
ag2
(g6
S'M|7:'
p8112
tp8113
Rp8114
ag2
(g6
S'T\xbb69'
p8115
tp8116
Rp8117
ag2
(g6
S'w\rq:'
p8118
tp8119
Rp8120
ag2
(g6
S'\x7fn\xdc;'
p8121
tp8122
Rp8123
ag2
(g6
S'\x05\xcf\x12;'
p8124
tp8125
Rp8126
ag2
(g6
S'\x07\x12\x8a;'
p8127
tp8128
Rp8129
ag2
(g6
S'\x83\xc7C;'
p8130
tp8131
Rp8132
ag2
(g6
S'ah\x94:'
p8133
tp8134
Rp8135
ag2
(g6
S'q\xb3V;'
p8136
tp8137
Rp8138
ag2
(g6
S'3\x9a\xe49'
p8139
tp8140
Rp8141
ag2
(g6
S'\xbb&\xfb;'
p8142
tp8143
Rp8144
ag2
(g6
S'\x8d\xf5\x14='
p8145
tp8146
Rp8147
ag2
(g6
S',\xc5j<'
p8148
tp8149
Rp8150
ag2
(g6
S'\x1c\xaa\xec='
p8151
tp8152
Rp8153
ag2
(g6
S's\xcf\x13='
p8154
tp8155
Rp8156
ag2
(g6
S'\x01+\xc4B'
p8157
tp8158
Rp8159
aa(lp8160
g2
(g6
S'\xd4\x98\x01<'
p8161
tp8162
Rp8163
ag2
(g6
S'\xd0\x85\xaa;'
p8164
tp8165
Rp8166
ag2
(g6
S'\x08g\\;'
p8167
tp8168
Rp8169
ag2
(g6
S'\xcfb\xa7;'
p8170
tp8171
Rp8172
ag2
(g6
S'A\xe6\xc4;'
p8173
tp8174
Rp8175
ag2
(g6
S'U\x91\xaf:'
p8176
tp8177
Rp8178
ag2
(g6
S'n4\x01;'
p8179
tp8180
Rp8181
ag2
(g6
S'-\x87\xa2;'
p8182
tp8183
Rp8184
ag2
(g6
S'\xd1\xc7_;'
p8185
tp8186
Rp8187
ag2
(g6
S'|"\xde;'
p8188
tp8189
Rp8190
ag2
(g6
S'\xab\xeb\xee9'
p8191
tp8192
Rp8193
ag2
(g6
S'(r=;'
p8194
tp8195
Rp8196
ag2
(g6
S'\xd8\x91U;'
p8197
tp8198
Rp8199
ag2
(g6
S'\xc1\x11$;'
p8200
tp8201
Rp8202
ag2
(g6
S'-@?;'
p8203
tp8204
Rp8205
ag2
(g6
S'\xa8\x16\x0c;'
p8206
tp8207
Rp8208
ag2
(g6
S'\xc9"G:'
p8209
tp8210
Rp8211
ag2
(g6
S'T\x1cc;'
p8212
tp8213
Rp8214
ag2
(g6
S'K\x12Q:'
p8215
tp8216
Rp8217
ag2
(g6
S'WC\x07;'
p8218
tp8219
Rp8220
ag2
(g6
S'\xe1\x9a\x93:'
p8221
tp8222
Rp8223
ag2
(g6
S'\xd5\xfe\x89;'
p8224
tp8225
Rp8226
ag2
(g6
S'B\xb9\x06;'
p8227
tp8228
Rp8229
ag2
(g6
S'\x9c\x94B;'
p8230
tp8231
Rp8232
ag2
(g6
S'%\x0b\x04<'
p8233
tp8234
Rp8235
ag2
(g6
S'\xf9\xaf\x11:'
p8236
tp8237
Rp8238
ag2
(g6
S'<\xfe\x1b<'
p8239
tp8240
Rp8241
ag2
(g6
S'7\x9bt@'
p8242
tp8243
Rp8244
ag2
(g6
S'c\x94\xf4<'
p8245
tp8246
Rp8247
ag2
(g6
S'@\x96\xb7;'
p8248
tp8249
Rp8250
ag2
(g6
S'\x03\xf9\xb4;'
p8251
tp8252
Rp8253
ag2
(g6
S'i\xcb\x9f;'
p8254
tp8255
Rp8256
ag2
(g6
S'\xf05_@'
p8257
tp8258
Rp8259
ag2
(g6
S'\xad\xba\xbd='
p8260
tp8261
Rp8262
ag2
(g6
S'o\xe68:'
p8263
tp8264
Rp8265
ag2
(g6
S'\x9d\x89\xc3;'
p8266
tp8267
Rp8268
aa(lp8269
g2
(g6
S'\x00\x7f\x0c<'
p8270
tp8271
Rp8272
ag2
(g6
S'S\x86\xe2:'
p8273
tp8274
Rp8275
ag2
(g6
S'\x13\x91\x11;'
p8276
tp8277
Rp8278
ag2
(g6
S'\x7f\xb1B;'
p8279
tp8280
Rp8281
ag2
(g6
S'\xd0\x89\xfb9'
p8282
tp8283
Rp8284
ag2
(g6
S'\xd9_+;'
p8285
tp8286
Rp8287
ag2
(g6
S'\x8f@\xea;'
p8288
tp8289
Rp8290
ag2
(g6
S'\x94\x18d;'
p8291
tp8292
Rp8293
ag2
(g6
S'U6\xaf;'
p8294
tp8295
Rp8296
ag2
(g6
S'\xf4\x7ft@'
p8297
tp8298
Rp8299
ag2
(g6
S'\x1bgt@'
p8300
tp8301
Rp8302
ag2
(g6
S'\x9f\xfal@'
p8303
tp8304
Rp8305
ag2
(g6
S'\xcc\xa6b='
p8306
tp8307
Rp8308
ag2
(g6
S'n~\x1e='
p8309
tp8310
Rp8311
ag2
(g6
S't\t\xea<'
p8312
tp8313
Rp8314
ag2
(g6
S'\x0b\x93\xb4<'
p8315
tp8316
Rp8317
ag2
(g6
S'c\x18\x89;'
p8318
tp8319
Rp8320
ag2
(g6
S'\xcc\xf7\x91<'
p8321
tp8322
Rp8323
ag2
(g6
S'\x8b\x83\xc4:'
p8324
tp8325
Rp8326
ag2
(g6
S'\xf1)\x87;'
p8327
tp8328
Rp8329
ag2
(g6
S'q\x82\x83;'
p8330
tp8331
Rp8332
ag2
(g6
S'\x0bz!<'
p8333
tp8334
Rp8335
ag2
(g6
S'\xc9\x1f\x9b:'
p8336
tp8337
Rp8338
ag2
(g6
S'\xe0\x96@;'
p8339
tp8340
Rp8341
ag2
(g6
S'\xc8\xc6\x0b;'
p8342
tp8343
Rp8344
ag2
(g6
S'S\x01\xdf;'
p8345
tp8346
Rp8347
ag2
(g6
S'\xf5+r:'
p8348
tp8349
Rp8350
ag2
(g6
S'01\x84;'
p8351
tp8352
Rp8353
ag2
(g6
S'\x14\xab-;'
p8354
tp8355
Rp8356
ag2
(g6
S'?\xc1q:'
p8357
tp8358
Rp8359
ag2
(g6
S'\x15w\xfa;'
p8360
tp8361
Rp8362
ag2
(g6
S'_\xf0\xb4;'
p8363
tp8364
Rp8365
ag2
(g6
S'\x13\xd9b;'
p8366
tp8367
Rp8368
ag2
(g6
S'h\xc6\x87:'
p8369
tp8370
Rp8371
ag2
(g6
S'\xd8\x8f\xa6;'
p8372
tp8373
Rp8374
ag2
(g6
S'\xf7i\xa4;'
p8375
tp8376
Rp8377
aa(lp8378
g2
(g6
S'\x1b+\xc8:'
p8379
tp8380
Rp8381
ag2
(g6
S'\xd7\x00V:'
p8382
tp8383
Rp8384
ag2
(g6
S'\x8e\xdb\x1f:'
p8385
tp8386
Rp8387
ag2
(g6
S'\xb0r\xd7:'
p8388
tp8389
Rp8390
ag2
(g6
S'\xaei\x1b9'
p8391
tp8392
Rp8393
ag2
(g6
S'\x97\xd8i:'
p8394
tp8395
Rp8396
ag2
(g6
S'+\xc5\xc0:'
p8397
tp8398
Rp8399
ag2
(g6
S'\xc1\xac\xbf:'
p8400
tp8401
Rp8402
ag2
(g6
S'\xf0\xc07;'
p8403
tp8404
Rp8405
ag2
(g6
S'\x13\xf4\xa5;'
p8406
tp8407
Rp8408
ag2
(g6
S'\x90\xd5*<'
p8409
tp8410
Rp8411
ag2
(g6
S'\xa8\x1d\x11<'
p8412
tp8413
Rp8414
ag2
(g6
S'+W\x10='
p8415
tp8416
Rp8417
ag2
(g6
S'{\xcc\x82<'
p8418
tp8419
Rp8420
ag2
(g6
S'\xa5\x08\xa89'
p8421
tp8422
Rp8423
ag2
(g6
S'\xfd\xd9\x1a:'
p8424
tp8425
Rp8426
ag2
(g6
S'\x1d)\xaa:'
p8427
tp8428
Rp8429
ag2
(g6
S'\xcb@\x87:'
p8430
tp8431
Rp8432
ag2
(g6
S'\xe8\xc9|:'
p8433
tp8434
Rp8435
ag2
(g6
S'\xe9\x01k9'
p8436
tp8437
Rp8438
ag2
(g6
S'\xb9\x90j<'
p8439
tp8440
Rp8441
ag2
(g6
S'\x830\xdf<'
p8442
tp8443
Rp8444
ag2
(g6
S'\xcb\xd9\x87<'
p8445
tp8446
Rp8447
ag2
(g6
S'[\xda=<'
p8448
tp8449
Rp8450
ag2
(g6
S'\xec\x82\x92<'
p8451
tp8452
Rp8453
ag2
(g6
S'oX\x8e;'
p8454
tp8455
Rp8456
ag2
(g6
S'H\xb5\xf6;'
p8457
tp8458
Rp8459
ag2
(g6
S',\x12C='
p8460
tp8461
Rp8462
ag2
(g6
S'\xd8\xdf\xcd;'
p8463
tp8464
Rp8465
ag2
(g6
S'c\xcc\x8e<'
p8466
tp8467
Rp8468
ag2
(g6
S'\r\xa3\xf5<'
p8469
tp8470
Rp8471
ag2
(g6
S'7\t\x8e<'
p8472
tp8473
Rp8474
ag2
(g6
S'\xe4\xab\x81<'
p8475
tp8476
Rp8477
ag2
(g6
S'{[\xd6<'
p8478
tp8479
Rp8480
ag2
(g6
S'\xc5+\xba:'
p8481
tp8482
Rp8483
ag2
(g6
S'\\\x03d:'
p8484
tp8485
Rp8486
aa(lp8487
g2
(g6
S'\x15\x02\xa2:'
p8488
tp8489
Rp8490
ag2
(g6
S'\xff\xa5\xe0:'
p8491
tp8492
Rp8493
ag2
(g6
S'9\x10\x96:'
p8494
tp8495
Rp8496
ag2
(g6
S'\xf7\xea\xa9:'
p8497
tp8498
Rp8499
ag2
(g6
S'\x94W\xb29'
p8500
tp8501
Rp8502
ag2
(g6
S'\x9dL\n;'
p8503
tp8504
Rp8505
ag2
(g6
S'\x1b6\xe8;'
p8506
tp8507
Rp8508
ag2
(g6
S'8\xdcY<'
p8509
tp8510
Rp8511
ag2
(g6
S'\xa1\xcc\xa2;'
p8512
tp8513
Rp8514
ag2
(g6
S'\xa5\xa9p;'
p8515
tp8516
Rp8517
ag2
(g6
S'\x00\xb3\xd6;'
p8518
tp8519
Rp8520
ag2
(g6
S'\x04\xc9\x95;'
p8521
tp8522
Rp8523
ag2
(g6
S'\xc9\xaf\x90;'
p8524
tp8525
Rp8526
ag2
(g6
S'\xe0\xfb\x02;'
p8527
tp8528
Rp8529
ag2
(g6
S'\x91\xb7\x80;'
p8530
tp8531
Rp8532
ag2
(g6
S'\x1d\xef\xeb:'
p8533
tp8534
Rp8535
ag2
(g6
S'&d\x06<'
p8536
tp8537
Rp8538
ag2
(g6
S'$s\x1d:'
p8539
tp8540
Rp8541
ag2
(g6
S'\x85jN:'
p8542
tp8543
Rp8544
ag2
(g6
S'\xd75\xd0:'
p8545
tp8546
Rp8547
ag2
(g6
S'\x94%o;'
p8548
tp8549
Rp8550
ag2
(g6
S'@\xf8[;'
p8551
tp8552
Rp8553
ag2
(g6
S'wV\xc6;'
p8554
tp8555
Rp8556
ag2
(g6
S'\xd9\xa86<'
p8557
tp8558
Rp8559
ag2
(g6
S'\xdcC\x05<'
p8560
tp8561
Rp8562
ag2
(g6
S'U\x8a\xfd;'
p8563
tp8564
Rp8565
ag2
(g6
S'sBn;'
p8566
tp8567
Rp8568
ag2
(g6
S'\xc0\x18P:'
p8569
tp8570
Rp8571
ag2
(g6
S'{\xdb_:'
p8572
tp8573
Rp8574
ag2
(g6
S'\x1d\xba\x9a:'
p8575
tp8576
Rp8577
ag2
(g6
S'c+e;'
p8578
tp8579
Rp8580
ag2
(g6
S'lk\xb7:'
p8581
tp8582
Rp8583
ag2
(g6
S'\xdc\xee\xe2;'
p8584
tp8585
Rp8586
ag2
(g6
S'@l\xd1<'
p8587
tp8588
Rp8589
ag2
(g6
S'\x1dh3>'
p8590
tp8591
Rp8592
ag2
(g6
S'/"\xa29'
p8593
tp8594
Rp8595
aa(lp8596
g2
(g6
S'y\xf49;'
p8597
tp8598
Rp8599
ag2
(g6
S'\xe8\x80d:'
p8600
tp8601
Rp8602
ag2
(g6
S'\x03v];'
p8603
tp8604
Rp8605
ag2
(g6
S'UF\xd2:'
p8606
tp8607
Rp8608
ag2
(g6
S'aU\x92:'
p8609
tp8610
Rp8611
ag2
(g6
S'\xc7G\x11:'
p8612
tp8613
Rp8614
ag2
(g6
S'_}\x97:'
p8615
tp8616
Rp8617
ag2
(g6
S'7ML9'
p8618
tp8619
Rp8620
ag2
(g6
S'[\x9e\xb6:'
p8621
tp8622
Rp8623
ag2
(g6
S'\x851\t;'
p8624
tp8625
Rp8626
ag2
(g6
S'\xc5^R:'
p8627
tp8628
Rp8629
ag2
(g6
S'4\xc5\xe5:'
p8630
tp8631
Rp8632
ag2
(g6
S'\x82\xed\x14;'
p8633
tp8634
Rp8635
ag2
(g6
S'\x98%\xe49'
p8636
tp8637
Rp8638
ag2
(g6
S'\xbf\xc3\x9e:'
p8639
tp8640
Rp8641
ag2
(g6
S',\xef\x80:'
p8642
tp8643
Rp8644
ag2
(g6
S'\xcdkW;'
p8645
tp8646
Rp8647
ag2
(g6
S'=\xb0\x01<'
p8648
tp8649
Rp8650
ag2
(g6
S'\xb9\xfd-<'
p8651
tp8652
Rp8653
ag2
(g6
S'KDB<'
p8654
tp8655
Rp8656
ag2
(g6
S'\xe4\xe5\xdb;'
p8657
tp8658
Rp8659
ag2
(g6
S'\x1f\x1d9;'
p8660
tp8661
Rp8662
ag2
(g6
S'_H\xa8;'
p8663
tp8664
Rp8665
ag2
(g6
S'd%\x949'
p8666
tp8667
Rp8668
ag2
(g6
S'\xac(\xb5:'
p8669
tp8670
Rp8671
ag2
(g6
S'pu\xbd:'
p8672
tp8673
Rp8674
ag2
(g6
S'y\xe3\x9a;'
p8675
tp8676
Rp8677
ag2
(g6
S'\xa8C\xca;'
p8678
tp8679
Rp8680
ag2
(g6
S'\x91l\xf8<'
p8681
tp8682
Rp8683
ag2
(g6
S'\x04}\x90:'
p8684
tp8685
Rp8686
ag2
(g6
S'\xe9\xa8\x11:'
p8687
tp8688
Rp8689
ag2
(g6
S'\xe1\x07\x19='
p8690
tp8691
Rp8692
ag2
(g6
S'\x11\xe9\x82@'
p8693
tp8694
Rp8695
ag2
(g6
S'y\x84\x1a>'
p8696
tp8697
Rp8698
ag2
(g6
S'\xed`\xd0;'
p8699
tp8700
Rp8701
ag2
(g6
S'\x03\xf1Z<'
p8702
tp8703
Rp8704
aa(lp8705
g2
(g6
S'|\x87\xb0;'
p8706
tp8707
Rp8708
ag2
(g6
S'i[\xd0:'
p8709
tp8710
Rp8711
ag2
(g6
S'\x08\xb9\x839'
p8712
tp8713
Rp8714
ag2
(g6
S'\x00\xf9\x089'
p8715
tp8716
Rp8717
ag2
(g6
S'\x9aZ\xa48'
p8718
tp8719
Rp8720
ag2
(g6
S'\x1d\xa4r9'
p8721
tp8722
Rp8723
ag2
(g6
S'. \x88:'
p8724
tp8725
Rp8726
ag2
(g6
S'd\xf8+:'
p8727
tp8728
Rp8729
ag2
(g6
S'\xc0\xd1\xfa9'
p8730
tp8731
Rp8732
ag2
(g6
S'X\x85<;'
p8733
tp8734
Rp8735
ag2
(g6
S'\xba\x97\x12;'
p8736
tp8737
Rp8738
ag2
(g6
S'\x93\x0b-:'
p8739
tp8740
Rp8741
ag2
(g6
S'\xd1\xca\xa9:'
p8742
tp8743
Rp8744
ag2
(g6
S'\xcd\x08\x8e9'
p8745
tp8746
Rp8747
ag2
(g6
S'\x80#J:'
p8748
tp8749
Rp8750
ag2
(g6
S'\x8d^V:'
p8751
tp8752
Rp8753
ag2
(g6
S'c\xedp9'
p8754
tp8755
Rp8756
ag2
(g6
S'}\xf6\xb79'
p8757
tp8758
Rp8759
ag2
(g6
S'e$u8'
p8760
tp8761
Rp8762
ag2
(g6
S'\x8f~\xba8'
p8763
tp8764
Rp8765
ag2
(g6
S'#\xe3\xd09'
p8766
tp8767
Rp8768
ag2
(g6
S'\xf4R\x17:'
p8769
tp8770
Rp8771
ag2
(g6
S'\x97\xb9\xef:'
p8772
tp8773
Rp8774
ag2
(g6
S'\x074\xb5:'
p8775
tp8776
Rp8777
ag2
(g6
S's\x13\xa0:'
p8778
tp8779
Rp8780
ag2
(g6
S'K\xb5\x06;'
p8781
tp8782
Rp8783
ag2
(g6
S'\xad-\r:'
p8784
tp8785
Rp8786
ag2
(g6
S'\xed\x1d\xbe9'
p8787
tp8788
Rp8789
ag2
(g6
S'\xc0D\xdd9'
p8790
tp8791
Rp8792
ag2
(g6
S'm\xa4Z;'
p8793
tp8794
Rp8795
ag2
(g6
S'\x05\xc1f:'
p8796
tp8797
Rp8798
ag2
(g6
S'X\x17\x8b;'
p8799
tp8800
Rp8801
ag2
(g6
S'5$D;'
p8802
tp8803
Rp8804
ag2
(g6
S'8\xf2\xa5;'
p8805
tp8806
Rp8807
ag2
(g6
S'\xb0\xb8P:'
p8808
tp8809
Rp8810
ag2
(g6
S'\xa72\x17:'
p8811
tp8812
Rp8813
aa(lp8814
g2
(g6
S'\xee\x8d\x10;'
p8815
tp8816
Rp8817
ag2
(g6
S'MP\x07;'
p8818
tp8819
Rp8820
ag2
(g6
S'\x81Y\xe5:'
p8821
tp8822
Rp8823
ag2
(g6
S'\xe5\xb4`;'
p8824
tp8825
Rp8826
ag2
(g6
S'fd*;'
p8827
tp8828
Rp8829
ag2
(g6
S'\xc3\xf7E;'
p8830
tp8831
Rp8832
ag2
(g6
S'\xb6\xf0\x04<'
p8833
tp8834
Rp8835
ag2
(g6
S'\xea\xb6 <'
p8836
tp8837
Rp8838
ag2
(g6
S'\xa4\x9do;'
p8839
tp8840
Rp8841
ag2
(g6
S'4\x9a\xab:'
p8842
tp8843
Rp8844
ag2
(g6
S'\xff\x8bC:'
p8845
tp8846
Rp8847
ag2
(g6
S'\xb5OF;'
p8848
tp8849
Rp8850
ag2
(g6
S'\xdb\x87\x16:'
p8851
tp8852
Rp8853
ag2
(g6
S'\xa8d\x7f;'
p8854
tp8855
Rp8856
ag2
(g6
S'3\xc1\x11<'
p8857
tp8858
Rp8859
ag2
(g6
S'\xf0NA;'
p8860
tp8861
Rp8862
ag2
(g6
S'\xdd\xf6F;'
p8863
tp8864
Rp8865
ag2
(g6
S'(\xf2h;'
p8866
tp8867
Rp8868
ag2
(g6
S'l\x9f\xb0;'
p8869
tp8870
Rp8871
ag2
(g6
S'\xd3\xd1\xe8;'
p8872
tp8873
Rp8874
ag2
(g6
S'\xa6\xbf\x93;'
p8875
tp8876
Rp8877
ag2
(g6
S'1\x05\xc4:'
p8878
tp8879
Rp8880
ag2
(g6
S'J\xc4\x80;'
p8881
tp8882
Rp8883
ag2
(g6
S'e\x88\x06<'
p8884
tp8885
Rp8886
ag2
(g6
S'p\xd8\x11='
p8887
tp8888
Rp8889
ag2
(g6
S'\\\x0bG:'
p8890
tp8891
Rp8892
ag2
(g6
S'\xd7H\x8c='
p8893
tp8894
Rp8895
ag2
(g6
S'\x88Z~='
p8896
tp8897
Rp8898
ag2
(g6
S'\xbfx\x1a='
p8899
tp8900
Rp8901
ag2
(g6
S'\x10\xf5\xdd<'
p8902
tp8903
Rp8904
ag2
(g6
S'\xb9=\x8d:'
p8905
tp8906
Rp8907
ag2
(g6
S'\x88\xd3\x0e:'
p8908
tp8909
Rp8910
ag2
(g6
S'\xfbm\x05;'
p8911
tp8912
Rp8913
ag2
(g6
S'\x90\xcc$;'
p8914
tp8915
Rp8916
ag2
(g6
S'\xac\xa2\xf5:'
p8917
tp8918
Rp8919
ag2
(g6
S'\xae\xcc\x03:'
p8920
tp8921
Rp8922
aa(lp8923
g2
(g6
S'y\x08\xbb:'
p8924
tp8925
Rp8926
ag2
(g6
S'\xe7\x15\xc3:'
p8927
tp8928
Rp8929
ag2
(g6
S"\xd6\t':"
p8930
tp8931
Rp8932
ag2
(g6
S"'\x8a\xa8:"
p8933
tp8934
Rp8935
ag2
(g6
S'\xf4Q\xc1:'
p8936
tp8937
Rp8938
ag2
(g6
S'\xc8$\x8b:'
p8939
tp8940
Rp8941
ag2
(g6
S'u\x95l;'
p8942
tp8943
Rp8944
ag2
(g6
S'+\xe8\xb8:'
p8945
tp8946
Rp8947
ag2
(g6
S'\x15\xbe_;'
p8948
tp8949
Rp8950
ag2
(g6
S'\x99\xfd\x16<'
p8951
tp8952
Rp8953
ag2
(g6
S'\x02\xd6\x07<'
p8954
tp8955
Rp8956
ag2
(g6
S'\xc3\xf5\xf2;'
p8957
tp8958
Rp8959
ag2
(g6
S'\x1b\x8d\xf7;'
p8960
tp8961
Rp8962
ag2
(g6
S'}F\xac;'
p8963
tp8964
Rp8965
ag2
(g6
S's\x13\xbd;'
p8966
tp8967
Rp8968
ag2
(g6
S'Y\xea+;'
p8969
tp8970
Rp8971
ag2
(g6
S'@\xec\x15:'
p8972
tp8973
Rp8974
ag2
(g6
S'\x18:\xcd;'
p8975
tp8976
Rp8977
ag2
(g6
S'\rG{;'
p8978
tp8979
Rp8980
ag2
(g6
S'v\xdb\x08;'
p8981
tp8982
Rp8983
ag2
(g6
S'e\x16O;'
p8984
tp8985
Rp8986
ag2
(g6
S'Xk\xfe;'
p8987
tp8988
Rp8989
ag2
(g6
S'O\x96v<'
p8990
tp8991
Rp8992
ag2
(g6
S"\x0f!'<"
p8993
tp8994
Rp8995
ag2
(g6
S'E\x9d\x1c;'
p8996
tp8997
Rp8998
ag2
(g6
S'4\x85\xc0:'
p8999
tp9000
Rp9001
ag2
(g6
S'\x91J\x06<'
p9002
tp9003
Rp9004
ag2
(g6
S'\x8b&\xcc;'
p9005
tp9006
Rp9007
ag2
(g6
S'\x81r";'
p9008
tp9009
Rp9010
ag2
(g6
S'a\xe1\x94:'
p9011
tp9012
Rp9013
ag2
(g6
S'eC>;'
p9014
tp9015
Rp9016
ag2
(g6
S'\xd5\xacI;'
p9017
tp9018
Rp9019
ag2
(g6
S'\xa01Q<'
p9020
tp9021
Rp9022
ag2
(g6
S'T\xbe\x04<'
p9023
tp9024
Rp9025
ag2
(g6
S'\xff\x1c\\<'
p9026
tp9027
Rp9028
ag2
(g6
S'\xd5q\x13<'
p9029
tp9030
Rp9031
aa(lp9032
g2
(g6
S'\xb1\xd9\xf7;'
p9033
tp9034
Rp9035
ag2
(g6
S'\x9dl\xef;'
p9036
tp9037
Rp9038
ag2
(g6
S'\xe4\x92\xe4;'
p9039
tp9040
Rp9041
ag2
(g6
S'\xb3\x0e\x94;'
p9042
tp9043
Rp9044
ag2
(g6
S'?\xe4\x06;'
p9045
tp9046
Rp9047
ag2
(g6
S' \x85\xab:'
p9048
tp9049
Rp9050
ag2
(g6
S'\xeb\xdf\xcb:'
p9051
tp9052
Rp9053
ag2
(g6
S'\xfbm\xb1:'
p9054
tp9055
Rp9056
ag2
(g6
S'\xff)N;'
p9057
tp9058
Rp9059
ag2
(g6
S'8U\x1f;'
p9060
tp9061
Rp9062
ag2
(g6
S'\xd0Y\xeb:'
p9063
tp9064
Rp9065
ag2
(g6
S';Zs;'
p9066
tp9067
Rp9068
ag2
(g6
S'\xf0\xba\xfb;'
p9069
tp9070
Rp9071
ag2
(g6
S'\x919T='
p9072
tp9073
Rp9074
ag2
(g6
S'\xc5\x1e\x00;'
p9075
tp9076
Rp9077
ag2
(g6
S'\x8f\x13\x07='
p9078
tp9079
Rp9080
ag2
(g6
S'\xd4{G='
p9081
tp9082
Rp9083
ag2
(g6
S'\xbc\xd2q:'
p9084
tp9085
Rp9086
ag2
(g6
S'9\xae\xd6:'
p9087
tp9088
Rp9089
ag2
(g6
S'\x90xh;'
p9090
tp9091
Rp9092
ag2
(g6
S'\x8b\xf1\x8c<'
p9093
tp9094
Rp9095
ag2
(g6
S'\xc7\ru;'
p9096
tp9097
Rp9098
ag2
(g6
S'\xe7n{@'
p9099
tp9100
Rp9101
ag2
(g6
S'Y\xee\x05='
p9102
tp9103
Rp9104
ag2
(g6
S'\xce-\x809'
p9105
tp9106
Rp9107
ag2
(g6
S'\xf9\x1b\xf1;'
p9108
tp9109
Rp9110
ag2
(g6
S'P\xa26:'
p9111
tp9112
Rp9113
ag2
(g6
S'\xeb\xc0\xc3:'
p9114
tp9115
Rp9116
ag2
(g6
S'\x9f\x0b\xa99'
p9117
tp9118
Rp9119
ag2
(g6
S'u?\xbb;'
p9120
tp9121
Rp9122
ag2
(g6
S'\tCm<'
p9123
tp9124
Rp9125
ag2
(g6
S'\x8daR='
p9126
tp9127
Rp9128
ag2
(g6
S';%}<'
p9129
tp9130
Rp9131
ag2
(g6
S'\xf9\x1e\xa9<'
p9132
tp9133
Rp9134
ag2
(g6
S'\xb0\xf4\xb2:'
p9135
tp9136
Rp9137
ag2
(g6
S'\x08\xab\xe6;'
p9138
tp9139
Rp9140
aa(lp9141
g2
(g6
S'yrS;'
p9142
tp9143
Rp9144
ag2
(g6
S'\x8bB\xf89'
p9145
tp9146
Rp9147
ag2
(g6
S'}\xd9=:'
p9148
tp9149
Rp9150
ag2
(g6
S'\xcbof:'
p9151
tp9152
Rp9153
ag2
(g6
S'\x87\xb7\x9b:'
p9154
tp9155
Rp9156
ag2
(g6
S'\x98\xeb\x16;'
p9157
tp9158
Rp9159
ag2
(g6
S'{8\x8d:'
p9160
tp9161
Rp9162
ag2
(g6
S'\xffB\x0f:'
p9163
tp9164
Rp9165
ag2
(g6
S'\xc4\x1bl;'
p9166
tp9167
Rp9168
ag2
(g6
S'P4\xda;'
p9169
tp9170
Rp9171
ag2
(g6
S'\xbb\xb6\xe4;'
p9172
tp9173
Rp9174
ag2
(g6
S'\x80\xc2\xaf;'
p9175
tp9176
Rp9177
ag2
(g6
S'\x1b\x1c\xa5:'
p9178
tp9179
Rp9180
ag2
(g6
S'+\xca\x9c:'
p9181
tp9182
Rp9183
ag2
(g6
S'\x9c\x90|:'
p9184
tp9185
Rp9186
ag2
(g6
S'{`}:'
p9187
tp9188
Rp9189
ag2
(g6
S'\xc0qG:'
p9190
tp9191
Rp9192
ag2
(g6
S'\xbd"\x1a:'
p9193
tp9194
Rp9195
ag2
(g6
S'\xb7\xb0J:'
p9196
tp9197
Rp9198
ag2
(g6
S';\x03j9'
p9199
tp9200
Rp9201
ag2
(g6
S'$\xbe\x06:'
p9202
tp9203
Rp9204
ag2
(g6
S'i~\x089'
p9205
tp9206
Rp9207
ag2
(g6
S'H\x16v;'
p9208
tp9209
Rp9210
ag2
(g6
S'\x0f5\x88;'
p9211
tp9212
Rp9213
ag2
(g6
S'\x89\xfa\x0c<'
p9214
tp9215
Rp9216
ag2
(g6
S'\x949^<'
p9217
tp9218
Rp9219
ag2
(g6
S'+q\xe8<'
p9220
tp9221
Rp9222
ag2
(g6
S'=y\x04;'
p9223
tp9224
Rp9225
ag2
(g6
S'\x10L/:'
p9226
tp9227
Rp9228
ag2
(g6
S'\xd5\x8f\xaf:'
p9229
tp9230
Rp9231
ag2
(g6
S'\xcf\x9c\xdc:'
p9232
tp9233
Rp9234
ag2
(g6
S"\xf3');"
p9235
tp9236
Rp9237
ag2
(g6
S'd\xf9h;'
p9238
tp9239
Rp9240
ag2
(g6
S'\x8f`\x1e;'
p9241
tp9242
Rp9243
ag2
(g6
S')Bb:'
p9244
tp9245
Rp9246
ag2
(g6
S'i\xb3\x9a8'
p9247
tp9248
Rp9249
aa(lp9250
g2
(g6
S'\xb5#\xf69'
p9251
tp9252
Rp9253
ag2
(g6
S'\xc9L\xb89'
p9254
tp9255
Rp9256
ag2
(g6
S'\xf35\x089'
p9257
tp9258
Rp9259
ag2
(g6
S'a\xa7\xa1:'
p9260
tp9261
Rp9262
ag2
(g6
S'\xf7L\xb59'
p9263
tp9264
Rp9265
ag2
(g6
S"'\x19D:"
p9266
tp9267
Rp9268
ag2
(g6
S'\x98\xf4-;'
p9269
tp9270
Rp9271
ag2
(g6
S'_\x94D<'
p9272
tp9273
Rp9274
ag2
(g6
S'\x1f\xaa\x87<'
p9275
tp9276
Rp9277
ag2
(g6
S'\x88\x81\xb8;'
p9278
tp9279
Rp9280
ag2
(g6
S'M\xb7\x94:'
p9281
tp9282
Rp9283
ag2
(g6
S'\x18\xed\xc4:'
p9284
tp9285
Rp9286
ag2
(g6
S'\x84\xd6\xb1:'
p9287
tp9288
Rp9289
ag2
(g6
S'\x0f\xba\x06:'
p9290
tp9291
Rp9292
ag2
(g6
S'\r%\xce9'
p9293
tp9294
Rp9295
ag2
(g6
S'\xcf\xdc\xb2:'
p9296
tp9297
Rp9298
ag2
(g6
S'\xa4\x83\xf5:'
p9299
tp9300
Rp9301
ag2
(g6
S'\x0c\xd6O:'
p9302
tp9303
Rp9304
ag2
(g6
S'=fU;'
p9305
tp9306
Rp9307
ag2
(g6
S'\x97\x07\x88;'
p9308
tp9309
Rp9310
ag2
(g6
S'S\xc9u:'
p9311
tp9312
Rp9313
ag2
(g6
S'5#\xfc:'
p9314
tp9315
Rp9316
ag2
(g6
S'\xe0\xc4!<'
p9317
tp9318
Rp9319
ag2
(g6
S'\xfbY\xc5;'
p9320
tp9321
Rp9322
ag2
(g6
S'\xd8\xeao<'
p9323
tp9324
Rp9325
ag2
(g6
S'\x07\x96#:'
p9326
tp9327
Rp9328
ag2
(g6
S'@er:'
p9329
tp9330
Rp9331
ag2
(g6
S'}\xf0j;'
p9332
tp9333
Rp9334
ag2
(g6
S'\xc8\xdc\x85<'
p9335
tp9336
Rp9337
ag2
(g6
S'X\x95q@'
p9338
tp9339
Rp9340
ag2
(g6
S'\xa3\x0bv@'
p9341
tp9342
Rp9343
ag2
(g6
S'\x17Kr@'
p9344
tp9345
Rp9346
ag2
(g6
S'_o\x99='
p9347
tp9348
Rp9349
ag2
(g6
S'.\xe2\xa3;'
p9350
tp9351
Rp9352
ag2
(g6
S'\xd9\xf7\x1f='
p9353
tp9354
Rp9355
ag2
(g6
S'3\xae1<'
p9356
tp9357
Rp9358
aa(lp9359
g2
(g6
S's\xd9\r<'
p9360
tp9361
Rp9362
ag2
(g6
S'\xe2W\x01<'
p9363
tp9364
Rp9365
ag2
(g6
S'OsE;'
p9366
tp9367
Rp9368
ag2
(g6
S'\x0e\xed\x89<'
p9369
tp9370
Rp9371
ag2
(g6
S'i_[:'
p9372
tp9373
Rp9374
ag2
(g6
S'\xcb;\xa0;'
p9375
tp9376
Rp9377
ag2
(g6
S'\xfd\x7fm;'
p9378
tp9379
Rp9380
ag2
(g6
S'S8Q;'
p9381
tp9382
Rp9383
ag2
(g6
S'=\xbc\xc5:'
p9384
tp9385
Rp9386
ag2
(g6
S'=\xa2\x13;'
p9387
tp9388
Rp9389
ag2
(g6
S'\xa37\x8a<'
p9390
tp9391
Rp9392
ag2
(g6
S'\x05N\xf1:'
p9393
tp9394
Rp9395
ag2
(g6
S'\x05Yt@'
p9396
tp9397
Rp9398
ag2
(g6
S'S\xfc\x1e='
p9399
tp9400
Rp9401
ag2
(g6
S']\xdc~;'
p9402
tp9403
Rp9404
ag2
(g6
S'E\xc7M<'
p9405
tp9406
Rp9407
ag2
(g6
S'\xc7\xe9\x16<'
p9408
tp9409
Rp9410
ag2
(g6
S',O\x82;'
p9411
tp9412
Rp9413
ag2
(g6
S'yI\\<'
p9414
tp9415
Rp9416
ag2
(g6
S'\ra\xd5:'
p9417
tp9418
Rp9419
ag2
(g6
S'\xbb\xcce<'
p9420
tp9421
Rp9422
ag2
(g6
S'k\x1a\xbd9'
p9423
tp9424
Rp9425
ag2
(g6
S'\x01\xccB<'
p9426
tp9427
Rp9428
ag2
(g6
S'\xed\xce7;'
p9429
tp9430
Rp9431
ag2
(g6
S'\xe5\xea6<'
p9432
tp9433
Rp9434
ag2
(g6
S'\x1c\xfe\xdd;'
p9435
tp9436
Rp9437
ag2
(g6
S'cz\x8e;'
p9438
tp9439
Rp9440
ag2
(g6
S'\xa8\xfe,;'
p9441
tp9442
Rp9443
ag2
(g6
S'+\xb4I:'
p9444
tp9445
Rp9446
ag2
(g6
S'\xa0\xa4\xc3;'
p9447
tp9448
Rp9449
ag2
(g6
S'\xf0\x9c\xf49'
p9450
tp9451
Rp9452
ag2
(g6
S'I\xcf\xc6:'
p9453
tp9454
Rp9455
ag2
(g6
S'\xc9\rM;'
p9456
tp9457
Rp9458
ag2
(g6
S'\xf5W\x10;'
p9459
tp9460
Rp9461
ag2
(g6
S'u\xe7\x90:'
p9462
tp9463
Rp9464
ag2
(g6
S'I\x0e\x889'
p9465
tp9466
Rp9467
aa(lp9468
g2
(g6
S'\xe7s\xff9'
p9469
tp9470
Rp9471
ag2
(g6
S'\x81)\x89;'
p9472
tp9473
Rp9474
ag2
(g6
S'\x88\xad\xf89'
p9475
tp9476
Rp9477
ag2
(g6
S'\xb8r\x85;'
p9478
tp9479
Rp9480
ag2
(g6
S'|z\xb39'
p9481
tp9482
Rp9483
ag2
(g6
S'\xd6\x96\r;'
p9484
tp9485
Rp9486
ag2
(g6
S'knu;'
p9487
tp9488
Rp9489
ag2
(g6
S'\x1f\xbc\x1d;'
p9490
tp9491
Rp9492
ag2
(g6
S'\x90\xd1X:'
p9493
tp9494
Rp9495
ag2
(g6
S'E:\x83:'
p9496
tp9497
Rp9498
ag2
(g6
S'\xf8Xb;'
p9499
tp9500
Rp9501
ag2
(g6
S'\xf7h\xd8:'
p9502
tp9503
Rp9504
ag2
(g6
S'\x81:n;'
p9505
tp9506
Rp9507
ag2
(g6
S'\xfd%%<'
p9508
tp9509
Rp9510
ag2
(g6
S'3}\xc2;'
p9511
tp9512
Rp9513
ag2
(g6
S'p\x94\x989'
p9514
tp9515
Rp9516
ag2
(g6
S'9\xbe\x81:'
p9517
tp9518
Rp9519
ag2
(g6
S'\xf5\n\x07;'
p9520
tp9521
Rp9522
ag2
(g6
S'\xc73\x97:'
p9523
tp9524
Rp9525
ag2
(g6
S'!\xe729'
p9526
tp9527
Rp9528
ag2
(g6
S'\x81\xf7\x037'
p9529
tp9530
Rp9531
ag2
(g6
S'\xc0\\r9'
p9532
tp9533
Rp9534
ag2
(g6
S'Q^\x15:'
p9535
tp9536
Rp9537
ag2
(g6
S'?\x9b\x1e:'
p9538
tp9539
Rp9540
ag2
(g6
S'\\\xfe\xbc:'
p9541
tp9542
Rp9543
ag2
(g6
S'\xbf\xba\xbe;'
p9544
tp9545
Rp9546
ag2
(g6
S'J\xe7\x88:'
p9547
tp9548
Rp9549
ag2
(g6
S'\xb5\xc9\xf1:'
p9550
tp9551
Rp9552
ag2
(g6
S'm\x1e\xc8;'
p9553
tp9554
Rp9555
ag2
(g6
S'\x8bd[<'
p9556
tp9557
Rp9558
ag2
(g6
S'\xb17C<'
p9559
tp9560
Rp9561
ag2
(g6
S'\xd7-\xec;'
p9562
tp9563
Rp9564
ag2
(g6
S'\xfc|Z;'
p9565
tp9566
Rp9567
ag2
(g6
S'\xc5D\x95:'
p9568
tp9569
Rp9570
ag2
(g6
S',\x9a\xb8:'
p9571
tp9572
Rp9573
ag2
(g6
S'{\xc7\xdc:'
p9574
tp9575
Rp9576
aa(lp9577
g2
(g6
S'\xf6E\x08:'
p9578
tp9579
Rp9580
ag2
(g6
S'8.\x8c:'
p9581
tp9582
Rp9583
ag2
(g6
S'\x19\x88$;'
p9584
tp9585
Rp9586
ag2
(g6
S'\x81R\x00;'
p9587
tp9588
Rp9589
ag2
(g6
S'\x95\xc6\x18;'
p9590
tp9591
Rp9592
ag2
(g6
S'\xa1\x91\xe3:'
p9593
tp9594
Rp9595
ag2
(g6
S'\xd9\xb5\xdb:'
p9596
tp9597
Rp9598
ag2
(g6
S'\xfb\xd8\xab:'
p9599
tp9600
Rp9601
ag2
(g6
S'a\xaa\xca:'
p9602
tp9603
Rp9604
ag2
(g6
S'`O|;'
p9605
tp9606
Rp9607
ag2
(g6
S']\x14\xcc;'
p9608
tp9609
Rp9610
ag2
(g6
S'\x9d2\xa8:'
p9611
tp9612
Rp9613
ag2
(g6
S'+\xea\x8c:'
p9614
tp9615
Rp9616
ag2
(g6
S'\x05\xa7\xec:'
p9617
tp9618
Rp9619
ag2
(g6
S'ZD\x9d:'
p9620
tp9621
Rp9622
ag2
(g6
S'\xb7\xc1\xc0;'
p9623
tp9624
Rp9625
ag2
(g6
S'\x88\x04u<'
p9626
tp9627
Rp9628
ag2
(g6
S'\x14C\xa5;'
p9629
tp9630
Rp9631
ag2
(g6
S'8o\xba;'
p9632
tp9633
Rp9634
ag2
(g6
S'f\x92\x99:'
p9635
tp9636
Rp9637
ag2
(g6
S'\xcb\xd9p:'
p9638
tp9639
Rp9640
ag2
(g6
S'\xe0V2;'
p9641
tp9642
Rp9643
ag2
(g6
S'3[`:'
p9644
tp9645
Rp9646
ag2
(g6
S'l\x05\xaa:'
p9647
tp9648
Rp9649
ag2
(g6
S'\xb1`\x0c;'
p9650
tp9651
Rp9652
ag2
(g6
S'g\xe2\x85;'
p9653
tp9654
Rp9655
ag2
(g6
S'\xf7\xe8X<'
p9656
tp9657
Rp9658
ag2
(g6
S'SCI;'
p9659
tp9660
Rp9661
ag2
(g6
S'\x99K\x19;'
p9662
tp9663
Rp9664
ag2
(g6
S'\xedMQ<'
p9665
tp9666
Rp9667
ag2
(g6
S'\xe9\xe1\xa0<'
p9668
tp9669
Rp9670
ag2
(g6
S'\x17\xaa\x1c<'
p9671
tp9672
Rp9673
ag2
(g6
S'\x83;\xd3;'
p9674
tp9675
Rp9676
ag2
(g6
S'\x11P\xcb;'
p9677
tp9678
Rp9679
ag2
(g6
S'\x81\x04,;'
p9680
tp9681
Rp9682
ag2
(g6
S'\xa7\xbaY;'
p9683
tp9684
Rp9685
aa(lp9686
g2
(g6
S'\x85\xfc\xee:'
p9687
tp9688
Rp9689
ag2
(g6
S'}8\xf5:'
p9690
tp9691
Rp9692
ag2
(g6
S'\xd7\x98);'
p9693
tp9694
Rp9695
ag2
(g6
S'WGM;'
p9696
tp9697
Rp9698
ag2
(g6
S'h\xb0T;'
p9699
tp9700
Rp9701
ag2
(g6
S'\x18\xc0\xbe:'
p9702
tp9703
Rp9704
ag2
(g6
S'k|\xbb:'
p9705
tp9706
Rp9707
ag2
(g6
S'\x1f\xdd\x03;'
p9708
tp9709
Rp9710
ag2
(g6
S'\xf1&\xa3:'
p9711
tp9712
Rp9713
ag2
(g6
S'@\xd9\x02;'
p9714
tp9715
Rp9716
ag2
(g6
S'C^@;'
p9717
tp9718
Rp9719
ag2
(g6
S'e\xd6\x06<'
p9720
tp9721
Rp9722
ag2
(g6
S'Z\x88\xa1<'
p9723
tp9724
Rp9725
ag2
(g6
S'8\x12\x84;'
p9726
tp9727
Rp9728
ag2
(g6
S'E\xe0.;'
p9729
tp9730
Rp9731
ag2
(g6
S'\x95\xaf\x88:'
p9732
tp9733
Rp9734
ag2
(g6
S'\xca{\x80;'
p9735
tp9736
Rp9737
ag2
(g6
S'\xb5\x0c\xd79'
p9738
tp9739
Rp9740
ag2
(g6
S'f\x1f\x08;'
p9741
tp9742
Rp9743
ag2
(g6
S'5\xf8(;'
p9744
tp9745
Rp9746
ag2
(g6
S'@$\xac;'
p9747
tp9748
Rp9749
ag2
(g6
S'\xb8\x04\xde;'
p9750
tp9751
Rp9752
ag2
(g6
S'\nW\x979'
p9753
tp9754
Rp9755
ag2
(g6
S'\x03\x07\xd9:'
p9756
tp9757
Rp9758
ag2
(g6
S'3x\xbe:'
p9759
tp9760
Rp9761
ag2
(g6
S'W\xc6a:'
p9762
tp9763
Rp9764
ag2
(g6
S'\xc3\x95\xfc:'
p9765
tp9766
Rp9767
ag2
(g6
S'\x03M\xce;'
p9768
tp9769
Rp9770
ag2
(g6
S';<\x9d;'
p9771
tp9772
Rp9773
ag2
(g6
S'Q\x1e.;'
p9774
tp9775
Rp9776
ag2
(g6
S'lW?<'
p9777
tp9778
Rp9779
ag2
(g6
S'\x0c2\xe9<'
p9780
tp9781
Rp9782
ag2
(g6
S'-\xf8#;'
p9783
tp9784
Rp9785
ag2
(g6
S'\xbbwG;'
p9786
tp9787
Rp9788
ag2
(g6
S'(4\xa8;'
p9789
tp9790
Rp9791
ag2
(g6
S'\x93\xc5\xa1;'
p9792
tp9793
Rp9794
aa(lp9795
g2
(g6
S'+\x8a\xbe;'
p9796
tp9797
Rp9798
ag2
(g6
S'\xef\x04\x14;'
p9799
tp9800
Rp9801
ag2
(g6
S'\xad\xad\xd1:'
p9802
tp9803
Rp9804
ag2
(g6
S'\xbd-\x13;'
p9805
tp9806
Rp9807
ag2
(g6
S'\xa3\r@;'
p9808
tp9809
Rp9810
ag2
(g6
S'\x0bZ\xc1:'
p9811
tp9812
Rp9813
ag2
(g6
S'\xc7n\xf7:'
p9814
tp9815
Rp9816
ag2
(g6
S'$\xbf\xc9:'
p9817
tp9818
Rp9819
ag2
(g6
S'Q\x8a\r;'
p9820
tp9821
Rp9822
ag2
(g6
S'\xef\x1b=;'
p9823
tp9824
Rp9825
ag2
(g6
S'\xb5gE;'
p9826
tp9827
Rp9828
ag2
(g6
S'\x14\x19\xcb;'
p9829
tp9830
Rp9831
ag2
(g6
S' \x86\xc3:'
p9832
tp9833
Rp9834
ag2
(g6
S'\xeb(\xa09'
p9835
tp9836
Rp9837
ag2
(g6
S'T\xad\xaf9'
p9838
tp9839
Rp9840
ag2
(g6
S'\x03\x0cx9'
p9841
tp9842
Rp9843
ag2
(g6
S'g\xaf\xd5:'
p9844
tp9845
Rp9846
ag2
(g6
S'l\x10\xb1;'
p9847
tp9848
Rp9849
ag2
(g6
S'i~\xbf;'
p9850
tp9851
Rp9852
ag2
(g6
S'\xc9\xaf\xfe;'
p9853
tp9854
Rp9855
ag2
(g6
S'\xf0\xf8\xcf;'
p9856
tp9857
Rp9858
ag2
(g6
S'P\x16\x06<'
p9859
tp9860
Rp9861
ag2
(g6
S'\xa0\xb0\xe0;'
p9862
tp9863
Rp9864
ag2
(g6
S'\xfbH^;'
p9865
tp9866
Rp9867
ag2
(g6
S'uZ\xff:'
p9868
tp9869
Rp9870
ag2
(g6
S'}\x10\xad:'
p9871
tp9872
Rp9873
ag2
(g6
S'\xc4\xc6\xe4:'
p9874
tp9875
Rp9876
ag2
(g6
S'\xf9%D:'
p9877
tp9878
Rp9879
ag2
(g6
S'#h\xc79'
p9880
tp9881
Rp9882
ag2
(g6
S' +:;'
p9883
tp9884
Rp9885
ag2
(g6
S'\x1c\xc7\xf7:'
p9886
tp9887
Rp9888
ag2
(g6
S'%\xad\x0c;'
p9889
tp9890
Rp9891
ag2
(g6
S'K\x8c\xb0;'
p9892
tp9893
Rp9894
ag2
(g6
S'I\xf9\xdc;'
p9895
tp9896
Rp9897
ag2
(g6
S'\xf6\xd4\x00<'
p9898
tp9899
Rp9900
ag2
(g6
S'\xb0\x8aK;'
p9901
tp9902
Rp9903
aa(lp9904
g2
(g6
S'\xcc\xc6Z:'
p9905
tp9906
Rp9907
ag2
(g6
S'\x03*\xb3:'
p9908
tp9909
Rp9910
ag2
(g6
S'\xad]?;'
p9911
tp9912
Rp9913
ag2
(g6
S'[7\x9e9'
p9914
tp9915
Rp9916
ag2
(g6
S'\xf8gE:'
p9917
tp9918
Rp9919
ag2
(g6
S'\xbf\xb2\xa4;'
p9920
tp9921
Rp9922
ag2
(g6
S'\xed\xaaU;'
p9923
tp9924
Rp9925
ag2
(g6
S'\xeb^\x0c;'
p9926
tp9927
Rp9928
ag2
(g6
S'\xb8\xfb\xd6:'
p9929
tp9930
Rp9931
ag2
(g6
S'\x9fd9;'
p9932
tp9933
Rp9934
ag2
(g6
S'o\xefv<'
p9935
tp9936
Rp9937
ag2
(g6
S']\x88\x8c<'
p9938
tp9939
Rp9940
ag2
(g6
S'q\x81\xe8:'
p9941
tp9942
Rp9943
ag2
(g6
S'\xb5`\x97:'
p9944
tp9945
Rp9946
ag2
(g6
S'hH:;'
p9947
tp9948
Rp9949
ag2
(g6
S')\xd1\x8b:'
p9950
tp9951
Rp9952
ag2
(g6
S'\xa9\x9f\x8b:'
p9953
tp9954
Rp9955
ag2
(g6
S'\xeb$F;'
p9956
tp9957
Rp9958
ag2
(g6
S'\x1b\xd5\x8f:'
p9959
tp9960
Rp9961
ag2
(g6
S'\x8b\x12\xed;'
p9962
tp9963
Rp9964
ag2
(g6
S'\xbfm\xff;'
p9965
tp9966
Rp9967
ag2
(g6
S';\x92\xf2;'
p9968
tp9969
Rp9970
ag2
(g6
S'\x8cZ\x9c:'
p9971
tp9972
Rp9973
ag2
(g6
S'\xc4\xd9\xda:'
p9974
tp9975
Rp9976
ag2
(g6
S'\n6\x8e;'
p9977
tp9978
Rp9979
ag2
(g6
S'|,\xec9'
p9980
tp9981
Rp9982
ag2
(g6
S'W\xf4\xb7:'
p9983
tp9984
Rp9985
ag2
(g6
S'=\x91J;'
p9986
tp9987
Rp9988
ag2
(g6
S'\x8c\xf1\x0b;'
p9989
tp9990
Rp9991
ag2
(g6
S'0n\xdf:'
p9992
tp9993
Rp9994
ag2
(g6
S'\xfd\xe0\xda:'
p9995
tp9996
Rp9997
ag2
(g6
S'\xa3\x15\x05;'
p9998
tp9999
Rp10000
ag2
(g6
S'\xa1\x99\x16;'
p10001
tp10002
Rp10003
ag2
(g6
S'8\x0c::'
p10004
tp10005
Rp10006
ag2
(g6
S'\xcbS\xcf:'
p10007
tp10008
Rp10009
ag2
(g6
S'4\xcd\x8c;'
p10010
tp10011
Rp10012
aa(lp10013
g2
(g6
S'\xcd\xec\x9d;'
p10014
tp10015
Rp10016
ag2
(g6
S'v}*<'
p10017
tp10018
Rp10019
ag2
(g6
S'\xe5G\n<'
p10020
tp10021
Rp10022
ag2
(g6
S'S.\x00<'
p10023
tp10024
Rp10025
ag2
(g6
S'\xdb{c;'
p10026
tp10027
Rp10028
ag2
(g6
S'_\x8e\x05;'
p10029
tp10030
Rp10031
ag2
(g6
S'/b\x959'
p10032
tp10033
Rp10034
ag2
(g6
S'\xc3E\xb9:'
p10035
tp10036
Rp10037
ag2
(g6
S'\xe7\\\x9c:'
p10038
tp10039
Rp10040
ag2
(g6
S"'\xd9\x8c:"
p10041
tp10042
Rp10043
ag2
(g6
S'\xf6&\x82:'
p10044
tp10045
Rp10046
ag2
(g6
S'\x8f\xb2\x05;'
p10047
tp10048
Rp10049
ag2
(g6
S'\xad\xebx;'
p10050
tp10051
Rp10052
ag2
(g6
S'\x08\xba\x93;'
p10053
tp10054
Rp10055
ag2
(g6
S' 6.<'
p10056
tp10057
Rp10058
ag2
(g6
S'\xb0\xd5~<'
p10059
tp10060
Rp10061
ag2
(g6
S'\x98\xa6\xe3<'
p10062
tp10063
Rp10064
ag2
(g6
S'\xa3\xe7\x12<'
p10065
tp10066
Rp10067
ag2
(g6
S'\xf7S\x93<'
p10068
tp10069
Rp10070
ag2
(g6
S'\x8f\xaf\x87@'
p10071
tp10072
Rp10073
ag2
(g6
S'/\xc9\x9c;'
p10074
tp10075
Rp10076
ag2
(g6
S'd(y;'
p10077
tp10078
Rp10079
ag2
(g6
S'\xe1\xd7\x1c;'
p10080
tp10081
Rp10082
ag2
(g6
S'\x1cf\xf8;'
p10083
tp10084
Rp10085
ag2
(g6
S'\x03\x0f\xce:'
p10086
tp10087
Rp10088
ag2
(g6
S'\x1b\xb3\x01:'
p10089
tp10090
Rp10091
ag2
(g6
S'y?\x90;'
p10092
tp10093
Rp10094
ag2
(g6
S's=\xac;'
p10095
tp10096
Rp10097
ag2
(g6
S'\xc5\xb7\xca:'
p10098
tp10099
Rp10100
ag2
(g6
S'\xf3\x94\xb3:'
p10101
tp10102
Rp10103
ag2
(g6
S'\xa4!\xeb:'
p10104
tp10105
Rp10106
ag2
(g6
S' \x08\xc49'
p10107
tp10108
Rp10109
ag2
(g6
S'\xdd\x90O9'
p10110
tp10111
Rp10112
ag2
(g6
S'\xd0 \x8a:'
p10113
tp10114
Rp10115
ag2
(g6
S'\\\xa5\x94:'
p10116
tp10117
Rp10118
ag2
(g6
S'\xf5\xe0\xa5:'
p10119
tp10120
Rp10121
aa(lp10122
g2
(g6
S'\xd5\xa3\xf19'
p10123
tp10124
Rp10125
ag2
(g6
S"'\x1f\xb6:"
p10126
tp10127
Rp10128
ag2
(g6
S'\x03pA:'
p10129
tp10130
Rp10131
ag2
(g6
S'U\xc8\x8e9'
p10132
tp10133
Rp10134
ag2
(g6
S'\x0b\x83\x8b9'
p10135
tp10136
Rp10137
ag2
(g6
S'w\xb8\x0c:'
p10138
tp10139
Rp10140
ag2
(g6
S'@\x9dN:'
p10141
tp10142
Rp10143
ag2
(g6
S'=\xbc=;'
p10144
tp10145
Rp10146
ag2
(g6
S'\x07\xf9\x8a:'
p10147
tp10148
Rp10149
ag2
(g6
S'\xed\x87\xe68'
p10150
tp10151
Rp10152
ag2
(g6
S'\x18\xa1\xad8'
p10153
tp10154
Rp10155
ag2
(g6
S'\xb4z\r;'
p10156
tp10157
Rp10158
ag2
(g6
S'\xc7\x08`<'
p10159
tp10160
Rp10161
ag2
(g6
S'\xdd\xb74<'
p10162
tp10163
Rp10164
ag2
(g6
S'@\xeer<'
p10165
tp10166
Rp10167
ag2
(g6
S'\x1c\xf9\x1a;'
p10168
tp10169
Rp10170
ag2
(g6
S'\x8f\xe3\xd6:'
p10171
tp10172
Rp10173
ag2
(g6
S'H/\xe19'
p10174
tp10175
Rp10176
ag2
(g6
S'\x00lO9'
p10177
tp10178
Rp10179
ag2
(g6
S'\x03\xb9\xec9'
p10180
tp10181
Rp10182
ag2
(g6
S'\xc7\xa5S;'
p10183
tp10184
Rp10185
ag2
(g6
S'\x98\xc8\x85;'
p10186
tp10187
Rp10188
ag2
(g6
S'\x05\xd6(:'
p10189
tp10190
Rp10191
ag2
(g6
S'C\xd1L;'
p10192
tp10193
Rp10194
ag2
(g6
S'c\xed_<'
p10195
tp10196
Rp10197
ag2
(g6
S'\xdaw\xa8='
p10198
tp10199
Rp10200
ag2
(g6
S'\x1dE\x97;'
p10201
tp10202
Rp10203
ag2
(g6
S'0V_;'
p10204
tp10205
Rp10206
ag2
(g6
S'\x94"u<'
p10207
tp10208
Rp10209
ag2
(g6
S'u\x87\x81@'
p10210
tp10211
Rp10212
ag2
(g6
S'\x0f-\x17='
p10213
tp10214
Rp10215
ag2
(g6
S'\x82\x0c\t;'
p10216
tp10217
Rp10218
ag2
(g6
S'\x98C\xe99'
p10219
tp10220
Rp10221
ag2
(g6
S'0\xe6\xcf:'
p10222
tp10223
Rp10224
ag2
(g6
S'%:\xb69'
p10225
tp10226
Rp10227
ag2
(g6
S'\x07g\x16:'
p10228
tp10229
Rp10230
aa(lp10231
a(lp10232
a(lp10233
a(lp10234
a(lp10235
a(lp10236
a(lp10237
a(lp10238
a(lp10239
a(lp10240
a(lp10241
a(lp10242
a(lp10243
a(lp10244
a(lp10245
a(lp10246
a(lp10247
a(lp10248
a(lp10249
a(lp10250
a(lp10251
a(lp10252
a(lp10253
a(lp10254
a(lp10255
a(lp10256
a(lp10257
a(lp10258
a(lp10259
a(lp10260
a(lp10261
a(lp10262
a(lp10263
a(lp10264
a(lp10265
a(lp10266
a(lp10267
a(lp10268
a(lp10269
a(lp10270
a(lp10271
a(lp10272
a(lp10273
a(lp10274
a(lp10275
a(lp10276
a(lp10277
a(lp10278
a(lp10279
a(lp10280
a(lp10281
a(lp10282
a(lp10283
a(lp10284
a(lp10285
a(lp10286
a(lp10287
a(lp10288
a(lp10289
a(lp10290
a(lp10291
a(lp10292
a(lp10293
a(lp10294
a(lp10295
a(lp10296
a(lp10297
a(lp10298
a(lp10299
a(lp10300
a(lp10301
a(lp10302
a(lp10303
a(lp10304
a(lp10305
a(lp10306
a(lp10307
a(lp10308
a(lp10309
a(lp10310
a(lp10311
a(lp10312
a(lp10313
a(lp10314
a(lp10315
a(lp10316
a(lp10317
a(lp10318
a(lp10319
a(lp10320
a(lp10321
a(lp10322
a(lp10323
a(lp10324
a(lp10325
a(lp10326
a(lp10327
a(lp10328
a(lp10329
a(lp10330
a(lp10331
a(lp10332
a(lp10333
a(lp10334
a(lp10335
a(lp10336
a(lp10337
a(lp10338
a(lp10339
a(lp10340
a(lp10341
a(lp10342
a(lp10343
a(lp10344
a(lp10345
a(lp10346
a(lp10347
a(lp10348
a(lp10349
a(lp10350
a(lp10351
a(lp10352
a(lp10353
a(lp10354
a(lp10355
a(lp10356
a(lp10357
a(lp10358
a(lp10359
a(lp10360
a(lp10361
a(lp10362
a(lp10363
a(lp10364
a(lp10365
a(lp10366
a(lp10367
a(lp10368
a(lp10369
a(lp10370
a(lp10371
a(lp10372
a(lp10373
a(lp10374
a(lp10375
a(lp10376
a(lp10377
a(lp10378
a(lp10379
a(lp10380
a(lp10381
a(lp10382
a(lp10383
a(lp10384
a(lp10385
a(lp10386
a(lp10387
a(lp10388
a(lp10389
a(lp10390
a(lp10391
a(lp10392
a(lp10393
a(lp10394
a(lp10395
a(lp10396
a(lp10397
a(lp10398
a(lp10399
a(lp10400
a(lp10401
a(lp10402
a(lp10403
a(lp10404
a(lp10405
a(lp10406
a(lp10407
a(lp10408
a(lp10409
a(lp10410
a(lp10411
a(lp10412
a(lp10413
a(lp10414
a(lp10415
a(lp10416
a(lp10417
a(lp10418
a(lp10419
a(lp10420
a(lp10421
a(lp10422
a(lp10423
a(lp10424
a(lp10425
a(lp10426
a(lp10427
a(lp10428
a(lp10429
a(lp10430
a(lp10431
a(lp10432
a(lp10433
a(lp10434
a(lp10435
a(lp10436
a(lp10437
a(lp10438
a(lp10439
a(lp10440
a(lp10441
a(lp10442
a(lp10443
a(lp10444
a(lp10445
a(lp10446
a(lp10447
a(lp10448
a(lp10449
a(lp10450
a(lp10451
a(lp10452
a(lp10453
a(lp10454
a(lp10455
a(lp10456
a(lp10457
a(lp10458
a(lp10459
a(lp10460
a(lp10461
a(lp10462
a(lp10463
a(lp10464
a(lp10465
a(lp10466
a(lp10467
a(lp10468
a(lp10469
a(lp10470
a(lp10471
a(lp10472
a(lp10473
a(lp10474
a(lp10475
a(lp10476
a(lp10477
a(lp10478
a(lp10479
a(lp10480
a(lp10481
a(lp10482
a(lp10483
a(lp10484
a(lp10485
a(lp10486
a(lp10487
a(lp10488
a(lp10489
a(lp10490
a(lp10491
a(lp10492
a(lp10493
a(lp10494
a(lp10495
a(lp10496
a(lp10497
a(lp10498
a(lp10499
a(lp10500
a(lp10501
a(lp10502
a(lp10503
a(lp10504
a(lp10505
a(lp10506
a(lp10507
a(lp10508
a(lp10509
a(lp10510
a(lp10511
a(lp10512
a(lp10513
a(lp10514
a(lp10515
a(lp10516
a(lp10517
a(lp10518
a(lp10519
a(lp10520
a(lp10521
a(lp10522
a(lp10523
a(lp10524
a(lp10525
a(lp10526
a(lp10527
a(lp10528
a(lp10529
a(lp10530
a(lp10531
a(lp10532
a(lp10533
a(lp10534
a(lp10535
a(lp10536
a(lp10537
a(lp10538
a(lp10539
a(lp10540
a(lp10541
a(lp10542
a(lp10543
a(lp10544
a(lp10545
a(lp10546
a(lp10547
a(lp10548
a(lp10549
a(lp10550
a(lp10551
a(lp10552
a(lp10553
a(lp10554
a(lp10555
a(lp10556
a(lp10557
a(lp10558
a(lp10559
a(lp10560
a(lp10561
a(lp10562
a(lp10563
a(lp10564
a(lp10565
a(lp10566
a(lp10567
a(lp10568
a(lp10569
a(lp10570
a(lp10571
a(lp10572
a(lp10573
a(lp10574
a(lp10575
a(lp10576
a(lp10577
a(lp10578
a(lp10579
a(lp10580
a(lp10581
a(lp10582
a(lp10583
a(lp10584
a(lp10585
a(lp10586
a(lp10587
a(lp10588
a(lp10589
a(lp10590
a(lp10591
a(lp10592
a(lp10593
a(lp10594
a(lp10595
a(lp10596
a(lp10597
a(lp10598
a(lp10599
a(lp10600
a(lp10601
a(lp10602
a(lp10603
a(lp10604
a(lp10605
a(lp10606
a(lp10607
a(lp10608
a(lp10609
a(lp10610
a(lp10611
a(lp10612
a(lp10613
a(lp10614
a(lp10615
a(lp10616
a(lp10617
a(lp10618
a(lp10619
a(lp10620
a(lp10621
a(lp10622
a(lp10623
a(lp10624
a(lp10625
a(lp10626
a(lp10627
a(lp10628
a(lp10629
a(lp10630
a(lp10631
a(lp10632
a(lp10633
a(lp10634
a(lp10635
a(lp10636
a(lp10637
a(lp10638
a(lp10639
a(lp10640
a(lp10641
a(lp10642
a(lp10643
a(lp10644
a(lp10645
a(lp10646
a(lp10647
a(lp10648
a(lp10649
a(lp10650
a(lp10651
a(lp10652
a(lp10653
a(lp10654
a(lp10655
a(lp10656
a(lp10657
a(lp10658
a(lp10659
a(lp10660
a(lp10661
a(lp10662
a(lp10663
a(lp10664
a(lp10665
a(lp10666
a(lp10667
a(lp10668
a(lp10669
a(lp10670
a(lp10671
a(lp10672
a(lp10673
a(lp10674
a(lp10675
a(lp10676
a(lp10677
a(lp10678
a(lp10679
a(lp10680
a(lp10681
a(lp10682
a(lp10683
a(lp10684
a(lp10685
a(lp10686
a(lp10687
a(lp10688
a(lp10689
a(lp10690
a(lp10691
a(lp10692
a(lp10693
a(lp10694
a(lp10695
a(lp10696
a(lp10697
a(lp10698
a(lp10699
a(lp10700
a(lp10701
a(lp10702
a(lp10703
a(lp10704
a(lp10705
a(lp10706
a(lp10707
a(lp10708
a(lp10709
a(lp10710
a(lp10711
a(lp10712
a(lp10713
a(lp10714
a(lp10715
a(lp10716
a(lp10717
a(lp10718
a(lp10719
a(lp10720
a(lp10721
a(lp10722
a(lp10723
a(lp10724
a(lp10725
a(lp10726
a(lp10727
a(lp10728
a(lp10729
a(lp10730
a(lp10731
a(lp10732
a(lp10733
a(lp10734
a(lp10735
a(lp10736
a(lp10737
a(lp10738
a(lp10739
a(lp10740
a(lp10741
a(lp10742
a(lp10743
a(lp10744
a(lp10745
a(lp10746
a(lp10747
a(lp10748
a(lp10749
a(lp10750
a(lp10751
a(lp10752
a(lp10753
a(lp10754
a(lp10755
a(lp10756
a(lp10757
a(lp10758
a(lp10759
a(lp10760
a(lp10761
a(lp10762
a(lp10763
a(lp10764
a(lp10765
a(lp10766
a(lp10767
a(lp10768
a(lp10769
a(lp10770
a(lp10771
a(lp10772
a(lp10773
a(lp10774
a(lp10775
a(lp10776
a(lp10777
a(lp10778
a(lp10779
a(lp10780
a(lp10781
a(lp10782
a(lp10783
a(lp10784
a(lp10785
a(lp10786
a(lp10787
a(lp10788
a(lp10789
a(lp10790
a(lp10791
a(lp10792
a(lp10793
a(lp10794
a(lp10795
a(lp10796
a(lp10797
a(lp10798
a(lp10799
a(lp10800
a(lp10801
a(lp10802
a(lp10803
a(lp10804
a(lp10805
a(lp10806
a(lp10807
a(lp10808
a(lp10809
a(lp10810
a(lp10811
a(lp10812
a(lp10813
a(lp10814
a(lp10815
a(lp10816
a(lp10817
a(lp10818
a(lp10819
a(lp10820
a(lp10821
a(lp10822
a(lp10823
a(lp10824
a(lp10825
a(lp10826
a(lp10827
a(lp10828
a(lp10829
a(lp10830
a(lp10831
a(lp10832
a(lp10833
a(lp10834
a(lp10835
a(lp10836
a(lp10837
a(lp10838
a(lp10839
a(lp10840
a(lp10841
a(lp10842
a(lp10843
a(lp10844
a(lp10845
a(lp10846
a(lp10847
a(lp10848
a(lp10849
a(lp10850
a(lp10851
a(lp10852
a(lp10853
a(lp10854
a(lp10855
a(lp10856
a(lp10857
a(lp10858
a(lp10859
a(lp10860
a(lp10861
a(lp10862
a(lp10863
a(lp10864
a(lp10865
a(lp10866
a(lp10867
a(lp10868
a(lp10869
a(lp10870
a(lp10871
a(lp10872
a(lp10873
a(lp10874
a(lp10875
a(lp10876
a(lp10877
a(lp10878
a(lp10879
a(lp10880
a(lp10881
a(lp10882
a(lp10883
a(lp10884
a(lp10885
a(lp10886
a(lp10887
a(lp10888
a(lp10889
a(lp10890
a(lp10891
a(lp10892
a(lp10893
a(lp10894
a(lp10895
a(lp10896
a(lp10897
a(lp10898
a(lp10899
a(lp10900
a(lp10901
a(lp10902
a(lp10903
a(lp10904
a(lp10905
a(lp10906
a(lp10907
a(lp10908
a(lp10909
a(lp10910
a(lp10911
a(lp10912
a(lp10913
a(lp10914
a(lp10915
a(lp10916
a(lp10917
a(lp10918
a(lp10919
a(lp10920
a(lp10921
a(lp10922
a(lp10923
a(lp10924
a(lp10925
a(lp10926
a(lp10927
a(lp10928
a(lp10929
a(lp10930
a(lp10931
a(lp10932
a(lp10933
a(lp10934
a(lp10935
a(lp10936
a(lp10937
a(lp10938
a(lp10939
a(lp10940
a(lp10941
a(lp10942
a(lp10943
a(lp10944
a(lp10945
a(lp10946
a(lp10947
a(lp10948
a(lp10949
a(lp10950
a(lp10951
a(lp10952
a(lp10953
a(lp10954
a(lp10955
a(lp10956
a(lp10957
a(lp10958
a(lp10959
a(lp10960
a(lp10961
a(lp10962
a(lp10963
a(lp10964
a(lp10965
a(lp10966
a(lp10967
a(lp10968
a(lp10969
a(lp10970
a(lp10971
a(lp10972
a(lp10973
a(lp10974
a(lp10975
a(lp10976
a(lp10977
a(lp10978
a(lp10979
a(lp10980
a(lp10981
a(lp10982
a(lp10983
a(lp10984
a(lp10985
a(lp10986
a(lp10987
a(lp10988
a(lp10989
a(lp10990
a(lp10991
a(lp10992
a(lp10993
a(lp10994
a(lp10995
a(lp10996
a(lp10997
a(lp10998
a(lp10999
a(lp11000
a(lp11001
a(lp11002
a(lp11003
a(lp11004
a(lp11005
a(lp11006
a(lp11007
a(lp11008
a(lp11009
a(lp11010
a(lp11011
a(lp11012
a(lp11013
a(lp11014
a(lp11015
a(lp11016
a(lp11017
a(lp11018
a(lp11019
a(lp11020
a(lp11021
a(lp11022
a(lp11023
a(lp11024
a(lp11025
a(lp11026
a(lp11027
a(lp11028
a(lp11029
a(lp11030
a(lp11031
a(lp11032
a(lp11033
a(lp11034
a(lp11035
a(lp11036
a(lp11037
a(lp11038
a(lp11039
a(lp11040
a(lp11041
a(lp11042
a(lp11043
a(lp11044
a(lp11045
a(lp11046
a(lp11047
a(lp11048
a(lp11049
a(lp11050
a(lp11051
a(lp11052
a(lp11053
a(lp11054
a(lp11055
a(lp11056
a(lp11057
a(lp11058
a(lp11059
a(lp11060
a(lp11061
a(lp11062
a(lp11063
a(lp11064
a(lp11065
a(lp11066
a(lp11067
a(lp11068
a(lp11069
a(lp11070
a(lp11071
a(lp11072
a(lp11073
a(lp11074
a(lp11075
a(lp11076
a(lp11077
a(lp11078
a(lp11079
a(lp11080
a(lp11081
a(lp11082
a(lp11083
a(lp11084
a(lp11085
a(lp11086
a(lp11087
a(lp11088
a(lp11089
a(lp11090
a(lp11091
a(lp11092
a(lp11093
a(lp11094
a(lp11095
a(lp11096
a(lp11097
a(lp11098
a(lp11099
a(lp11100
a(lp11101
a(lp11102
a(lp11103
a(lp11104
a(lp11105
a(lp11106
a(lp11107
a(lp11108
a(lp11109
a(lp11110
a(lp11111
a(lp11112
a(lp11113
a(lp11114
a(lp11115
a(lp11116
a(lp11117
a(lp11118
a(lp11119
a(lp11120
a(lp11121
a(lp11122
a(lp11123
a(lp11124
a(lp11125
a(lp11126
a(lp11127
a(lp11128
a(lp11129
a.