(lp0
F8.0
aF8.0
aF9.0
aF0.0
aF-3.0
aF0.0
aF0.0
aF-1.0
aF7.0
aF0.0
aF-7.0
aF-4.0
aF0.0
aF-5.0
aF-1.0
aF-1.0
aF10.0
aF0.0
aF0.0
aF0.0
aF-1.0
aF-4.0
aF0.0
aF0.0
aF-2.0
aF-8.0
aF0.0
aF0.0
aF0.0
aF0.0
aF-6.0
aF-1.0
aF-3.0
aF-6.0
aF10.0
aF-5.0
aF0.0
aF0.0
aF10.0
aF-1.0
aF0.0
aF0.0
aF0.0
aF0.0
aF10.0
aF0.0
aF0.0
aF-1.0
aF10.0
aF0.0
aF8.0
aF-1.0
aF-1.0
aF0.0
aF0.0
aF7.0
aF0.0
aF-1.0
aF8.0
aF-8.0
aF-1.0
aF-2.0
aF9.0
aF10.0
aF0.0
aF10.0
aF10.0
aF0.0
aF0.0
aF0.0
aF0.0
aF0.0
aF-1.0
aF-1.0
aF0.0
aF10.0
aF-1.0
aF-1.0
aF0.0
aF0.0
aF-4.0
aF0.0
aF10.0
aF-2.0
aF-1.0
aF0.0
aF0.0
aF-2.0
aF-1.0
aF9.0
aF-2.0
aF0.0
aF-1.0
aF0.0
aF-1.0
aF-4.0
aF0.0
aF0.0
aF0.0
a.