(lp0
F0.0
aF-14.0
aF10.0
aF0.0
aF-16.0
aF-2.0
aF10.0
aF10.0
aF0.0
aF6.0
aF0.0
aF8.0
aF8.0
aF-4.0
aF-2.0
aF0.0
aF-6.0
aF10.0
aF-2.0
aF0.0
aF-2.0
aF-2.0
aF-10.0
aF0.0
aF-4.0
aF0.0
aF0.0
aF0.0
aF0.0
aF0.0
aF0.0
aF0.0
aF0.0
aF8.0
aF0.0
aF-6.0
aF-2.0
aF-2.0
aF0.0
aF-6.0
aF0.0
aF8.0
aF0.0
aF10.0
aF0.0
aF0.0
aF10.0
aF-6.0
aF-2.0
aF-2.0
aF6.0
aF0.0
aF0.0
aF0.0
aF0.0
aF-8.0
aF0.0
aF0.0
aF-2.0
aF-2.0
aF8.0
aF-12.0
aF0.0
aF0.0
aF-4.0
aF8.0
aF-2.0
aF0.0
aF0.0
aF10.0
aF0.0
aF0.0
aF0.0
aF0.0
aF10.0
aF-12.0
aF0.0
aF-8.0
aF8.0
aF-8.0
aF-2.0
aF10.0
aF-4.0
aF-6.0
aF0.0
aF0.0
aF-2.0
aF0.0
aF0.0
aF0.0
aF-2.0
aF0.0
aF-6.0
aF-2.0
aF0.0
aF0.0
aF0.0
aF0.0
aF0.0
aF-2.0
aF-2.0
aF-4.0
aF8.0
aF8.0
aF0.0
aF-4.0
aF-2.0
aF-2.0
aF0.0
aF-2.0
aF0.0
aF-4.0
aF0.0
aF0.0
aF0.0
aF0.0
aF-6.0
aF0.0
aF0.0
aF0.0
aF-2.0
aF10.0
aF0.0
aF-4.0
aF10.0
aF-4.0
aF2.0
aF0.0
aF0.0
aF-2.0
aF0.0
aF0.0
aF-2.0
aF-4.0
aF4.0
aF0.0
aF0.0
aF-2.0
aF10.0
aF6.0
aF-2.0
aF0.0
aF-2.0
aF-4.0
aF0.0
aF0.0
aF-8.0
aF8.0
aF0.0
aF10.0
aF0.0
aF6.0
aF0.0
aF-2.0
aF0.0
aF8.0
aF10.0
aF-2.0
aF0.0
aF0.0
aF0.0
aF0.0
aF0.0
aF0.0
aF0.0
aF-2.0
aF-8.0
aF6.0
aF-2.0
aF-2.0
aF10.0
aF0.0
aF0.0
aF0.0
aF0.0
aF-4.0
aF0.0
aF0.0
aF0.0
aF10.0
aF0.0
aF-2.0
aF0.0
aF-2.0
aF0.0
aF0.0
aF10.0
aF-2.0
aF-6.0
aF8.0
aF10.0
aF10.0
aF4.0
aF0.0
aF0.0
aF0.0
aF6.0
aF8.0
aF8.0
aF10.0
aF-4.0
aF-2.0
aF10.0
aF0.0
aF0.0
aF10.0
aF0.0
aF10.0
aF-18.0
aF0.0
aF0.0
aF0.0
aF-4.0
aF0.0
aF0.0
aF0.0
aF0.0
aF10.0
aF-6.0
aF-4.0
aF0.0
aF-2.0
aF0.0
aF6.0
aF8.0
aF-8.0
aF0.0
aF0.0
aF0.0
aF0.0
aF10.0
aF10.0
aF8.0
aF-6.0
aF0.0
aF0.0
aF4.0
aF10.0
aF-8.0
aF0.0
aF0.0
aF0.0
aF0.0
aF0.0
aF0.0
aF-2.0
aF0.0
aF0.0
aF10.0
aF-2.0
aF10.0
aF0.0
aF-16.0
aF-6.0
aF-4.0
aF10.0
aF0.0
aF6.0
aF10.0
aF-2.0
aF0.0
aF0.0
aF-2.0
aF0.0
aF10.0
aF0.0
aF10.0
aF6.0
aF0.0
aF10.0
aF8.0
aF0.0
aF-4.0
aF-10.0
aF0.0
aF0.0
aF0.0
aF0.0
aF0.0
aF0.0
aF10.0
aF10.0
aF0.0
aF8.0
aF8.0
aF0.0
aF-2.0
aF10.0
aF-8.0
aF-4.0
aF8.0
aF-4.0
aF0.0
aF-2.0
aF0.0
aF0.0
aF0.0
aF0.0
aF0.0
aF0.0
aF0.0
aF0.0
aF0.0
aF0.0
aF-2.0
aF-10.0
aF0.0
aF-2.0
aF-6.0
aF-12.0
aF10.0
aF-6.0
aF8.0
aF-4.0
aF10.0
aF0.0
aF-4.0
aF-2.0
aF0.0
aF-2.0
aF10.0
aF0.0
aF0.0
aF10.0
aF0.0
aF0.0
aF-2.0
aF0.0
aF0.0
aF0.0
aF-2.0
aF6.0
aF0.0
aF-6.0
aF-6.0
aF0.0
aF0.0
aF-2.0
aF8.0
aF10.0
aF10.0
aF10.0
aF10.0
aF6.0
aF-2.0
aF10.0
aF10.0
aF0.0
aF0.0
aF-2.0
aF8.0
aF-6.0
aF-2.0
aF6.0
aF10.0
aF0.0
aF10.0
aF0.0
aF0.0
aF-4.0
aF-8.0
aF10.0
aF8.0
aF10.0
aF8.0
aF10.0
aF0.0
aF0.0
aF10.0
aF8.0
aF6.0
aF-14.0
aF-4.0
aF4.0
aF-2.0
aF10.0
aF-4.0
aF-2.0
aF8.0
aF-2.0
aF10.0
aF0.0
aF10.0
aF8.0
aF6.0
aF8.0
aF-2.0
aF-6.0
aF-6.0
aF0.0
aF10.0
aF4.0
aF0.0
aF8.0
aF0.0
aF10.0
aF-6.0
aF6.0
aF0.0
aF8.0
aF-2.0
aF0.0
aF10.0
aF-2.0
aF0.0
aF-16.0
aF0.0
aF-2.0
aF0.0
aF-2.0
aF10.0
aF-4.0
aF10.0
aF0.0
aF-2.0
aF-2.0
aF-2.0
aF10.0
aF8.0
aF8.0
aF10.0
aF8.0
aF8.0
aF0.0
aF-4.0
aF-4.0
aF0.0
aF0.0
aF0.0
aF0.0
aF10.0
aF6.0
aF0.0
aF8.0
aF-12.0
aF-2.0
aF-6.0
aF-4.0
aF0.0
aF10.0
aF-6.0
aF10.0
aF-2.0
aF4.0
aF0.0
aF-2.0
aF0.0
aF0.0
aF8.0
aF-2.0
aF4.0
aF-6.0
aF8.0
aF-10.0
aF0.0
aF0.0
aF-2.0
aF-6.0
aF8.0
aF0.0
aF8.0
aF-12.0
aF10.0
aF-4.0
aF8.0
aF8.0
aF8.0
aF0.0
aF10.0
aF0.0
aF-14.0
aF-6.0
aF4.0
aF4.0
aF-8.0
aF-4.0
aF0.0
aF-14.0
aF6.0
aF-4.0
aF0.0
aF-2.0
aF10.0
aF0.0
aF0.0
aF0.0
aF0.0
aF6.0
aF-2.0
aF-12.0
aF-16.0
aF-12.0
aF0.0
aF-24.0
aF-12.0
aF-6.0
aF-12.0
aF-10.0
aF-12.0
aF0.0
aF0.0
aF-4.0
aF10.0
aF-14.0
aF-10.0
aF-10.0
aF0.0
aF0.0
aF0.0
aF0.0
aF-8.0
aF-12.0
aF-2.0
aF-14.0
aF-4.0
aF-12.0
aF0.0
aF10.0
aF0.0
aF-4.0
aF-24.0
aF-2.0
aF-10.0
aF-2.0
aF-10.0
aF-10.0
aF-10.0
aF-22.0
aF0.0
aF-2.0
aF0.0
aF-32.0
aF-10.0
aF-10.0
aF0.0
aF-24.0
aF-6.0
aF-10.0
aF-16.0
aF-12.0
aF8.0
aF0.0
aF0.0
aF0.0
aF10.0
aF-4.0
aF-20.0
aF0.0
aF-14.0
aF0.0
aF0.0
aF0.0
aF0.0
aF8.0
aF-16.0
aF-12.0
aF4.0
aF-16.0
aF-18.0
aF0.0
aF0.0
aF0.0
aF-2.0
aF0.0
aF10.0
aF-8.0
aF-22.0
aF-12.0
aF-22.0
aF-32.0
aF0.0
aF-6.0
aF-2.0
aF10.0
aF8.0
aF-6.0
aF0.0
aF10.0
aF0.0
aF0.0
aF0.0
aF0.0
aF10.0
aF0.0
aF10.0
aF0.0
aF10.0
aF0.0
aF-32.0
aF-6.0
aF-14.0
aF0.0
aF-4.0
aF10.0
aF0.0
aF10.0
aF-4.0
aF10.0
aF10.0
aF4.0
aF10.0
aF0.0
aF0.0
aF-34.0
aF0.0
aF2.0
aF0.0
aF-8.0
aF-12.0
aF10.0
aF8.0
aF2.0
aF-6.0
aF-2.0
aF0.0
aF-22.0
aF-20.0
aF0.0
aF0.0
aF-2.0
aF0.0
aF10.0
aF0.0
aF-4.0
aF0.0
aF0.0
aF0.0
aF10.0
aF0.0
aF0.0
aF6.0
aF-10.0
aF-6.0
aF4.0
aF0.0
aF-6.0
aF10.0
aF0.0
aF0.0
aF0.0
aF0.0
aF0.0
aF8.0
aF-2.0
aF0.0
aF-4.0
aF0.0
aF0.0
aF0.0
aF0.0
aF0.0
aF0.0
aF0.0
aF-8.0
aF-26.0
aF0.0
aF8.0
aF-16.0
aF0.0
aF10.0
aF0.0
aF0.0
aF-14.0
aF10.0
aF6.0
aF8.0
aF0.0
aF-2.0
aF10.0
aF10.0
aF-2.0
aF10.0
aF-8.0
aF0.0
aF-18.0
aF-2.0
aF0.0
aF0.0
aF-2.0
aF0.0
aF0.0
aF10.0
aF0.0
aF-2.0
aF0.0
aF10.0
aF0.0
aF-28.0
aF0.0
aF0.0
aF0.0
aF0.0
aF-2.0
aF2.0
aF-2.0
aF10.0
aF-4.0
aF-8.0
aF0.0
aF10.0
aF0.0
aF10.0
aF10.0
aF-8.0
aF8.0
aF10.0
aF6.0
aF10.0
aF10.0
aF-4.0
aF2.0
aF10.0
aF10.0
aF-2.0
aF10.0
aF10.0
aF-2.0
aF-8.0
aF10.0
aF10.0
aF0.0
aF10.0
aF10.0
aF10.0
aF-20.0
aF4.0
aF0.0
aF6.0
aF10.0
aF10.0
aF10.0
aF0.0
aF-16.0
aF10.0
aF10.0
aF-2.0
aF-2.0
aF2.0
aF0.0
aF-2.0
aF0.0
aF10.0
aF0.0
aF-10.0
aF2.0
aF0.0
aF8.0
aF0.0
aF-4.0
aF10.0
aF0.0
aF10.0
aF0.0
aF0.0
aF-10.0
aF10.0
aF10.0
aF10.0
aF-4.0
aF0.0
aF-2.0
aF10.0
aF0.0
aF0.0
aF0.0
aF0.0
aF0.0
aF0.0
aF0.0
aF0.0
aF0.0
aF-4.0
aF10.0
aF0.0
aF-24.0
aF0.0
aF-14.0
aF-8.0
aF0.0
aF0.0
aF-8.0
aF-8.0
aF0.0
aF0.0
aF0.0
aF0.0
aF0.0
aF0.0
aF0.0
aF10.0
aF10.0
aF0.0
aF-2.0
aF-20.0
aF0.0
aF6.0
aF0.0
aF10.0
aF0.0
aF10.0
aF2.0
a.