(lp0
I28
aI17
aI13
aI32
aI32
aI32
aI32
aI32
aI25
aI32
aI32
aI32
aI32
aI32
aI32
aI32
aI16
aI32
aI32
aI32
aI32
aI32
aI32
aI32
aI32
aI32
aI32
aI32
aI32
aI32
aI32
aI32
aI32
aI32
aI23
aI32
aI32
aI32
aI21
aI32
aI32
aI32
aI32
aI32
aI26
aI32
aI32
aI32
aI13
aI32
aI19
aI32
aI32
aI32
aI32
aI22
aI32
aI32
aI16
aI32
aI32
aI32
aI31
aI30
aI32
aI23
aI31
aI32
aI32
aI32
aI32
aI32
aI32
aI32
aI32
aI21
aI32
aI32
aI32
aI32
aI32
aI32
aI32
aI32
aI32
aI32
aI32
aI32
aI32
aI18
aI32
aI32
aI32
aI32
aI32
aI32
aI32
aI32
aI32
aI32
aI32
aI32
aI32
aI32
aI32
aI32
aI23
aI32
aI24
aI32
aI32
aI32
aI15
aI32
aI32
aI30
aI26
aI32
aI32
aI31
aI32
aI32
aI32
aI32
aI32
aI32
aI32
aI18
aI32
aI28
aI32
aI32
aI32
aI32
aI32
aI32
aI32
aI11
aI32
aI32
aI23
aI32
aI17
aI32
aI32
aI32
aI32
aI32
aI32
aI18
aI32
aI32
aI32
aI26
aI32
aI22
aI32
aI25
aI32
aI32
aI32
aI32
aI32
aI32
aI32
aI32
aI28
aI12
aI32
aI32
aI32
aI18
aI32
aI31
aI32
aI32
aI26
aI27
aI32
aI32
aI32
aI32
aI32
aI29
aI30
aI32
aI32
aI32
aI21
aI20
aI15
aI32
aI32
aI32
aI26
aI13
aI32
aI32
aI32
aI17
aI32
aI32
aI19
aI17
aI22
aI32
aI32
aI32
aI32
aI32
aI16
aI32
aI32
aI26
aI16
aI29
aI20
aI32
aI20
aI20
aI15
aI11
aI8
aI12
aI15
aI11
aI22
aI32
aI32
aI32
aI25
aI20
aI32
aI32
aI12
aI17
aI32
aI32
aI27
aI13
aI14
aI10
aI32
aI28
aI15
aI32
aI32
aI20
aI25
aI32
aI32
aI13
aI21
aI32
aI26
aI32
aI32
aI23
aI21
aI12
aI14
aI16
aI32
aI28
aI16
aI32
aI27
aI9
aI11
aI12
aI13
aI10
aI21
aI30
aI29
aI9
aI10
aI12
aI12
aI32
aI23
aI32
aI12
aI13
aI7
aI28
aI18
aI32
aI17
aI32
aI20
aI20
aI22
aI32
aI32
aI32
aI32
aI23
aI12
aI25
aI23
aI32
aI26
aI30
aI17
aI25
aI19
aI32
aI32
aI17
aI14
aI10
aI10
aI10
aI25
aI17
aI23
aI17
aI18
aI15
aI32
aI7
aI11
aI12
aI14
aI11
aI7
aI14
aI9
aI16
aI16
aI8
aI10
aI12
aI11
aI12
aI32
aI32
aI14
aI12
aI32
aI32
aI8
aI32
aI22
aI19
aI32
aI15
aI12
aI12
aI11
aI12
aI13
aI15
aI12
aI12
aI11
aI14
aI13
aI7
aI32
aI15
aI32
aI21
aI24
aI12
aI14
aI15
aI32
aI7
aI32
aI26
aI24
aI17
aI14
aI32
aI19
aI11
aI14
aI14
aI14
aI32
aI22
aI17
aI14
aI20
aI13
aI22
aI16
aI16
aI32
aI7
aI12
aI15
aI16
aI23
aI8
aI16
aI15
a.