(lp0
I36
aI36
aI31
aI23
aI36
aI36
aI32
aI25
aI36
aI24
aI36
aI28
aI16
aI36
aI36
aI36
aI36
aI19
aI31
aI36
aI36
aI36
aI36
aI36
aI36
aI36
aI36
aI36
aI36
aI36
aI36
aI36
aI36
aI27
aI36
aI36
aI36
aI36
aI36
aI36
aI36
aI23
aI36
aI17
aI36
aI36
aI18
aI36
aI36
aI36
aI17
aI36
aI36
aI36
aI36
aI36
aI36
aI36
aI36
aI36
aI21
aI36
aI36
aI36
aI36
aI21
aI36
aI36
aI36
aI22
aI36
aI36
aI36
aI36
aI22
aI36
aI36
aI36
aI19
aI36
aI36
aI22
aI36
aI36
aI36
aI36
aI36
aI36
aI36
aI36
aI36
aI36
aI36
aI36
aI36
aI36
aI36
aI36
aI36
aI36
aI36
aI36
aI31
aI18
aI36
aI36
aI36
aI36
aI36
aI36
aI36
aI36
aI36
aI36
aI36
aI36
aI36
aI36
aI36
aI36
aI36
aI12
aI36
aI36
aI35
aI36
aI35
aI36
aI36
aI36
aI36
aI36
aI36
aI36
aI31
aI36
aI36
aI36
aI22
aI14
aI36
aI36
aI36
aI36
aI36
aI36
aI36
aI31
aI36
aI14
aI36
aI26
aI36
aI36
aI36
aI15
aI25
aI36
aI36
aI36
aI36
aI36
aI36
aI36
aI36
aI36
aI36
aI34
aI36
aI36
aI26
aI36
aI36
aI36
aI36
aI36
aI36
aI36
aI36
aI27
aI36
aI36
aI36
aI36
aI36
aI36
aI24
aI36
aI36
aI24
aI19
aI19
aI26
aI36
aI36
aI36
aI26
aI28
aI32
aI32
aI36
aI36
aI15
aI36
aI36
aI23
aI36
aI16
aI36
aI36
aI36
aI36
aI36
aI36
aI36
aI36
aI36
aI26
aI36
aI36
aI36
aI36
aI36
aI36
aI30
aI36
aI36
aI36
aI36
aI36
aI22
aI12
aI19
aI36
aI36
aI36
aI35
aI23
aI36
aI36
aI36
aI36
aI36
aI36
aI36
aI36
aI36
aI36
aI25
aI36
aI31
aI36
aI36
aI36
aI36
aI31
aI36
aI16
aI15
aI36
aI36
aI36
aI36
aI36
aI26
aI36
aI24
aI34
aI36
aI19
aI30
aI36
aI36
aI36
aI36
aI36
aI36
aI36
aI36
aI36
aI19
aI14
aI36
aI36
aI14
aI36
aI36
aI24
aI36
aI36
aI21
aI36
aI36
aI36
aI36
aI36
aI36
aI36
aI36
aI36
aI36
aI36
aI36
aI36
aI36
aI36
aI36
aI36
aI36
aI36
aI36
aI36
aI23
aI36
aI12
aI36
aI36
aI36
aI36
aI36
aI12
aI36
aI36
aI13
aI36
aI36
aI36
aI36
aI36
aI36
aI36
aI34
aI36
aI36
aI36
aI36
aI36
aI36
aI36
aI35
aI21
aI23
aI23
aI21
aI36
aI17
aI34
aI36
aI36
aI36
aI23
aI36
aI36
aI19
aI17
aI36
aI20
aI36
aI36
aI36
aI36
aI14
aI24
aI24
aI22
aI31
aI36
aI36
aI27
aI32
aI31
aI36
aI36
aI25
aI36
aI17
aI36
aI36
aI36
aI36
aI21
aI36
aI23
aI22
aI30
aI18
aI36
aI36
aI36
aI36
aI34
aI32
aI36
aI34
aI36
aI18
aI36
aI36
aI36
aI24
aI36
a.