(lp0
I50
aI50
aI50
aI50
aI50
aI28
aI50
aI50
aI50
aI50
aI23
aI37
aI29
aI50
aI14
aI50
aI50
aI28
aI50
aI50
aI50
aI49
aI50
aI50
aI50
aI24
aI50
aI50
aI50
aI50
aI50
aI50
aI50
aI34
aI50
aI50
aI50
aI50
aI50
aI50
aI50
aI50
aI50
aI50
aI50
aI50
aI50
aI42
aI50
aI50
aI50
aI50
aI50
aI29
aI50
aI41
aI50
aI50
aI50
aI50
aI50
aI50
aI43
aI50
aI50
aI50
aI50
aI50
aI50
aI50
aI50
aI50
aI50
aI50
aI50
aI50
aI40
aI39
aI42
aI50
aI50
aI49
aI50
aI50
aI50
aI38
aI50
aI50
aI50
aI50
aI31
aI50
aI50
aI16
aI50
aI50
aI50
aI50
aI50
aI50
aI50
aI50
aI50
aI32
aI49
aI50
aI50
aI20
aI50
aI16
aI28
aI50
aI50
aI23
aI28
aI50
aI50
aI50
aI50
aI50
aI50
aI50
aI50
aI26
aI50
aI50
aI50
aI50
aI50
aI50
aI50
aI50
aI50
aI50
aI50
aI48
aI50
aI50
aI50
aI50
aI50
aI50
aI50
aI50
aI50
aI50
aI50
aI50
aI50
aI37
aI50
aI50
aI50
aI50
aI50
aI33
aI50
aI50
aI50
aI45
aI50
aI50
aI50
aI50
aI26
aI50
aI39
aI50
aI50
aI37
aI50
aI48
aI50
aI37
aI50
aI50
aI50
aI50
aI50
aI35
aI25
aI50
aI50
aI50
aI50
aI50
aI50
aI50
aI50
aI32
aI50
aI50
aI50
aI40
aI50
aI50
aI50
aI50
aI50
aI50
aI50
aI50
aI50
aI50
aI50
aI33
aI50
aI50
aI50
aI50
aI50
aI50
aI50
aI50
aI50
aI50
aI50
aI50
aI50
aI50
aI50
aI50
aI50
aI50
aI50
aI50
aI50
aI30
aI50
aI50
aI50
aI45
aI50
aI50
aI50
aI22
aI50
aI50
aI50
aI39
aI50
aI50
aI50
aI38
aI50
aI50
aI50
aI50
aI50
aI50
aI36
aI50
aI50
aI50
aI24
aI50
aI21
aI50
aI50
aI50
aI50
aI50
aI47
aI50
aI34
aI50
aI50
aI49
aI50
aI46
aI29
aI50
aI50
aI50
aI30
aI50
aI50
aI50
aI50
aI16
aI48
aI37
aI23
aI50
aI50
aI50
aI50
aI50
aI50
aI50
aI15
aI50
aI50
aI19
aI50
aI50
aI50
aI50
aI50
aI50
aI50
aI50
aI32
aI50
aI50
aI50
aI34
aI48
aI26
aI50
aI50
aI50
aI50
aI50
aI50
aI50
aI50
aI50
aI50
aI50
aI50
aI50
aI50
aI37
aI38
aI50
aI35
aI50
aI50
aI50
aI50
aI50
aI29
aI18
aI50
aI50
aI50
aI50
aI50
aI50
aI50
aI50
aI50
aI50
aI45
aI50
aI50
aI50
aI50
aI50
aI50
aI50
aI50
aI33
aI50
aI50
aI49
aI50
aI50
aI50
aI48
aI50
aI50
aI50
aI50
aI50
aI50
aI50
aI50
aI41
aI19
aI50
aI16
aI50
aI50
aI29
aI50
aI50
aI45
aI50
aI36
aI34
aI50
aI50
aI50
aI50
aI50
aI19
aI50
aI50
aI44
aI50
aI50
aI50
aI24
aI50
aI50
aI50
aI50
aI50
aI50
aI50
aI50
aI50
aI50
aI50
aI50
aI50
aI50
aI50
aI50
aI50
aI50
aI22
aI50
aI36
aI50
aI50
aI41
aI50
aI50
aI50
aI50
aI50
aI50
aI42
aI50
aI37
aI50
aI50
aI50
aI50
aI50
aI25
aI50
aI50
aI50
aI30
aI50
aI50
aI44
aI50
aI40
aI50
aI50
aI50
aI50
aI27
aI50
aI50
aI50
aI50
aI50
aI23
aI50
aI50
aI28
aI50
aI50
aI50
aI50
aI50
aI35
aI50
aI50
aI50
aI50
aI50
aI50
aI31
aI50
aI24
aI50
aI50
aI50
aI48
aI50
aI50
aI50
aI50
aI50
aI50
aI50
aI24
aI50
aI32
aI50
aI50
aI50
aI35
aI50
aI50
aI50
aI44
aI50
aI39
aI50
aI50
aI50
aI50
aI50
aI50
aI50
aI50
aI50
aI50
aI50
aI50
aI25
aI50
aI50
aI50
aI32
aI50
aI50
aI50
aI45
aI50
aI50
aI50
aI50
aI50
aI50
aI50
aI50
aI50
aI50
aI50
aI50
aI50
aI50
aI50
aI50
aI50
aI40
aI50
aI50
aI50
aI50
aI50
aI50
aI18
aI50
aI50
aI32
aI50
aI38
aI50
aI50
aI50
aI50
aI50
aI40
aI50
aI37
aI50
aI50
aI50
aI50
aI50
aI50
aI45
aI50
aI50
aI17
aI50
aI50
aI50
aI50
aI50
aI50
aI50
aI50
aI50
aI50
aI50
aI50
aI50
aI46
aI25
aI50
aI49
aI50
aI50
aI50
aI50
aI50
aI50
aI50
aI50
aI50
aI50
aI50
aI50
aI50
aI28
aI50
aI43
aI43
aI50
aI50
aI19
aI50
aI50
aI50
aI50
aI50
aI50
aI46
aI50
aI40
aI50
aI50
aI50
aI48
aI29
aI50
aI50
aI50
aI50
aI28
aI50
aI50
aI50
aI26
aI41
aI50
aI20
aI50
aI44
aI50
aI50
aI50
aI50
aI50
aI50
aI50
aI50
aI50
aI50
aI50
aI50
aI50
aI32
aI50
aI38
aI50
aI20
aI50
aI50
aI50
aI50
aI21
aI50
aI50
aI50
aI50
aI50
aI30
aI50
aI38
aI50
aI50
aI37
aI50
aI50
aI50
aI50
aI19
aI47
aI50
aI50
aI50
aI50
aI50
aI20
aI50
aI50
aI32
aI48
aI50
aI50
aI50
aI50
aI50
aI50
aI50
aI50
aI50
aI50
aI50
aI50
aI50
aI50
aI50
aI50
aI50
aI47
aI46
aI50
aI50
aI50
aI50
aI50
aI42
aI38
aI50
aI50
aI50
aI50
aI50
aI50
aI31
aI39
aI50
aI50
aI50
aI50
aI50
aI37
aI50
aI49
aI50
aI17
aI50
aI50
aI50
aI50
aI50
aI50
aI50
aI39
aI50
aI50
aI50
aI21
aI50
aI50
aI50
aI34
aI50
aI50
aI50
aI50
aI50
aI47
aI50
aI50
aI50
aI50
aI34
aI18
aI50
aI50
aI50
aI50
aI50
aI50
aI50
aI48
aI50
aI40
aI32
aI50
aI50
aI50
aI50
aI50
aI50
aI50
aI50
aI50
aI18
aI16
aI50
aI50
aI30
aI50
aI14
aI50
aI50
aI50
aI50
aI50
aI43
aI50
aI50
aI50
aI50
aI44
aI50
aI50
aI50
aI50
aI50
aI50
aI50
aI50
aI50
aI50
aI50
aI50
aI50
aI50
aI50
aI32
aI17
aI20
aI50
aI50
aI50
aI50
aI50
aI31
aI50
aI50
aI50
aI50
aI50
aI50
aI50
aI36
aI50
aI50
aI50
aI50
aI50
aI50
aI50
aI50
aI50
aI31
aI50
aI50
aI50
aI50
aI50
aI50
aI50
aI50
aI47
aI50
aI50
aI50
aI41
aI50
aI50
aI50
aI50
aI50
aI27
aI50
aI21
aI46
aI32
aI50
aI29
aI50
aI50
aI50
aI32
aI50
aI50
aI50
aI50
aI50
aI50
aI50
aI50
aI18
aI50
aI50
aI31
aI20
aI50
aI50
aI50
aI50
aI50
aI50
aI50
aI40
aI50
aI50
aI50
aI50
aI50
aI50
aI50
aI24
aI50
aI26
aI36
aI50
aI50
aI50
aI17
aI37
aI50
aI50
aI50
aI34
aI41
aI50
aI26
aI50
aI50
aI50
aI50
aI50
aI50
aI34
aI50
aI28
aI50
aI50
aI50
aI50
aI50
aI50
aI50
aI50
aI42
aI30
aI50
aI50
aI50
aI49
aI50
aI50
aI50
aI50
aI50
aI50
aI50
aI50
aI50
aI50
aI50
aI50
aI50
aI50
aI50
aI50
aI50
aI33
aI50
aI50
aI18
aI50
aI34
aI50
aI50
aI50
aI50
aI50
aI50
aI18
aI27
aI50
aI36
aI50
aI50
aI44
aI50
aI50
aI50
aI17
aI50
aI50
aI23
aI50
aI50
aI16
aI50
aI50
aI50
aI50
aI50
aI50
aI50
aI37
aI50
aI50
aI50
aI50
aI50
aI50
aI50
aI50
aI25
aI50
aI50
aI25
aI50
aI50
aI50
aI50
aI50
aI50
aI50
aI50
aI50
aI50
aI50
aI50
aI50
aI50
aI50
aI41
aI50
aI50
aI50
aI49
aI50
aI50
aI50
aI50
aI50
aI30
aI14
aI50
aI47
aI50
aI28
aI50
aI50
aI42
aI50
aI50
aI50
aI50
aI50
aI50
aI50
aI50
aI50
aI50
aI18
aI50
aI50
aI50
aI50
aI50
aI30
aI50
aI34
aI39
aI50
aI50
aI40
aI50
aI50
aI50
aI50
aI50
aI50
aI50
aI50
aI50
aI50
aI50
aI50
aI50
aI50
aI50
aI50
aI50
aI50
aI45
aI50
aI50
aI50
aI50
aI50
aI50
aI44
aI50
aI50
aI50
aI50
aI50
aI50
aI50
aI50
aI50
aI50
aI50
aI50
aI50
aI44
aI50
aI50
aI50
aI50
aI50
aI50
aI50
aI50
aI32
aI17
aI50
aI30
aI50
aI44
aI50
aI50
aI24
aI50
aI50
aI15
aI16
aI50
aI50
aI24
aI50
aI31
aI50
aI50
aI50
aI50
aI50
aI28
aI50
aI28
aI50
aI50
aI50
aI50
aI50
aI35
aI50
aI50
aI42
aI24
aI50
aI18
aI50
aI50
aI50
aI50
aI50
aI50
aI40
aI50
aI50
aI50
aI50
aI50
aI50
aI50
aI50
aI50
aI50
aI50
aI50
aI50
aI50
aI50
aI50
aI26
aI50
aI50
aI50
aI50
aI50
aI50
aI50
aI50
aI26
aI50
aI50
aI50
aI23
aI30
aI50
aI23
aI25
aI50
aI50
aI50
aI50
aI50
aI18
aI50
aI47
aI50
aI50
aI32
aI40
aI50
aI27
aI50
aI50
aI50
aI14
aI50
aI50
aI50
aI34
aI50
aI46
aI50
aI50
aI22
aI50
aI18
aI50
aI50
aI50
aI41
aI50
aI50
aI49
aI50
aI50
aI50
aI50
aI50
aI50
aI23
aI20
aI50
aI26
aI50
aI50
aI16
aI50
aI50
aI25
aI50
aI50
aI50
aI50
aI27
aI50
aI50
aI50
aI50
aI50
aI26
aI18
aI20
aI50
aI50
aI46
aI50
aI41
aI50
aI50
aI35
aI32
aI22
aI50
aI50
aI50
aI50
aI29
aI50
aI50
aI25
aI50
aI50
aI50
aI50
aI50
aI50
aI50
aI16
aI49
aI50
aI50
aI49
aI50
aI50
aI50
aI45
aI50
aI50
aI37
aI50
aI50
aI50
aI50
aI50
aI50
aI50
aI44
aI50
aI50
aI50
aI50
aI50
aI50
aI50
aI42
aI50
aI35
aI26
aI16
aI50
aI50
aI34
aI50
aI50
aI50
aI50
aI50
aI27
aI30
aI50
aI50
aI50
aI50
aI50
aI50
aI50
aI50
aI50
aI50
aI50
aI50
aI44
aI34
aI50
aI50
aI24
aI50
aI50
aI50
aI50
aI50
aI50
aI50
aI47
aI50
aI50
aI50
aI50
aI44
aI30
aI50
aI18
aI50
aI28
aI48
aI50
aI50
aI50
aI50
aI50
aI50
aI50
aI34
aI50
aI50
aI42
aI50
aI50
aI50
aI50
aI34
aI50
aI50
aI19
aI50
aI50
aI50
aI50
aI22
aI50
aI50
aI50
aI50
aI50
aI50
aI50
aI50
aI50
aI50
aI50
aI50
aI50
aI50
aI50
aI50
aI50
aI50
aI50
aI50
aI50
aI50
aI50
aI50
aI50
aI50
aI50
aI50
aI50
aI50
aI50
aI50
aI50
aI50
aI50
aI40
aI50
aI50
aI43
aI50
aI50
aI50
aI18
aI50
aI50
aI50
aI50
aI50
aI50
aI29
aI50
aI50
aI24
aI50
aI50
aI26
aI50
aI50
aI34
aI50
aI50
aI50
aI50
aI50
aI50
aI50
aI50
aI50
aI50
aI50
aI50
aI50
aI48
aI50
aI50
aI24
aI49
aI50
aI50
aI50
aI50
aI50
aI50
aI50
aI50
aI50
aI50
aI50
aI50
aI19
aI50
aI50
aI50
aI50
aI50
aI50
aI29
aI50
aI24
aI24
aI50
aI50
aI50
aI41
aI50
aI50
aI50
aI50
aI27
aI50
aI50
aI46
aI50
aI14
aI47
aI50
aI50
aI50
aI50
aI50
aI50
aI47
aI50
aI50
aI50
aI50
aI14
aI50
aI50
aI50
aI50
aI50
aI50
aI50
aI18
aI50
aI50
aI50
aI26
aI50
aI50
aI50
aI43
aI50
aI44
aI50
aI50
aI50
aI50
aI43
aI50
aI50
aI50
aI50
aI50
aI39
aI46
aI50
aI50
aI50
aI50
aI50
aI50
aI50
aI16
aI50
aI50
aI50
aI50
aI50
aI50
aI50
aI19
aI23
aI50
aI50
aI50
aI50
aI50
aI50
aI50
aI50
aI50
aI50
aI50
aI50
aI50
aI34
aI29
aI50
aI50
aI14
aI44
aI44
aI22
aI50
aI50
aI50
aI50
aI50
aI50
aI50
aI25
aI50
aI50
aI50
aI50
aI50
aI50
aI24
aI50
aI50
aI50
aI50
aI14
aI50
aI50
aI27
aI50
aI50
aI50
aI50
aI50
aI49
aI50
aI50
aI38
aI50
aI31
aI50
aI50
aI50
aI21
aI39
aI50
aI40
aI50
aI50
aI50
aI50
aI50
aI50
aI50
aI41
aI50
aI50
aI50
aI50
aI20
aI50
aI50
aI50
aI50
aI50
aI50
aI33
aI28
aI50
aI41
aI50
aI36
aI50
aI50
aI50
aI50
aI50
aI22
aI31
aI50
aI50
aI50
aI50
aI50
aI50
aI39
aI50
aI50
aI50
aI31
aI22
aI50
aI50
aI19
aI46
aI42
aI50
aI36
aI50
aI15
aI50
aI18
aI15
aI26
aI31
aI50
aI42
aI50
aI50
aI50
aI50
aI50
aI43
aI50
aI50
aI50
aI50
aI50
aI50
aI50
aI45
aI50
aI45
aI50
aI50
aI50
aI50
aI50
aI37
aI50
aI50
aI50
aI50
aI28
aI50
aI50
aI18
aI46
aI50
aI16
aI50
aI50
aI50
aI50
aI50
aI50
aI50
aI50
aI50
aI50
aI34
aI50
aI50
aI50
aI50
aI50
aI50
aI33
aI50
aI46
aI16
aI50
aI50
aI50
aI39
aI50
aI50
aI38
aI50
aI50
aI50
aI50
aI50
aI50
aI50
aI28
aI50
aI50
aI50
aI50
aI50
aI39
aI50
aI50
aI50
aI50
aI50
aI31
aI50
aI50
aI43
aI36
aI50
aI50
aI50
aI50
aI22
aI50
aI19
aI50
aI50
aI50
aI50
aI50
aI50
aI24
aI50
aI50
aI48
aI50
aI50
aI50
aI40
aI50
aI50
aI50
aI50
aI49
aI50
aI38
aI50
aI23
aI50
aI50
aI50
aI50
aI20
aI50
aI33
aI50
aI50
aI50
aI50
aI44
aI50
aI50
aI46
aI38
aI50
aI48
aI50
aI50
aI50
aI50
aI26
aI50
aI50
aI50
aI50
aI48
aI50
aI50
aI50
aI50
aI50
aI50
aI50
aI50
aI33
aI23
aI50
aI50
aI34
aI50
aI50
aI50
aI50
aI28
aI34
aI50
aI16
aI25
aI50
aI36
aI50
aI50
aI50
aI44
aI50
aI50
aI50
aI50
aI50
aI50
aI39
aI39
aI50
aI31
aI50
aI50
aI31
aI46
aI50
aI50
aI50
aI50
aI50
aI50
aI50
aI50
aI50
aI50
aI50
aI50
aI50
aI50
aI50
aI50
aI50
aI50
aI47
aI50
aI31
aI35
aI23
aI50
aI50
aI50
aI50
aI47
aI22
aI50
aI50
aI21
aI50
aI50
aI50
aI50
aI50
aI50
aI41
aI50
aI50
aI29
aI50
aI50
aI50
aI50
aI29
aI50
aI50
aI26
aI50
aI32
aI50
aI32
aI50
aI50
aI30
aI50
aI50
aI50
aI50
aI22
aI45
aI50
aI50
aI50
aI50
aI50
aI50
aI50
aI50
aI50
aI50
aI33
aI50
aI50
aI50
aI27
aI50
aI50
aI31
aI50
aI50
aI16
aI50
aI50
aI50
aI50
aI50
aI50
aI50
aI50
aI50
aI31
aI50
aI50
aI50
aI50
aI50
aI50
aI50
aI50
aI50
aI50
aI50
aI50
aI50
aI20
aI17
aI44
aI50
aI50
aI50
aI41
aI43
aI50
aI50
aI46
aI50
aI50
aI50
aI50
aI50
aI50
aI50
aI50
aI50
aI50
aI50
aI50
aI50
aI50
aI50
aI50
aI50
aI21
aI50
aI50
aI33
aI50
aI50
aI50
aI50
aI50
aI50
aI50
aI50
aI38
aI50
aI50
aI50
aI50
aI50
aI42
aI50
aI50
aI50
aI50
aI25
aI50
aI38
aI50
aI50
aI50
aI50
aI50
aI50
aI50
aI50
aI50
aI50
aI50
aI50
aI50
aI50
aI50
aI50
aI50
aI50
aI50
aI50
aI50
aI50
aI50
aI50
aI50
aI50
aI50
aI17
aI50
aI50
aI50
aI50
aI50
aI50
aI50
aI50
aI50
aI50
aI50
aI50
aI50
aI50
aI50
aI50
aI50
aI50
aI38
aI50
aI50
aI50
aI50
aI28
aI50
aI50
aI50
aI50
aI50
aI39
aI36
aI50
aI50
aI50
aI50
aI50
aI50
aI50
aI50
aI50
aI50
aI50
aI50
aI50
aI37
aI48
aI50
aI28
aI50
aI50
aI48
aI50
aI26
aI50
aI50
aI50
aI42
aI50
aI50
aI50
aI31
aI50
aI50
aI50
aI50
aI50
aI38
aI50
aI45
aI50
aI33
aI50
aI50
aI50
aI50
aI50
aI50
aI50
aI45
aI50
aI50
aI50
aI50
aI46
aI50
aI42
aI50
aI50
aI24
aI50
aI50
aI25
aI50
aI50
aI39
aI50
aI50
aI23
aI50
aI50
aI24
aI50
aI43
aI50
aI50
aI50
aI50
aI50
aI50
aI50
aI50
aI50
aI32
aI50
aI50
aI50
aI50
aI50
aI50
aI50
aI50
aI35
aI50
aI50
aI50
aI50
aI50
aI50
aI50
aI50
aI50
aI50
aI50
aI50
aI50
aI50
aI50
aI50
aI50
aI50
aI50
aI16
aI50
aI50
aI50
aI48
aI50
aI50
aI50
aI50
aI50
aI50
aI50
aI50
aI50
aI50
aI50
aI50
aI50
aI50
aI50
aI37
aI50
aI50
aI40
aI50
aI50
aI36
aI39
aI50
aI50
aI22
aI50
aI50
aI50
aI50
aI50
aI50
aI50
aI50
aI50
aI50
aI44
aI50
aI50
aI50
aI50
aI50
aI29
aI50
aI50
aI41
aI50
aI50
aI50
aI50
aI44
aI50
aI32
aI50
aI50
aI50
aI50
aI50
aI47
aI37
aI50
aI24
aI50
aI50
aI50
aI50
aI50
aI50
aI24
aI50
aI50
aI18
aI50
aI50
aI50
aI50
aI50
aI35
aI50
aI15
aI50
aI50
aI50
aI50
aI20
aI50
aI50
aI50
aI50
aI50
aI50
aI50
aI50
aI50
aI50
aI37
aI24
aI40
aI50
aI31
aI36
aI50
aI50
aI50
aI50
aI23
aI50
aI50
aI50
aI50
aI50
aI19
aI50
aI50
aI50
aI50
aI50
aI50
aI50
aI43
aI50
aI50
aI50
aI50
aI50
aI50
aI50
aI50
aI50
aI35
aI34
aI50
aI50
aI50
aI50
aI50
aI50
aI36
aI50
aI50
aI50
aI50
aI33
aI50
aI38
aI42
aI50
aI50
aI50
aI50
aI50
aI50
aI26
aI50
aI45
aI50
aI42
aI23
aI50
aI50
aI50
aI50
aI50
aI50
aI50
aI50
aI50
aI20
aI50
aI50
aI50
aI50
aI50
aI26
aI50
aI50
aI50
aI50
aI50
aI32
aI50
aI50
aI50
aI50
aI50
aI50
aI37
aI50
aI50
aI50
aI50
aI50
aI50
aI50
aI50
aI50
aI50
aI50
aI50
aI50
aI50
aI50
aI50
aI50
aI32
aI50
aI50
aI50
aI50
aI50
aI50
aI50
aI50
aI50
aI50
aI50
aI50
aI50
aI50
aI36
aI50
aI50
aI50
aI19
aI50
aI50
aI20
aI50
aI35
aI34
aI50
aI44
aI50
aI50
aI50
aI39
aI50
aI50
aI50
aI50
aI50
aI20
aI41
aI45
aI15
aI50
aI50
aI50
aI50
aI50
aI50
aI50
aI50
aI50
aI50
aI50
aI50
aI45
aI39
aI50
aI40
aI50
aI50
aI18
aI50
aI50
aI50
aI50
aI50
aI50
aI50
aI50
aI50
aI45
aI50
aI25
aI50
aI50
aI50
aI30
aI46
aI42
aI50
aI47
aI50
aI50
aI38
aI50
aI50
aI50
aI50
aI50
aI50
aI36
aI32
aI50
aI50
aI50
aI50
aI50
aI50
aI50
aI50
aI50
aI50
aI50
aI50
aI50
aI28
aI50
aI50
aI50
aI30
aI50
aI50
aI50
aI50
aI50
aI50
aI50
aI50
aI50
aI50
aI37
aI50
aI38
aI50
aI50
aI30
aI45
aI50
aI50
aI50
aI16
aI50
aI35
aI50
aI17
aI50
aI50
aI50
aI50
aI50
aI20
aI50
aI50
aI32
aI50
aI50
aI50
aI35
aI50
aI39
aI50
aI50
aI49
aI50
aI50
aI50
aI50
aI50
aI50
aI50
aI38
aI50
aI50
aI50
aI50
aI50
aI36
aI50
aI50
aI50
aI50
aI50
aI50
aI50
aI50
aI50
aI50
aI50
aI50
aI50
aI50
aI50
aI46
aI36
aI50
aI50
aI50
aI32
aI50
aI50
aI50
aI50
aI50
aI50
aI50
aI50
aI50
aI50
aI50
aI50
aI50
aI50
aI50
aI50
aI50
aI25
aI50
aI50
aI50
aI50
aI50
aI50
aI50
aI50
aI50
aI50
aI50
aI50
aI50
aI50
aI50
aI50
aI50
aI15
aI50
aI50
aI50
aI50
aI50
aI30
aI50
aI50
aI50
aI50
aI50
aI50
aI50
aI50
aI50
aI50
aI50
aI50
aI50
aI50
aI38
aI50
aI50
aI50
aI50
aI50
aI50
aI38
aI50
aI50
aI50
aI50
aI50
aI50
aI50
aI50
aI50
aI50
aI50
aI50
aI50
aI50
aI22
aI50
aI20
aI50
aI50
aI50
aI50
aI49
aI33
aI50
aI50
aI50
aI50
aI50
aI50
aI20
aI50
aI50
aI50
aI50
aI50
aI50
aI50
aI34
aI40
aI46
aI43
aI50
aI50
aI50
aI50
aI44
aI50
aI28
aI50
aI50
aI50
aI50
aI34
aI42
aI50
aI50
aI50
aI50
aI20
aI30
aI42
aI50
aI50
aI50
aI34
aI50
aI50
aI40
aI50
aI50
aI50
aI50
aI50
aI28
aI50
aI50
aI50
aI50
aI50
aI50
aI50
aI39
aI50
aI50
aI50
aI50
aI50
aI50
aI50
aI50
aI50
aI32
aI50
aI50
aI50
aI50
aI50
aI50
aI46
aI50
aI50
aI50
aI50
aI50
aI50
aI50
aI50
aI50
aI50
aI50
aI50
aI50
aI50
aI50
aI50
aI28
aI50
aI50
aI50
aI17
aI22
aI50
aI50
aI50
aI50
aI23
aI50
aI48
aI50
aI50
aI50
aI50
aI50
aI50
aI50
aI50
aI50
aI50
aI27
aI50
aI50
aI50
aI50
aI48
aI50
aI50
aI50
aI50
aI50
aI50
aI50
aI36
aI50
aI50
aI50
aI50
aI50
aI50
aI50
aI50
aI36
aI50
aI50
aI50
aI48
aI50
aI50
aI50
aI50
aI50
aI50
aI50
aI50
aI22
aI50
aI50
aI50
aI50
aI50
aI50
aI50
aI50
aI50
aI50
aI22
aI50
aI50
aI50
aI50
aI14
aI24
aI50
aI50
aI50
aI50
aI23
aI50
aI30
aI44
aI44
aI40
aI50
aI50
aI45
aI50
aI29
aI50
aI32
aI50
aI50
aI50
aI50
aI50
aI50
aI50
aI50
aI50
aI40
aI48
aI50
aI50
aI50
aI50
aI50
aI50
aI50
aI50
aI50
aI50
aI50
aI50
aI50
aI50
aI50
aI50
aI50
aI14
aI50
aI50
aI50
aI50
aI31
aI50
aI50
aI50
aI50
aI50
aI50
aI50
aI50
aI50
aI50
aI50
aI50
aI50
aI50
aI50
aI50
aI50
aI49
aI50
aI50
aI50
aI50
aI50
aI50
aI50
aI50
aI50
aI46
aI50
aI50
aI50
aI50
aI50
aI50
aI50
aI19
aI50
aI50
aI50
aI50
aI50
aI21
aI50
aI50
aI31
aI50
aI50
aI50
aI50
aI50
aI50
aI50
aI50
aI50
aI50
aI50
aI33
aI50
aI50
aI47
aI49
aI50
aI50
aI50
aI31
aI50
aI50
aI50
aI50
aI50
aI50
aI50
aI50
aI50
aI28
aI50
aI50
aI50
aI50
aI50
aI50
aI50
aI50
aI50
aI50
aI50
aI50
aI50
aI41
aI50
aI50
aI50
aI50
aI50
aI50
aI50
aI30
aI50
aI50
aI50
aI50
aI50
aI50
aI50
aI50
aI50
aI50
aI50
aI32
aI50
aI50
aI50
aI50
aI50
aI50
aI50
aI50
aI50
aI50
aI50
aI35
aI50
aI50
aI50
aI50
aI46
aI50
aI50
aI50
aI50
aI50
aI50
aI30
aI50
aI50
aI50
aI50
aI36
aI50
aI50
aI50
aI22
aI50
aI50
aI46
aI50
aI32
aI41
aI50
aI50
aI18
aI50
aI50
aI21
aI22
aI50
aI21
aI50
aI50
aI50
aI50
aI50
aI43
aI35
aI50
aI50
aI33
aI50
aI29
aI42
aI50
aI31
aI50
aI50
aI50
aI50
aI50
aI50
aI44
aI50
aI50
aI45
aI50
aI50
aI50
aI50
aI50
aI50
aI50
aI50
aI50
aI50
aI50
aI50
aI50
aI50
aI50
aI42
aI50
aI50
aI50
aI50
aI50
aI50
aI50
aI50
aI50
aI50
aI50
aI36
aI50
aI50
aI50
aI31
aI50
aI50
aI50
aI50
aI50
aI50
aI50
aI50
aI32
aI47
aI50
aI50
aI50
aI50
aI50
aI50
aI50
aI50
aI50
aI50
aI40
aI50
aI50
aI48
aI44
aI50
aI50
aI50
aI50
aI50
aI50
aI50
aI29
aI14
aI50
aI50
aI50
aI50
aI28
aI39
aI35
aI43
aI38
aI50
aI50
aI49
aI50
aI50
aI50
aI50
aI50
aI50
aI50
aI50
aI50
aI50
aI50
aI50
aI21
aI50
aI50
aI50
aI50
aI50
aI50
aI50
aI50
aI50
aI50
aI50
aI50
aI50
aI50
aI50
aI50
aI50
aI50
aI50
aI50
aI50
aI50
aI50
aI50
aI50
aI50
aI50
aI50
aI50
aI50
aI50
aI50
aI50
aI50
aI50
aI50
aI50
aI14
aI45
aI50
aI50
aI50
aI50
aI50
aI50
aI50
aI50
aI50
aI50
aI50
aI50
aI35
aI28
aI25
aI38
aI50
aI50
aI50
aI19
aI50
aI43
aI50
aI50
aI46
aI50
aI50
aI50
aI50
aI50
aI31
aI50
aI50
aI37
aI50
aI32
aI50
aI50
aI50
aI50
aI50
aI26
aI50
aI50
aI50
aI50
aI32
aI49
aI46
aI50
aI50
aI50
aI50
aI49
aI49
aI50
aI50
aI50
aI50
aI41
aI30
aI48
aI50
aI33
aI50
aI50
aI50
aI50
aI50
aI50
aI21
aI50
aI50
aI50
aI50
aI50
aI50
aI50
aI50
aI50
aI50
aI40
aI50
aI50
aI48
aI50
aI50
aI50
aI50
aI50
aI50
aI35
aI48
aI50
aI46
aI31
aI50
aI50
aI50
aI50
aI50
aI50
aI50
aI50
aI16
aI22
aI50
aI50
aI40
aI50
aI50
aI50
aI50
aI37
aI50
aI50
aI50
aI39
aI35
aI50
aI50
aI50
aI24
aI50
aI50
aI50
aI44
aI50
aI16
aI50
aI33
aI50
aI50
aI50
aI32
aI50
aI22
aI50
aI50
aI50
aI50
aI50
aI50
aI50
aI45
aI50
aI50
aI50
aI50
aI50
aI50
aI34
aI50
aI50
aI50
aI50
aI50
aI50
aI24
aI50
aI29
aI44
aI50
aI50
aI50
aI50
aI30
aI50
aI21
aI50
aI50
aI26
aI50
aI50
aI50
aI50
aI50
aI50
aI50
aI50
aI50
aI50
aI50
aI50
aI50
aI50
aI50
aI50
aI50
aI50
aI27
aI50
aI50
aI50
aI50
aI50
aI50
aI50
aI50
aI35
aI23
aI50
aI24
aI31
aI50
aI50
aI50
aI50
aI50
aI41
aI50
aI50
aI50
aI50
aI50
aI50
aI46
aI50
aI25
aI50
aI50
aI50
aI32
aI50
aI50
aI50
aI50
aI50
aI50
aI26
aI50
aI50
aI50
aI50
aI50
aI50
aI50
aI50
aI50
aI50
aI50
aI50
aI50
aI50
aI50
aI37
aI50
aI50
aI50
aI50
aI50
aI50
aI50
aI38
aI50
aI50
aI50
aI50
aI50
aI50
aI50
aI37
aI50
aI41
aI50
aI50
aI50
aI50
aI50
aI50
aI50
aI50
aI50
aI50
aI50
aI50
aI30
aI45
aI50
aI50
aI50
aI50
aI50
aI50
aI50
aI50
aI28
aI50
aI50
aI48
aI29
aI50
aI50
aI50
aI50
aI37
aI50
aI50
aI50
aI45
aI34
aI23
aI50
aI50
aI50
aI50
aI50
aI50
aI50
aI50
aI30
aI50
aI50
aI50
aI50
aI50
aI50
aI36
aI50
aI50
aI50
aI50
aI50
aI35
aI50
aI50
aI50
aI50
aI23
aI50
aI50
aI50
aI50
aI34
aI50
aI46
aI50
aI50
aI50
aI50
aI50
aI50
aI50
aI50
aI50
aI50
aI35
aI32
aI50
aI50
aI50
aI47
aI37
aI50
aI50
aI50
aI50
aI35
aI50
aI50
aI50
aI50
aI50
aI50
aI50
aI50
aI50
aI50
aI50
aI50
aI50
aI50
aI47
aI50
aI50
aI50
aI50
aI50
aI50
aI50
aI50
aI50
aI50
aI50
aI50
aI15
aI50
aI50
aI49
aI50
aI50
aI50
aI50
aI50
aI50
aI50
aI50
aI50
aI50
aI27
aI50
aI50
aI50
aI50
aI50
aI35
aI50
aI50
aI50
aI50
aI29
aI50
aI50
aI50
aI50
aI43
aI43
aI50
aI50
aI50
aI50
aI26
aI50
aI50
aI50
aI50
aI50
aI50
aI50
aI50
aI50
aI45
aI35
aI38
aI50
aI50
aI50
aI33
aI50
aI50
aI50
aI50
aI50
aI50
aI50
aI49
aI30
aI50
aI40
aI50
aI50
aI50
aI46
aI43
aI50
aI50
aI40
aI35
aI50
aI50
aI50
aI50
aI50
aI43
aI50
aI50
aI42
aI50
aI48
aI50
aI50
aI50
aI50
aI50
aI50
aI50
aI50
aI50
aI50
aI50
aI50
aI50
aI50
aI39
aI22
aI50
aI50
aI50
aI50
aI30
aI50
aI50
aI50
aI50
aI50
aI50
aI45
aI50
aI50
aI50
aI50
aI50
aI36
aI50
aI50
aI50
aI50
aI50
aI50
aI50
aI50
aI44
aI50
aI50
aI50
aI50
aI50
aI50
aI50
aI21
aI50
aI50
aI50
aI50
aI50
aI50
aI36
aI50
aI40
aI50
aI50
aI50
aI50
aI34
aI50
aI30
aI46
aI50
aI50
aI32
aI50
aI50
aI26
aI50
aI50
aI47
aI50
aI50
aI45
aI50
aI39
aI32
aI50
aI42
aI50
aI29
aI50
aI50
aI50
aI50
aI50
aI50
aI50
aI50
aI50
aI50
aI50
aI50
aI32
aI50
aI50
aI50
aI50
aI50
aI50
aI50
aI50
aI41
aI50
aI24
aI38
aI37
aI30
aI50
aI50
aI50
aI37
aI50
aI50
aI50
aI50
aI50
aI50
aI50
aI32
aI50
aI50
aI38
aI50
aI50
aI43
aI30
aI41
aI50
aI50
aI50
aI50
aI50
aI50
aI50
aI50
aI50
aI50
aI50
aI29
aI50
aI50
aI50
aI50
aI50
aI50
aI50
aI50
aI50
aI50
aI27
aI50
aI50
aI50
aI50
aI50
aI50
aI42
aI50
aI50
aI50
aI24
aI50
aI50
aI50
aI50
aI40
aI31
aI32
aI50
aI50
aI50
aI50
aI50
aI50
aI50
aI50
aI50
aI50
aI50
aI50
aI50
aI50
aI50
aI50
aI50
aI50
aI42
aI50
aI50
aI33
aI50
aI50
aI50
aI33
aI50
aI24
aI50
aI50
aI50
aI50
aI50
aI50
aI50
aI50
aI50
aI50
aI50
aI37
aI50
aI50
aI50
aI50
aI23
aI50
aI50
aI24
aI50
aI40
aI25
aI50
aI50
aI50
aI50
aI50
aI50
aI50
aI50
aI50
aI50
aI50
aI50
aI41
aI50
aI50
aI50
aI45
aI50
aI50
aI50
aI50
aI50
aI16
aI50
aI50
aI50
aI49
aI50
aI50
aI50
aI50
aI50
aI50
aI50
aI50
aI50
aI50
aI44
aI50
aI50
aI50
aI42
aI50
aI50
aI50
aI50
aI50
aI50
aI27
aI50
aI50
aI27
aI34
aI50
aI23
aI50
aI50
aI42
aI50
aI39
aI41
aI50
aI50
aI50
aI50
aI14
aI50
aI50
aI50
aI36
aI50
aI42
aI50
aI50
aI50
aI50
aI24
aI50
aI50
aI50
aI50
aI35
aI50
aI50
aI50
aI50
aI50
aI50
aI22
aI50
aI50
aI50
aI50
aI46
aI50
aI50
aI50
aI50
aI50
aI50
aI50
aI50
aI50
aI50
aI48
aI50
aI50
aI50
aI50
aI50
aI50
aI50
aI21
aI50
aI50
aI50
aI50
aI50
aI50
aI50
aI50
aI26
aI30
aI20
aI50
aI50
aI50
aI28
aI50
aI50
aI50
aI50
aI50
aI50
aI22
aI50
aI50
aI24
aI27
aI24
aI50
aI50
aI50
aI50
aI50
aI50
aI50
aI50
aI50
aI50
aI29
aI50
aI50
aI50
aI50
aI50
aI50
aI50
aI45
aI50
aI50
aI50
aI50
aI50
aI50
aI50
aI50
aI50
aI50
aI27
aI32
aI50
aI50
aI50
aI50
aI50
aI50
aI50
aI50
aI50
aI50
aI34
aI50
aI50
aI26
aI50
aI50
aI50
aI48
aI50
aI50
aI50
aI50
aI50
aI36
aI50
aI50
aI50
aI50
aI50
aI50
aI50
aI50
aI50
aI50
aI50
aI29
aI50
aI50
aI50
aI50
aI50
aI50
aI50
aI50
aI50
aI22
aI50
aI50
aI50
aI50
aI50
aI39
aI50
aI50
aI50
aI50
aI19
aI50
aI50
aI50
aI50
aI46
aI50
aI50
aI50
aI50
aI34
aI50
aI50
aI50
aI50
aI50
aI50
aI50
aI50
aI50
aI50
aI50
aI50
aI50
aI50
aI50
aI34
aI50
aI48
aI50
aI50
aI50
aI50
aI50
aI50
aI50
aI50
aI50
aI50
aI50
aI31
aI50
aI46
aI50
aI50
aI50
aI50
aI50
aI50
aI50
aI50
aI50
aI50
aI50
aI50
aI50
aI50
aI38
aI50
aI22
aI44
aI50
aI50
aI50
aI49
aI50
aI49
aI20
aI23
aI50
aI50
aI50
aI50
aI50
aI50
aI50
aI36
aI50
aI50
aI50
aI50
aI50
aI50
aI20
aI50
aI50
aI50
aI50
aI50
aI50
aI50
aI50
aI50
aI50
aI46
aI50
aI50
aI50
aI50
aI38
aI50
aI50
aI50
aI50
aI50
aI50
aI50
aI50
aI50
aI50
aI50
aI50
aI50
aI50
aI36
aI50
aI50
aI50
aI50
aI50
aI50
aI50
aI34
aI50
aI50
aI50
aI50
aI44
aI50
aI50
aI50
aI50
aI50
aI50
aI50
aI50
aI50
aI50
aI50
aI50
aI45
aI44
aI50
aI50
aI50
aI50
aI21
aI50
aI50
aI50
aI50
aI50
aI50
aI50
aI50
aI32
aI50
aI50
aI50
aI14
aI50
aI50
aI48
aI18
aI50
aI50
aI50
aI50
aI50
aI50
aI50
aI50
aI50
aI50
aI50
aI50
aI50
aI50
aI50
aI50
aI50
aI45
aI34
aI42
aI50
aI50
aI50
aI50
aI50
aI32
aI50
aI23
aI50
aI50
aI50
aI50
aI50
aI50
aI50
aI50
aI50
aI50
aI50
aI26
aI50
aI50
aI50
aI50
aI50
aI38
aI50
aI50
aI50
aI50
aI50
aI50
aI50
aI50
aI50
aI50
aI50
aI50
aI50
aI48
aI50
aI50
aI50
aI42
aI50
aI50
aI40
aI50
aI50
aI50
aI32
aI50
aI50
aI50
aI50
aI50
aI50
aI50
aI50
aI50
aI50
aI50
aI50
aI50
aI50
aI50
aI50
aI34
aI50
aI50
aI50
aI50
aI50
aI50
aI50
aI40
aI50
aI14
aI50
aI50
aI50
aI50
aI50
aI50
aI50
aI39
aI50
aI50
aI50
aI50
aI50
aI50
aI50
aI50
aI50
aI50
aI50
aI50
aI50
aI50
aI50
aI50
aI50
aI50
aI50
aI50
aI50
aI50
aI50
aI34
aI50
aI50
aI50
aI50
aI50
aI50
aI50
aI24
aI50
aI50
aI50
aI50
aI50
aI45
aI50
aI41
aI46
aI50
aI50
aI50
aI50
aI50
aI43
aI50
aI50
aI50
aI50
aI35
aI50
aI50
aI50
aI50
aI50
aI50
aI50
aI50
aI50
aI30
aI27
aI50
aI50
aI50
aI27
aI50
aI34
aI50
aI50
aI47
aI50
aI50
aI50
aI41
aI24
aI50
aI50
aI50
aI47
aI50
aI50
aI31
aI50
aI50
aI50
aI50
aI50
aI50
aI50
aI50
aI50
aI50
aI50
aI50
aI50
aI30
aI50
aI50
aI37
aI50
aI50
aI50
aI50
aI50
aI50
aI50
aI45
aI50
aI50
aI50
aI26
aI50
aI50
aI28
aI50
aI24
aI50
aI50
aI35
aI19
aI43
aI50
aI50
aI50
aI50
aI50
aI50
aI50
aI50
aI50
aI50
aI50
aI50
aI50
aI50
aI50
aI50
aI50
aI50
aI50
aI50
aI50
aI50
aI50
aI50
aI50
aI50
aI50
aI50
aI50
aI31
aI50
aI50
aI50
aI50
aI50
aI50
aI50
aI50
aI50
aI50
aI50
aI50
aI18
aI50
aI50
aI50
aI33
aI50
aI50
aI50
aI50
aI50
aI50
aI49
aI26
aI50
aI50
aI50
aI50
aI50
aI50
aI33
aI50
aI50
aI50
aI50
aI50
aI45
aI50
aI38
aI50
aI30
aI50
aI50
aI50
aI50
aI50
aI50
aI50
aI50
aI50
aI42
aI50
aI50
aI40
aI50
aI34
aI50
aI27
aI50
aI50
aI22
aI50
aI50
aI50
aI50
aI50
aI50
aI19
aI24
aI50
aI50
aI50
aI25
aI50
aI50
aI50
aI50
aI50
aI50
aI49
aI50
aI50
aI50
aI50
aI50
aI50
aI50
aI50
aI20
aI49
aI50
aI50
aI50
aI50
aI50
aI50
aI50
aI30
aI50
aI23
aI50
aI50
aI38
aI50
aI50
aI50
aI50
aI50
aI50
aI37
aI50
aI50
aI50
aI50
aI38
aI50
aI33
aI50
aI50
aI50
aI50
aI50
aI50
aI50
aI50
aI39
aI26
aI50
aI50
aI50
aI50
aI40
aI50
aI50
aI50
aI50
aI50
aI50
aI50
aI50
aI50
aI50
aI50
aI50
aI50
aI50
aI50
aI50
aI37
aI50
aI50
aI50
aI50
aI50
aI50
aI50
aI50
aI50
aI50
aI50
aI50
aI50
aI50
aI50
aI50
aI35
aI50
aI50
aI50
aI50
aI50
aI50
aI50
aI50
aI50
aI50
aI50
aI50
aI34
aI50
aI50
aI50
aI45
aI37
aI50
aI50
aI50
aI50
aI50
aI50
aI50
aI50
aI50
aI50
aI37
aI50
aI20
aI33
aI32
aI50
aI41
aI50
aI50
aI50
aI50
aI50
aI50
aI50
aI50
aI50
aI23
aI50
aI50
aI46
aI50
aI50
aI34
aI50
aI50
aI50
aI50
aI50
aI50
aI50
aI50
aI50
aI50
aI50
aI50
aI36
aI50
aI32
aI50
aI50
aI50
aI50
aI50
aI50
aI50
aI50
aI50
aI50
aI43
aI39
aI28
aI50
aI50
aI50
aI50
aI50
aI50
aI50
aI50
aI50
aI36
aI50
aI50
aI50
aI50
aI50
aI50
aI50
aI50
aI39
aI50
aI50
aI50
aI50
aI50
aI50
aI50
aI50
aI50
aI38
aI21
aI50
aI23
aI50
aI50
aI50
aI50
aI50
aI50
aI50
aI50
aI50
aI50
aI50
aI50
aI50
aI42
aI50
aI50
aI50
aI50
aI50
aI50
aI50
aI50
aI50
aI50
aI50
aI50
aI50
aI50
aI50
aI50
aI18
aI50
aI32
aI34
aI50
aI50
aI50
aI38
aI50
aI50
aI50
aI50
aI50
aI50
aI50
aI50
aI50
aI50
aI50
aI50
aI50
aI50
aI50
aI50
aI50
aI35
aI50
aI32
aI50
aI50
aI50
aI50
aI50
aI50
aI31
aI40
aI36
aI50
aI50
aI26
aI50
aI50
aI50
aI41
aI50
aI50
aI50
aI50
aI50
aI43
aI50
aI50
aI50
aI40
aI50
aI50
aI50
aI50
aI50
aI50
aI50
aI50
aI50
aI47
aI50
aI41
aI31
aI50
aI50
aI45
aI50
aI50
aI37
aI50
aI46
aI50
aI50
aI50
aI50
aI50
aI50
aI50
aI50
aI50
aI50
aI50
aI50
aI50
aI50
aI50
aI50
aI50
aI50
aI38
aI40
aI50
aI50
aI50
aI50
aI50
aI50
aI34
aI50
aI50
aI50
aI50
aI44
aI50
aI50
aI50
aI37
aI50
aI50
aI50
aI50
aI50
aI50
aI50
aI50
aI43
aI50
aI39
aI50
aI50
aI50
aI50
aI50
aI50
aI50
aI50
aI42
aI36
aI50
aI50
aI50
aI50
aI50
aI50
aI50
aI46
aI50
aI50
aI50
aI50
aI50
aI47
aI22
aI14
aI50
aI21
aI49
aI50
aI50
aI50
aI44
aI50
aI50
aI50
aI50
aI50
aI30
aI50
aI50
aI50
aI50
aI48
aI50
aI50
aI50
aI50
aI36
aI50
aI17
aI50
aI50
aI50
aI50
aI50
aI42
aI50
aI44
aI50
aI50
aI50
aI50
aI50
aI47
aI50
aI40
aI50
aI50
aI50
aI50
aI50
aI50
aI50
aI50
aI19
aI50
aI50
aI50
aI50
aI50
aI50
aI50
aI50
aI50
aI18
aI50
aI28
aI50
aI50
aI50
aI38
aI30
aI50
aI18
aI50
aI50
aI35
aI50
aI50
aI50
aI50
aI17
aI50
aI50
aI50
aI50
aI50
aI50
aI50
aI50
aI50
aI50
aI50
aI41
aI50
aI50
aI50
aI50
aI50
aI50
aI50
aI50
aI50
aI50
aI50
aI50
aI50
aI50
aI50
aI50
aI50
aI50
aI30
aI50
aI50
aI50
aI50
aI47
aI32
aI50
aI50
aI50
aI50
aI50
aI24
aI50
aI50
aI50
aI50
aI50
aI35
aI50
aI50
aI50
aI50
aI50
aI50
aI50
aI50
aI50
aI50
aI50
aI17
aI50
aI50
aI50
aI39
aI50
aI50
aI50
aI50
aI50
aI44
aI50
aI50
aI50
aI50
aI50
aI50
aI50
aI50
aI50
aI50
aI50
aI50
aI50
aI50
aI39
aI50
aI50
aI50
aI50
aI50
aI50
aI50
aI50
aI50
aI50
aI50
aI50
aI50
aI50
aI50
aI50
aI43
aI23
aI50
aI50
aI50
aI27
aI23
aI50
aI50
aI50
aI50
aI50
aI50
aI50
aI41
aI50
aI50
aI26
aI27
aI32
aI50
aI50
aI50
aI50
aI50
aI50
aI50
aI41
aI50
aI50
aI50
aI49
aI50
aI50
aI50
aI50
aI50
aI50
aI43
aI50
aI50
aI50
aI50
aI50
aI50
aI50
aI50
aI50
aI50
aI50
aI50
aI50
aI50
aI50
aI50
aI50
aI50
aI50
aI50
aI50
aI39
aI50
aI48
aI23
aI36
aI50
aI50
aI26
aI32
aI50
aI50
aI50
aI50
aI50
aI50
aI50
aI50
aI47
aI50
aI50
aI25
aI50
aI50
aI50
aI49
aI50
aI50
aI50
aI50
aI46
aI50
aI27
aI50
aI50
aI50
aI50
aI50
aI22
aI50
aI50
aI50
aI50
aI50
aI23
aI50
aI26
aI50
aI50
aI50
aI42
aI50
aI18
aI50
aI50
aI50
aI50
aI50
aI30
aI25
aI50
aI49
aI50
aI50
aI50
aI50
aI50
aI50
aI50
aI50
aI50
aI35
aI50
aI22
aI50
aI50
aI50
aI50
aI50
aI50
aI50
aI50
aI50
aI50
aI50
aI50
aI50
aI50
aI50
aI50
aI50
aI50
aI50
aI47
aI50
aI50
aI50
aI50
aI50
aI50
aI36
aI50
aI50
aI50
aI50
aI50
aI50
aI50
aI50
aI50
aI50
aI50
aI50
aI50
aI50
aI50
aI24
aI50
aI50
aI50
aI50
aI50
aI50
aI50
aI50
aI50
aI50
aI50
aI43
aI50
aI50
aI50
aI50
aI50
aI50
aI50
aI50
aI44
aI50
aI40
aI50
aI50
aI50
aI50
aI50
aI50
aI50
aI50
aI50
aI50
aI50
aI50
aI50
aI50
aI50
aI50
aI50
aI50
aI50
aI50
aI50
aI50
aI50
aI50
aI50
aI50
aI50
aI50
aI50
aI50
aI34
aI50
aI50
aI50
aI50
aI50
aI50
aI50
aI50
aI50
aI36
aI50
aI50
aI50
aI50
aI50
aI34
aI26
aI50
aI50
aI38
aI50
aI50
aI50
aI50
aI50
aI48
aI50
aI50
aI50
aI50
aI50
aI50
aI50
aI50
aI50
aI50
aI50
aI50
aI50
aI50
aI50
aI40
aI50
aI44
aI43
aI50
aI50
aI50
aI50
aI38
aI44
aI50
aI50
aI50
aI50
aI28
aI50
aI50
aI50
aI50
aI50
aI50
aI33
aI50
aI50
aI50
aI40
aI50
aI33
aI50
aI50
aI36
aI17
aI50
aI50
aI50
aI50
aI50
aI50
aI50
aI32
aI35
aI50
aI29
aI50
aI50
aI50
aI50
aI50
aI50
aI50
aI50
aI50
aI50
aI50
aI50
aI42
aI50
aI50
aI50
aI50
aI32
aI50
aI50
aI30
aI50
aI50
aI50
aI50
aI50
aI32
aI49
aI50
aI50
aI50
aI50
aI50
aI50
aI49
aI50
aI50
aI50
aI50
aI50
aI50
aI18
aI50
aI50
aI42
aI38
aI50
aI49
aI50
aI50
aI50
aI50
aI43
aI50
aI50
aI50
aI16
aI50
aI47
aI50
aI50
aI50
aI34
aI50
aI50
aI50
aI50
aI50
aI50
aI50
aI50
aI50
aI50
aI50
aI50
aI50
aI50
aI50
aI50
aI50
aI50
aI50
aI50
aI50
aI50
aI50
aI50
aI50
aI50
aI50
aI48
aI50
aI50
aI50
aI50
aI14
aI50
aI50
aI50
aI50
aI50
aI32
aI18
aI29
aI28
aI50
aI50
aI50
aI24
aI50
aI50
aI50
aI50
aI50
aI50
aI50
aI50
aI50
aI50
aI50
aI50
aI48
aI24
aI49
aI50
aI50
aI50
aI50
aI33
aI50
aI50
aI50
aI50
aI50
aI50
aI50
aI50
aI50
aI50
aI50
aI50
aI50
aI50
aI50
aI50
aI50
aI22
aI50
aI50
aI50
aI50
aI50
aI50
aI50
aI50
aI50
aI50
aI44
aI50
aI50
aI50
aI50
aI50
aI50
aI50
aI50
aI43
aI50
aI50
aI22
aI50
aI50
aI50
aI50
aI50
aI50
aI50
aI50
aI50
aI50
aI50
aI26
aI16
aI37
aI50
aI22
aI50
aI50
aI50
aI49
aI50
aI39
aI38
aI50
aI50
aI50
aI50
aI50
aI50
aI45
aI50
aI50
aI50
aI50
aI50
aI50
aI50
aI45
aI50
aI50
aI50
aI50
aI50
aI32
aI50
aI50
aI48
aI50
aI43
aI50
aI50
aI50
aI50
aI50
aI50
aI50
aI50
aI50
aI50
aI32
aI50
aI50
aI50
aI50
aI50
aI50
aI50
aI50
aI50
aI50
aI50
aI50
aI50
aI50
aI50
aI50
aI50
aI50
aI50
aI50
aI50
aI50
aI50
aI50
aI50
aI50
aI50
aI50
aI50
aI50
aI50
aI50
aI50
aI50
aI50
aI50
aI50
aI50
aI50
aI50
aI50
aI50
aI50
aI50
aI50
aI50
aI50
aI50
aI50
aI50
aI50
aI50
aI50
aI50
aI50
aI50
aI50
aI50
aI50
aI38
aI50
aI50
aI50
aI50
aI50
aI50
aI50
aI50
aI23
aI50
aI43
aI50
aI50
aI50
aI50
aI50
aI50
aI50
aI50
aI50
aI50
aI50
aI50
aI34
aI50
aI50
aI50
aI50
aI50
aI50
aI50
aI50
aI50
aI25
aI50
aI50
aI50
aI50
aI50
aI50
aI50
aI50
aI50
aI50
aI50
aI50
aI50
aI50
aI50
aI50
aI50
aI50
aI50
aI50
aI43
aI50
aI50
aI50
aI50
aI50
aI50
aI50
aI50
aI50
aI50
aI50
aI50
aI50
aI50
aI50
aI50
aI50
aI50
aI50
aI50
aI50
aI50
aI50
aI50
aI50
aI50
aI50
aI50
aI50
aI50
aI50
aI50
aI50
aI50
aI50
aI50
aI50
aI50
aI50
aI42
aI50
aI50
aI50
aI50
aI50
aI50
aI49
aI50
aI50
aI50
aI50
aI50
aI50
aI50
aI50
aI50
aI34
aI50
aI50
aI50
aI50
aI50
aI50
aI50
aI50
aI50
aI50
aI50
aI50
aI50
aI50
aI50
aI50
aI50
aI50
aI50
aI50
aI50
aI50
aI50
aI50
aI50
aI48
aI50
aI50
aI50
aI50
aI50
aI50
aI50
aI50
aI50
aI50
aI50
aI50
aI45
aI50
aI50
aI50
aI50
aI50
aI50
aI50
aI50
aI50
aI50
aI50
aI50
aI50
aI50
aI50
aI50
aI50
aI50
aI50
aI50
aI50
aI50
aI50
aI50
aI50
aI50
aI50
aI45
aI50
aI50
aI50
aI50
aI50
aI50
aI50
aI50
aI50
aI50
aI50
aI50
aI50
aI50
aI50
aI21
aI50
aI50
aI50
aI50
aI50
aI50
aI50
aI50
aI50
aI50
aI50
aI50
aI50
aI50
aI50
aI50
aI50
aI50
aI50
aI50
aI50
aI50
aI50
aI50
aI50
aI50
aI50
aI50
aI50
aI50
aI50
aI50
aI50
aI50
aI50
aI50
aI50
aI50
aI50
aI50
aI50
aI50
aI30
aI50
aI50
aI50
aI50
aI50
aI50
aI50
aI50
aI50
aI48
aI50
aI50
aI44
aI50
aI50
aI32
aI50
aI50
aI50
aI50
aI50
aI50
aI50
aI50
aI50
aI50
aI50
aI50
aI50
aI50
aI50
aI50
aI50
aI50
aI50
aI50
aI50
aI43
aI50
aI50
aI50
aI50
aI48
aI50
aI50
aI34
aI50
aI50
aI50
aI50
aI50
aI50
aI50
aI40
aI50
aI50
aI50
aI50
aI50
aI50
aI47
aI50
aI50
aI50
aI50
aI50
aI50
aI50
aI30
aI50
aI50
aI50
aI50
aI50
aI50
aI50
aI50
aI50
aI50
aI50
aI50
aI50
aI50
aI50
aI50
aI50
aI50
aI50
aI50
aI50
aI50
aI50
aI50
aI50
aI50
aI50
aI50
aI50
aI50
aI50
aI50
aI30
aI50
aI50
aI50
aI50
aI50
aI50
aI50
aI50
aI50
aI50
aI50
aI50
aI50
aI50
aI50
aI50
aI50
aI50
aI50
aI50
aI50
aI50
aI48
aI50
aI50
aI50
aI50
aI50
aI50
aI50
aI50
aI50
aI50
aI50
aI50
aI50
aI50
aI50
aI50
aI50
aI50
aI50
aI50
aI50
aI50
aI50
aI50
aI50
aI50
aI50
aI50
aI50
aI50
aI50
aI50
aI50
aI50
aI50
aI50
aI50
aI50
aI50
aI50
aI50
aI50
aI50
aI50
aI50
aI50
aI50
aI50
aI50
aI50
aI50
aI50
aI50
aI50
aI50
aI50
aI21
aI50
aI50
aI50
aI50
aI50
aI43
aI50
aI50
aI50
aI50
aI50
aI50
aI50
aI50
aI50
aI50
aI50
aI50
aI46
aI46
aI41
aI50
aI50
aI50
aI50
aI50
aI50
aI50
aI50
aI50
aI50
aI50
aI50
aI50
aI47
aI50
aI50
aI50
aI50
aI30
aI50
aI50
aI50
aI50
aI50
aI50
aI50
aI50
aI50
aI50
aI50
aI50
aI50
aI50
aI50
aI50
aI50
aI50
aI50
aI50
aI50
aI50
aI50
aI50
aI50
aI50
aI50
aI50
aI50
aI50
aI50
aI50
aI18
aI50
aI50
aI50
aI50
aI50
aI50
aI50
aI50
aI43
aI50
aI50
aI50
aI50
aI50
aI50
aI50
aI50
aI50
aI50
aI50
aI50
aI50
aI43
aI50
aI50
aI50
aI50
aI50
aI50
aI50
aI50
aI50
aI50
aI50
aI50
aI50
aI50
aI50
aI50
aI50
aI50
aI50
aI50
aI50
aI50
aI50
aI50
aI50
aI50
aI50
aI50
aI50
aI50
aI50
aI50
aI50
aI50
aI50
aI50
aI50
aI50
aI50
aI50
aI50
aI50
aI46
aI50
aI50
aI50
aI50
aI50
aI50
aI48
aI50
aI50
aI50
aI50
aI50
aI50
aI50
aI50
aI50
aI50
aI50
aI50
aI50
aI50
aI50
aI50
aI50
aI50
aI50
aI50
aI50
aI50
aI50
aI50
aI50
aI50
aI50
aI50
aI50
aI50
aI50
aI50
aI50
aI50
aI50
aI50
aI50
aI50
aI50
aI50
aI50
aI50
aI50
aI50
aI50
aI50
aI50
aI50
aI50
aI50
aI50
aI50
aI50
aI50
aI50
aI50
aI50
aI50
aI34
aI50
aI50
aI50
aI50
aI50
aI50
aI50
aI50
aI50
aI50
aI50
aI50
aI50
aI50
aI50
aI50
aI50
aI50
aI50
aI50
aI50
aI50
aI50
aI50
aI50
aI50
aI50
aI50
aI50
aI50
aI50
aI41
aI50
aI50
aI46
aI50
aI50
aI50
aI39
aI50
aI50
aI50
aI50
aI50
aI50
aI50
aI50
aI50
aI50
aI50
aI50
aI50
aI29
aI50
aI26
aI50
aI34
aI50
aI47
aI50
aI26
aI50
aI50
aI50
aI50
aI50
aI50
aI50
aI50
aI50
aI50
aI50
aI50
aI50
aI50
aI50
aI50
aI50
aI50
aI50
aI50
aI50
aI50
aI50
aI50
aI50
aI50
aI50
aI50
aI50
aI50
aI50
aI50
aI50
aI50
aI50
aI50
aI50
aI50
aI50
aI50
aI50
aI50
aI50
aI50
aI50
aI50
aI50
aI25
aI50
aI50
aI50
aI50
aI50
aI50
aI50
aI50
aI50
aI50
aI50
aI50
aI50
aI42
aI50
aI50
aI50
aI50
aI50
aI50
aI50
aI50
aI50
aI50
aI50
aI50
aI50
aI50
aI50
aI50
aI50
aI50
aI50
aI50
aI50
aI31
aI50
aI50
aI50
aI50
aI50
aI50
aI50
aI50
aI50
aI26
aI50
aI50
aI50
aI50
aI50
aI50
aI50
aI50
aI50
aI50
aI50
aI28
aI50
aI50
aI50
aI50
aI50
aI50
aI50
aI50
aI50
aI50
aI50
aI50
aI50
aI50
aI50
aI50
aI50
aI50
aI50
aI50
aI50
aI50
aI50
aI50
aI50
aI50
aI50
aI50
aI50
aI50
aI50
aI50
aI50
aI50
aI50
aI50
aI50
aI50
aI50
aI50
aI50
aI50
aI50
aI50
aI50
aI50
aI50
aI50
aI50
aI50
aI50
aI50
aI50
aI50
aI50
aI50
aI50
aI50
aI50
aI50
aI50
aI50
aI50
aI50
aI50
aI50
aI50
aI50
aI50
aI50
aI50
aI50
aI50
aI50
aI46
aI50
aI50
aI50
aI50
aI50
aI50
aI50
aI50
aI50
aI50
aI50
aI50
aI50
aI50
aI50
aI50
aI50
aI50
aI50
aI36
aI50
aI50
aI50
aI50
aI50
aI50
aI50
aI50
aI50
aI50
aI50
aI50
aI50
aI25
aI50
aI50
aI50
aI50
aI50
aI26
aI50
aI50
aI50
aI50
aI50
aI36
aI50
aI50
aI50
aI50
aI50
aI50
aI50
aI50
aI50
aI50
aI50
aI50
aI50
aI50
aI50
aI50
aI50
aI50
aI50
aI50
aI50
aI50
aI50
aI34
aI50
aI50
aI50
aI47
aI50
aI50
aI47
aI50
aI50
aI50
aI50
aI50
aI50
aI50
aI50
aI50
aI50
aI50
aI50
aI50
aI50
aI50
aI50
aI50
aI50
aI50
aI50
aI50
aI50
aI50
aI50
aI50
aI50
aI50
aI50
aI50
aI50
aI37
aI50
aI50
aI50
aI50
aI50
aI50
aI50
aI50
aI50
aI50
aI50
aI50
aI50
aI50
aI50
aI50
aI50
aI50
aI50
aI50
aI50
aI50
aI50
aI50
aI50
aI50
aI50
aI50
aI50
aI50
aI50
aI50
aI50
aI50
aI50
aI50
aI50
aI50
aI50
aI50
aI48
aI50
aI50
aI50
aI50
aI50
aI50
aI50
aI50
aI50
aI50
aI50
aI50
aI50
aI33
aI50
aI50
aI50
aI32
aI50
aI50
aI50
aI50
aI50
aI50
aI50
aI50
aI50
aI42
aI50
aI42
aI50
aI50
aI50
aI50
aI50
aI50
aI50
aI31
aI50
aI50
aI50
aI50
aI50
aI50
aI50
aI50
aI50
aI50
aI50
aI50
aI50
aI50
aI50
aI50
aI50
aI50
aI50
aI50
aI50
aI50
aI50
aI50
aI50
aI50
aI50
aI50
aI50
aI50
aI50
aI50
aI50
aI50
aI50
aI50
aI50
aI50
aI50
aI50
aI50
aI50
aI50
aI50
aI50
aI50
aI50
aI50
aI50
aI50
aI50
aI50
aI50
aI50
aI50
aI50
aI50
aI50
aI50
aI50
aI50
aI50
aI50
aI50
aI50
aI50
aI50
aI19
aI50
aI50
aI50
aI50
aI50
aI50
aI50
aI50
aI50
aI38
aI50
aI50
aI50
aI50
aI50
aI50
aI50
aI50
aI50
aI41
aI28
aI50
aI50
aI50
aI50
aI50
aI26
aI50
aI50
aI50
aI50
aI45
aI50
aI50
aI50
aI50
aI50
aI50
aI50
aI50
aI50
aI50
aI50
aI50
aI34
aI50
aI50
aI50
aI50
aI39
aI50
aI50
aI50
aI50
aI50
aI50
aI50
aI50
aI46
aI50
aI50
aI50
aI50
aI50
aI50
aI50
aI50
aI50
aI50
aI50
aI50
aI50
aI50
aI50
aI50
aI50
aI50
aI50
aI34
aI50
aI50
aI50
aI50
aI50
aI50
aI50
aI50
aI50
aI50
aI50
aI50
aI50
aI50
aI50
aI50
aI50
aI33
aI50
aI50
aI50
aI50
aI50
aI50
aI50
aI50
aI22
aI50
aI50
aI50
aI50
aI50
aI50
aI50
aI50
aI50
aI50
aI50
aI50
aI50
aI50
aI50
aI50
aI50
aI50
aI38
aI50
aI50
aI50
aI50
aI50
aI50
aI50
aI31
aI48
aI28
aI50
aI50
aI50
aI50
aI50
aI50
aI50
aI50
aI50
aI50
aI50
aI50
aI50
aI50
aI50
aI50
aI50
aI50
aI50
aI50
aI50
aI50
aI50
aI38
aI50
aI50
aI50
aI27
aI50
aI50
aI50
aI50
aI50
aI50
aI50
aI50
aI50
aI50
aI50
aI50
aI50
aI50
aI50
aI50
aI50
aI50
aI46
aI50
aI50
aI50
aI50
aI50
aI50
aI50
aI50
aI50
aI43
aI50
aI50
aI50
aI50
aI50
aI50
aI48
aI50
aI50
aI50
aI50
aI50
aI50
aI50
aI50
aI50
aI34
aI50
aI50
aI50
aI50
aI36
aI50
aI50
aI50
aI50
aI50
aI50
aI50
aI50
aI50
aI50
aI50
aI50
aI50
aI50
aI50
aI50
aI50
aI50
aI50
aI50
aI50
aI50
aI50
aI50
aI50
aI50
aI50
aI50
aI50
aI50
aI50
aI50
aI43
aI50
aI29
aI50
aI25
aI50
aI50
aI50
aI50
aI49
aI29
aI50
aI50
aI41
aI50
aI50
aI50
aI50
aI50
aI50
aI50
aI50
aI50
aI50
aI50
aI50
aI50
aI50
aI50
aI50
aI50
aI50
aI50
aI50
aI50
aI18
aI50
aI50
aI50
aI50
aI28
aI50
aI50
aI50
aI50
aI50
aI50
aI50
aI50
aI50
aI50
aI50
aI50
aI50
aI50
aI50
aI37
aI42
aI50
aI47
aI50
aI50
aI50
aI41
aI50
aI50
aI18
aI50
aI50
aI50
aI29
aI50
aI50
aI50
aI50
aI50
aI50
aI50
aI40
aI50
aI50
aI21
aI50
aI50
aI50
aI50
aI50
aI50
aI50
aI50
aI50
aI50
aI50
aI44
aI50
aI50
aI50
aI50
aI50
aI50
aI50
aI47
aI50
aI50
aI50
aI50
aI50
aI50
aI50
aI50
aI50
aI50
aI50
aI50
aI50
aI50
aI50
aI50
aI37
aI50
aI50
aI50
aI50
aI50
aI39
aI50
aI50
aI50
aI36
aI50
aI50
aI50
aI36
aI43
aI50
aI50
aI39
aI50
aI50
aI50
aI50
aI50
aI50
aI50
aI50
aI50
aI50
aI50
aI50
aI50
aI50
aI50
aI50
aI50
aI50
aI50
aI50
aI50
aI50
aI50
aI50
aI50
aI50
aI50
aI39
aI50
aI33
aI50
aI50
aI50
aI50
aI50
aI50
aI50
aI50
aI50
aI50
aI50
aI34
aI50
aI50
aI17
aI50
aI50
aI36
aI50
aI50
aI50
aI50
aI50
aI50
aI50
aI45
aI50
aI50
aI49
aI50
aI50
aI50
aI50
aI50
aI50
aI50
aI50
aI50
aI50
aI33
aI50
aI50
aI50
aI50
aI50
aI50
aI50
aI36
aI50
aI50
aI50
aI50
aI50
aI50
aI50
aI50
aI50
aI50
aI24
aI50
aI50
aI50
aI50
aI50
aI50
aI50
aI50
aI50
aI50
aI50
aI50
aI50
aI50
aI50
aI50
aI50
aI44
aI50
aI50
aI50
aI50
aI50
aI50
aI50
aI50
aI50
aI50
aI50
aI50
aI50
aI50
aI50
aI31
aI50
aI50
aI31
aI50
aI50
aI50
aI50
aI50
aI50
aI50
aI50
aI50
aI50
aI50
aI50
aI50
aI50
aI50
aI30
aI28
aI50
aI50
aI50
aI50
aI50
aI47
aI50
aI50
aI43
aI50
aI50
aI39
aI50
aI50
aI50
aI50
aI50
aI50
aI50
aI50
aI50
aI50
aI50
aI50
aI50
aI50
aI50
aI50
aI50
aI24
aI50
aI50
aI50
aI50
aI43
aI50
aI38
aI50
aI50
aI50
aI50
aI50
aI50
aI50
aI50
aI50
aI50
aI50
aI50
aI40
aI50
aI50
aI50
aI50
aI50
aI50
aI50
aI50
aI50
aI50
aI50
aI50
aI50
aI50
aI50
aI46
aI50
aI50
aI50
aI50
aI23
aI50
aI32
aI50
aI50
aI50
aI50
aI50
aI50
aI50
aI50
aI50
aI50
aI50
aI50
aI50
aI50
aI50
aI50
aI50
aI36
aI50
aI50
aI33
aI50
aI50
aI50
aI50
aI50
aI50
aI50
aI50
aI50
aI50
aI50
aI46
aI50
aI50
aI50
aI50
aI50
aI50
aI50
aI33
aI50
aI50
aI50
aI50
aI33
aI50
aI50
aI50
aI50
aI50
aI50
aI23
aI50
aI45
aI50
aI50
aI50
aI50
aI50
aI50
aI50
aI50
aI45
aI50
aI50
aI50
aI50
aI50
aI50
aI50
aI50
aI50
aI50
aI50
aI50
aI50
aI50
aI50
aI50
aI50
aI50
aI50
aI50
aI50
aI50
aI50
aI50
aI50
aI50
aI50
aI50
aI50
aI50
aI50
aI50
aI50
aI50
aI50
aI50
aI50
aI50
aI50
aI50
aI50
aI50
aI50
aI50
aI50
aI50
aI28
aI50
aI50
aI50
aI50
aI50
aI50
aI50
aI50
aI50
aI50
aI50
aI50
aI50
aI50
aI50
aI50
aI50
aI50
aI50
aI50
aI50
aI50
aI50
aI50
aI50
aI50
aI50
aI34
aI50
aI50
aI50
aI50
aI50
aI50
aI50
aI50
aI50
aI50
aI50
aI50
aI50
aI50
aI50
aI50
aI31
aI50
aI29
aI39
aI50
aI50
aI50
aI50
aI50
aI50
aI50
aI50
aI50
aI50
aI50
aI50
aI50
aI50
aI50
aI50
aI50
aI50
aI50
aI50
aI50
aI50
aI50
aI50
aI50
aI50
aI50
aI50
aI50
aI50
aI50
aI50
aI50
aI50
aI50
aI50
aI50
aI50
aI50
aI50
aI50
aI50
aI50
aI50
aI50
aI50
aI50
aI50
aI50
aI50
aI50
aI50
aI50
aI50
aI32
aI50
aI50
aI50
aI50
aI50
aI50
aI50
aI50
aI50
aI50
aI50
aI50
aI50
aI50
aI50
aI50
aI50
aI50
aI50
aI50
aI50
aI50
aI50
aI50
aI50
aI50
aI50
aI50
aI50
aI50
aI50
aI50
aI50
aI50
aI50
aI50
aI50
aI50
aI50
aI50
aI50
aI50
aI50
aI50
aI45
aI50
aI50
aI50
aI50
aI50
aI50
aI50
aI50
aI50
aI50
aI50
aI17
aI50
aI50
aI50
aI50
aI50
aI50
aI50
aI50
aI39
aI50
aI50
aI50
aI50
aI50
aI50
aI50
aI50
aI50
aI48
aI50
aI50
aI45
aI50
aI31
aI50
aI50
aI50
aI50
aI37
aI50
aI50
aI50
aI34
aI50
aI50
aI50
aI28
aI50
aI50
aI50
aI50
aI50
aI50
aI50
aI50
aI50
aI44
aI50
aI50
aI50
aI50
aI50
aI50
aI50
aI50
aI50
aI50
aI50
aI38
aI50
aI50
aI50
aI50
aI50
aI50
aI50
aI50
aI50
aI50
aI50
aI50
aI50
aI44
aI50
aI50
aI50
aI50
aI50
aI50
aI50
aI50
aI50
aI50
aI50
aI50
aI22
aI50
aI50
aI50
aI50
aI50
aI50
aI50
aI50
aI50
aI50
aI50
aI50
aI50
aI50
aI50
aI50
aI50
aI50
aI50
aI50
aI50
aI50
aI50
aI50
aI50
aI50
aI50
aI50
aI50
aI50
aI50
aI50
aI50
aI50
aI50
aI50
aI50
aI50
aI50
aI24
aI50
aI50
aI50
aI50
aI50
aI50
aI50
aI50
aI50
aI50
aI33
aI50
aI50
aI50
aI50
aI50
aI50
aI50
aI50
aI50
aI50
aI50
aI50
aI34
aI50
aI33
aI50
aI50
aI50
aI50
aI50
aI50
aI50
aI50
aI29
aI47
aI50
aI50
aI50
aI50
aI50
aI48
aI50
aI50
aI50
aI50
aI50
aI50
aI50
aI50
aI50
aI50
aI50
aI37
aI50
aI36
aI50
aI49
aI47
aI50
aI40
aI50
aI50
aI50
aI50
aI50
aI50
aI50
aI50
aI50
aI50
aI50
aI50
aI50
aI50
aI50
aI50
aI50
aI50
aI19
aI50
aI50
aI50
aI50
aI50
aI50
aI50
aI50
aI50
aI50
aI50
aI50
aI50
aI50
aI50
aI26
aI50
aI50
aI50
aI50
aI37
aI50
aI50
aI50
aI50
aI50
aI50
aI50
aI47
aI50
aI34
aI50
aI50
aI50
aI50
aI41
aI50
aI50
aI50
aI50
aI50
aI50
aI50
aI50
aI50
aI50
aI50
aI50
aI50
aI50
aI50
aI50
aI50
aI50
aI50
aI50
aI50
aI50
aI50
aI50
aI50
aI50
aI50
aI50
aI47
aI50
aI50
aI43
aI50
aI50
aI45
aI50
aI50
aI50
aI50
aI50
aI50
aI50
aI50
aI50
aI45
aI50
aI50
aI33
aI45
aI50
aI50
aI44
aI50
aI28
aI50
aI50
aI50
aI50
aI50
aI50
aI50
aI42
aI27
aI50
aI50
aI50
aI50
aI50
aI50
aI32
aI50
aI50
aI50
aI50
aI24
aI50
aI50
aI50
aI50
aI50
aI50
aI50
aI50
aI50
aI50
aI37
aI50
aI38
aI50
aI50
aI50
aI50
aI50
aI50
aI50
aI50
aI50
aI50
aI27
aI50
aI50
aI50
aI50
aI50
aI50
aI50
aI48
aI50
aI50
aI50
aI50
aI50
aI50
aI41
aI50
aI50
aI50
aI50
aI50
aI50
aI50
aI50
aI26
aI50
aI41
aI44
aI49
aI50
aI50
aI50
aI50
aI50
aI40
aI50
aI50
aI50
aI50
aI50
aI50
aI50
aI50
aI50
aI50
aI50
aI50
aI50
aI50
aI50
aI50
aI50
aI50
aI50
aI50
aI50
aI50
aI50
aI50
aI50
aI50
aI50
aI50
aI50
aI50
aI50
aI50
aI50
aI50
aI50
aI50
aI23
aI41
aI50
aI43
aI50
aI50
aI50
aI50
aI50
aI50
aI50
aI50
aI50
aI50
aI50
aI50
aI50
aI36
aI50
aI50
aI48
aI50
aI43
aI32
aI50
aI29
aI50
aI50
aI50
aI50
aI50
aI50
aI50
aI50
aI50
aI50
aI50
aI36
aI50
aI37
aI50
aI50
aI50
aI50
aI50
aI50
aI50
aI50
aI50
aI50
aI50
aI50
aI50
aI50
aI38
aI50
aI50
aI50
aI50
aI50
aI50
aI50
aI50
aI50
aI50
aI50
aI50
aI33
aI50
aI50
aI50
aI50
aI50
aI50
aI50
aI50
aI50
aI50
aI50
aI50
aI50
aI50
aI50
aI50
aI26
aI50
aI50
aI50
aI50
aI50
aI50
aI50
aI50
aI37
aI50
aI50
aI49
aI50
aI50
aI50
aI41
aI50
aI50
aI44
aI28
aI50
aI50
aI50
aI50
aI42
aI50
aI17
aI50
aI50
aI36
aI50
aI50
aI50
aI46
aI31
aI23
aI50
aI50
aI50
aI50
aI50
aI50
aI50
aI50
aI50
aI50
aI50
aI41
aI40
aI42
aI50
aI45
aI50
aI50
aI50
aI50
aI50
aI50
aI29
aI50
aI50
aI50
aI50
aI50
aI50
aI50
aI50
aI21
aI50
aI50
aI50
aI50
aI32
aI50
aI50
aI50
aI50
aI50
aI50
aI45
aI50
aI50
aI50
aI50
aI48
aI50
aI50
aI50
aI50
aI50
aI50
aI50
aI50
aI50
aI50
aI50
aI20
aI50
aI50
aI50
aI25
aI50
aI50
aI50
aI50
aI50
aI50
aI50
aI50
aI50
aI20
aI50
aI46
aI50
aI50
aI41
aI48
aI41
aI50
aI50
aI50
aI50
aI50
aI50
aI50
aI50
aI23
aI50
aI50
aI50
aI33
aI50
aI50
aI50
aI50
aI45
aI50
aI50
aI26
aI50
aI50
aI50
aI50
aI50
aI50
aI50
aI50
aI18
aI39
aI50
aI50
aI31
aI50
aI50
aI25
aI50
aI50
aI50
aI50
aI50
aI50
aI50
aI50
aI50
aI48
aI36
aI50
aI33
aI50
aI50
aI50
aI50
aI50
aI50
aI48
aI50
aI36
aI50
aI50
aI50
aI50
aI50
aI50
aI38
aI44
aI50
aI50
aI50
aI50
aI41
aI24
aI18
aI50
aI50
aI22
aI50
aI26
aI50
aI50
aI50
aI48
aI50
aI50
aI50
aI22
aI50
aI18
aI50
aI44
aI50
aI50
aI42
aI46
aI20
aI50
aI50
aI50
aI50
aI50
aI50
aI32
aI50
aI33
aI50
aI50
aI50
aI50
aI50
aI50
aI50
aI50
aI50
aI50
aI50
aI50
aI47
aI50
aI50
aI50
aI50
aI33
aI50
aI31
aI50
aI50
aI32
aI50
aI50
aI50
aI22
aI50
aI50
aI49
aI39
aI50
aI50
aI50
aI50
aI50
aI50
aI50
aI50
aI50
aI50
aI50
aI32
aI50
aI47
aI50
aI25
aI50
aI28
aI50
aI50
aI24
aI50
aI50
aI41
aI50
aI50
aI50
aI18
aI50
aI27
aI25
aI50
aI33
aI32
aI50
aI50
aI50
aI50
aI50
aI38
aI50
aI50
aI50
aI50
aI50
aI33
aI50
aI50
aI23
aI50
aI50
aI50
aI50
aI50
aI38
aI28
aI50
aI50
aI50
aI50
aI50
aI31
aI50
aI50
aI50
aI50
aI50
aI50
aI50
aI50
aI50
aI50
aI40
aI50
aI22
aI50
aI24
aI44
aI47
aI50
aI32
aI50
aI50
aI50
aI50
aI50
aI50
aI50
aI50
aI50
aI49
aI50
aI50
aI50
aI50
aI50
aI50
aI50
aI43
aI33
aI50
aI50
aI50
aI50
aI50
aI50
aI50
aI34
aI50
aI50
aI39
aI47
aI50
aI50
aI50
aI50
aI49
aI26
aI50
aI50
aI16
aI48
aI50
aI50
aI50
aI50
aI50
aI47
aI41
aI50
aI50
aI50
aI42
aI50
aI21
aI20
aI50
aI50
aI48
aI50
aI37
aI30
aI50
aI50
aI50
aI32
aI48
aI22
aI50
aI50
aI49
aI50
aI28
aI50
aI50
aI50
aI50
aI50
aI50
aI50
aI50
aI32
aI42
aI50
aI50
aI50
aI50
aI50
aI50
aI50
aI50
aI18
aI50
aI50
aI50
aI50
aI42
aI50
aI50
aI50
aI50
aI50
aI50
aI43
aI50
aI50
aI50
aI50
aI50
aI50
aI50
aI37
aI50
aI50
aI50
aI50
aI50
aI50
aI50
aI50
aI31
aI50
aI50
aI50
aI35
aI50
aI50
aI50
aI50
aI50
aI50
aI50
aI50
aI50
aI36
aI50
aI47
aI50
aI50
aI32
aI50
aI50
aI50
aI50
aI50
aI50
aI50
aI50
aI50
aI50
aI50
aI50
aI50
aI50
aI50
aI50
aI50
aI44
aI46
aI50
aI50
aI50
aI50
aI50
aI50
aI27
aI50
aI31
aI50
aI22
aI22
aI44
aI50
aI50
aI21
aI28
aI50
aI50
aI50
aI50
aI50
aI50
aI43
aI21
aI48
aI50
aI38
aI29
aI50
aI50
aI50
aI50
aI50
aI40
aI50
aI50
aI50
aI50
aI50
aI50
aI50
aI50
aI50
aI50
aI50
aI50
aI50
aI50
aI50
aI50
aI50
aI39
aI50
aI50
aI50
aI50
aI50
aI44
aI50
aI50
aI50
aI50
aI50
aI50
aI50
aI50
aI50
aI50
aI50
aI50
aI29
aI50
aI50
aI33
aI50
aI50
aI50
aI50
aI18
aI50
aI50
aI50
aI50
aI28
aI50
aI50
aI50
aI50
aI50
aI50
aI44
aI50
aI50
aI50
aI50
aI33
aI50
aI50
aI50
aI50
aI50
aI49
aI50
aI50
aI50
aI24
aI50
aI50
aI50
aI25
aI50
aI50
aI50
aI45
aI50
aI50
aI50
aI35
aI50
aI50
aI50
aI50
aI50
aI50
aI50
aI50
aI50
aI50
aI50
aI50
aI49
aI29
aI44
aI50
aI50
aI36
aI50
aI50
aI50
aI37
aI50
aI50
aI14
aI50
aI50
aI36
aI50
aI50
aI50
aI50
aI50
aI50
aI50
aI50
aI36
aI50
aI22
aI50
aI16
aI50
aI50
aI50
aI50
aI50
aI50
aI50
aI50
aI50
aI50
aI50
aI50
aI50
aI35
aI50
aI47
aI50
aI20
aI36
aI42
aI50
aI50
aI20
aI50
aI50
aI30
aI50
aI50
aI50
aI42
aI50
aI50
aI50
aI50
aI50
aI50
aI50
aI50
aI50
aI50
aI50
aI50
aI26
aI50
aI50
aI42
aI50
aI50
aI50
aI50
aI50
aI14
aI50
aI50
aI50
aI50
aI50
aI50
aI50
aI50
aI50
aI50
aI41
aI50
aI50
aI50
aI50
aI41
aI50
aI36
aI50
aI50
aI50
aI27
aI50
aI50
aI38
aI50
aI50
aI50
aI45
aI50
aI38
aI36
aI50
aI22
aI48
aI50
aI22
aI50
aI47
aI50
aI50
aI50
aI50
aI50
aI50
aI50
aI50
aI50
aI50
aI48
aI50
aI39
aI50
aI49
aI50
aI50
aI50
aI50
aI50
aI50
aI17
aI50
aI50
aI50
aI50
aI36
aI50
aI50
aI50
aI50
aI50
aI22
aI50
aI46
aI50
aI50
aI50
aI50
aI50
aI50
aI50
aI50
aI50
aI50
aI16
aI21
aI50
aI50
aI50
aI50
aI39
aI50
aI50
aI50
aI50
aI50
aI50
aI36
aI50
aI42
aI34
aI50
aI50
aI50
aI50
aI50
aI50
aI50
aI50
aI50
aI50
aI34
aI50
aI50
aI50
aI43
aI50
aI50
aI43
aI50
aI50
aI50
aI50
aI50
aI50
aI50
aI50
aI50
aI50
aI50
aI31
aI50
aI30
aI50
aI50
aI50
aI50
aI50
aI50
aI50
aI46
aI50
aI20
aI50
aI50
aI50
aI50
aI50
aI50
aI21
aI28
aI50
aI50
aI50
aI50
aI50
aI36
aI50
aI50
aI50
aI50
aI50
aI35
aI50
aI25
aI38
aI50
aI50
aI33
aI50
aI50
aI50
aI50
aI50
aI46
aI50
aI50
aI50
aI38
aI50
aI34
aI50
aI40
aI50
aI50
aI39
aI29
aI50
aI50
aI50
aI42
aI50
aI50
aI50
aI50
aI50
aI39
aI30
aI50
aI50
aI50
aI50
aI36
aI50
aI50
aI47
aI49
aI50
aI50
aI50
aI50
aI50
aI50
aI50
aI50
aI50
aI50
aI50
aI50
aI50
aI50
aI50
aI45
aI50
aI50
aI50
aI45
aI28
aI50
aI50
aI50
aI23
aI48
aI50
aI50
aI50
aI46
aI50
aI50
aI50
aI50
aI50
aI29
aI50
aI28
aI50
aI50
aI50
aI50
aI50
aI50
aI37
aI50
aI26
aI50
aI50
aI50
aI50
aI50
aI50
aI50
aI50
aI50
aI21
aI50
aI50
aI50
aI50
aI50
aI34
aI22
aI18
aI34
aI50
aI50
aI50
aI16
aI50
aI50
aI50
aI50
aI50
aI30
aI49
aI50
aI49
aI50
aI35
aI50
aI44
aI50
aI50
aI50
aI47
aI47
aI50
aI50
aI50
aI50
aI50
aI50
aI50
aI50
aI50
aI46
aI44
aI50
aI50
aI43
aI50
aI50
aI36
aI50
aI38
aI50
aI50
aI50
aI50
aI50
aI30
aI50
aI50
aI50
aI50
aI46
aI50
aI50
aI50
aI50
aI30
aI50
aI50
aI50
aI50
aI50
aI46
aI50
aI50
aI32
aI50
aI33
aI50
aI31
aI28
aI50
aI50
aI17
aI50
aI47
aI50
aI50
aI50
aI47
aI50
aI20
aI50
aI14
aI49
aI50
aI31
aI21
aI38
aI50
aI50
aI50
aI28
aI29
aI50
aI36
aI50
aI32
aI50
aI50
aI38
aI50
aI16
aI34
aI50
aI38
aI34
aI25
aI50
aI50
aI50
aI50
aI37
aI50
aI14
aI23
aI50
aI50
aI35
aI50
aI50
aI22
aI32
aI50
aI50
aI50
aI50
aI50
aI38
aI50
aI33
aI39
aI50
aI23
aI33
aI44
aI50
aI22
aI31
aI37
aI50
aI25
aI50
aI50
aI50
aI50
aI50
aI34
aI50
aI50
aI18
aI50
aI50
aI50
aI50
aI50
aI50
aI38
aI50
aI39
aI32
aI50
aI50
aI31
aI21
aI50
aI50
aI50
aI50
aI50
aI50
aI50
aI50
aI50
aI50
aI50
aI38
aI38
aI50
aI50
aI50
aI48
aI46
aI50
aI50
aI33
aI50
aI50
aI50
aI30
aI38
aI31
aI50
aI50
aI50
aI50
aI32
aI50
aI50
aI50
aI19
aI50
aI50
aI50
aI28
aI50
aI44
aI50
aI40
aI50
aI50
aI50
aI50
aI50
aI50
aI50
aI50
aI50
aI50
aI50
aI27
aI50
aI50
aI50
aI50
aI50
aI50
aI24
aI39
aI50
aI50
aI50
aI50
aI26
aI50
aI22
aI50
aI50
aI50
aI50
aI50
aI48
aI50
aI50
aI33
aI50
aI50
aI20
aI50
aI50
aI50
aI20
aI50
aI50
aI50
aI46
aI50
aI50
aI48
aI50
aI50
aI22
aI46
aI34
aI50
aI50
aI50
aI50
aI50
aI21
aI50
aI50
aI44
aI50
aI48
aI23
aI50
aI50
aI50
aI50
aI50
aI50
aI50
aI50
aI50
aI50
aI50
aI50
aI50
aI40
aI50
aI29
aI50
aI35
aI25
aI22
aI38
aI24
aI50
aI50
aI50
aI50
aI50
aI28
aI50
aI50
aI50
aI50
aI50
aI50
aI50
aI50
aI50
aI50
aI22
aI50
aI50
aI50
aI50
aI22
aI50
aI50
aI50
aI50
aI50
aI50
aI50
aI50
aI50
aI50
aI50
aI50
aI50
aI36
aI50
aI50
aI50
aI50
aI25
aI50
aI44
aI50
aI22
aI50
aI50
aI50
aI23
aI50
aI50
aI50
aI50
aI50
aI50
aI50
aI50
aI50
aI50
aI50
aI37
aI50
aI50
aI50
aI50
aI50
aI14
aI50
aI50
aI30
aI50
aI41
aI50
aI50
aI31
aI50
aI30
aI50
aI17
aI50
aI50
aI50
aI50
aI35
aI50
aI50
aI50
aI37
aI50
aI50
aI50
aI50
aI50
aI50
aI50
aI50
aI50
aI32
aI47
aI50
aI50
aI50
aI17
aI50
aI14
aI50
aI50
aI28
aI50
aI50
aI50
aI50
aI50
aI50
aI50
aI50
aI38
aI50
aI50
aI50
aI50
aI50
aI50
aI50
aI50
aI42
aI37
aI50
aI17
aI50
aI50
aI16
aI50
aI20
aI50
aI50
aI48
aI24
aI50
aI30
aI50
aI27
aI42
aI50
aI34
aI50
aI50
aI26
aI20
aI50
aI25
aI20
aI50
aI50
aI50
aI50
aI50
aI18
aI23
aI50
aI30
aI36
aI50
aI28
aI50
aI50
aI20
aI50
aI50
aI50
aI50
aI46
aI50
aI50
aI50
aI50
aI50
aI50
aI50
aI14
aI50
aI50
aI50
aI50
aI50
aI47
aI50
aI50
aI50
aI50
aI50
aI20
aI43
aI50
aI50
aI14
aI35
aI50
aI26
aI36
aI30
aI50
aI38
aI50
aI50
aI50
aI50
aI50
aI50
aI50
aI50
aI47
aI50
aI50
aI50
aI50
aI50
aI50
aI50
aI42
aI33
aI50
aI32
aI50
aI50
aI50
aI50
aI29
aI38
aI50
aI50
aI50
aI50
aI50
aI39
aI41
aI27
aI50
aI50
aI50
aI50
aI50
aI50
aI23
aI41
aI50
aI50
aI50
aI50
aI50
aI50
aI45
aI50
aI50
aI50
aI50
aI50
aI50
aI48
aI50
aI50
aI50
aI50
aI50
aI50
aI29
aI50
aI50
aI50
aI37
aI50
aI50
aI50
aI47
aI38
aI38
aI50
aI50
aI50
aI50
aI50
aI50
aI50
aI42
aI30
aI44
aI50
aI50
aI50
aI50
aI50
aI50
aI21
aI50
aI50
aI50
aI50
aI50
aI50
aI18
aI50
aI32
aI50
aI39
aI50
aI50
aI50
aI50
aI50
aI50
aI50
aI50
aI50
aI50
aI50
aI50
aI50
aI50
aI50
aI50
aI50
aI26
aI50
aI50
aI26
aI50
aI50
aI50
aI50
aI50
aI20
aI50
aI50
aI50
aI50
aI50
aI26
aI50
aI50
aI50
aI50
aI50
aI15
aI50
aI26
aI23
aI34
aI50
aI48
aI50
aI50
aI49
aI50
aI48
aI50
aI32
aI22
aI50
aI50
aI48
aI50
aI50
aI50
aI50
aI50
aI29
aI50
aI50
aI50
aI50
aI50
aI29
aI24
aI30
aI50
aI50
aI26
aI50
aI50
aI50
aI50
aI43
aI50
aI50
aI50
aI50
aI50
aI50
aI18
aI50
aI50
aI14
aI50
aI50
aI50
aI50
aI24
aI31
aI50
aI24
aI50
aI34
aI50
aI15
aI50
aI20
aI50
aI50
aI50
aI50
aI50
aI50
aI50
aI24
aI26
aI50
aI50
aI40
aI14
aI20
aI50
aI48
aI30
aI50
aI50
aI50
aI50
aI50
aI50
aI50
aI50
aI40
aI30
aI50
aI50
aI50
aI50
aI50
aI50
aI50
aI50
aI50
aI16
aI31
aI15
aI50
aI14
aI47
aI50
aI50
aI38
aI31
aI32
aI50
aI15
aI15
aI14
a.