(lp0
I46
aI50
aI15
aI31
aI29
aI30
aI35
aI50
aI50
aI30
aI50
aI34
aI50
aI50
aI21
aI19
aI36
aI30
aI32
aI40
aI43
aI21
aI21
aI19
aI32
aI32
aI50
aI25
aI31
aI19
aI18
aI34
aI35
aI50
aI36
aI50
aI40
aI40
aI28
aI40
aI27
aI16
aI50
aI50
aI23
aI32
aI50
aI50
aI50
aI50
aI50
aI50
aI50
aI50
aI20
aI50
aI50
aI21
aI50
aI50
aI29
aI45
aI50
aI50
aI49
aI50
aI50
aI50
aI50
aI42
aI25
aI50
aI23
aI17
aI31
aI50
aI42
aI48
aI37
aI50
aI50
aI50
aI50
aI50
aI41
aI50
aI19
aI50
aI50
aI50
aI50
aI50
aI49
aI18
aI50
aI21
aI50
aI36
aI40
aI50
aI27
aI50
aI15
aI25
aI21
aI50
aI29
aI16
aI50
aI50
aI50
aI50
aI50
aI50
aI50
aI50
aI44
aI50
aI50
aI46
aI50
aI50
aI19
aI29
aI50
aI48
aI28
aI37
aI50
aI50
aI35
aI26
aI33
aI50
aI43
aI50
aI50
aI50
aI50
aI50
aI20
aI50
aI44
aI44
aI50
aI50
aI28
aI20
aI44
aI22
aI50
aI50
aI50
aI50
aI35
aI50
aI50
aI26
aI50
aI50
aI16
aI50
aI50
aI43
aI18
aI50
aI32
aI32
aI50
aI50
aI50
aI50
aI50
aI50
aI50
aI50
aI50
aI48
aI50
aI21
aI50
aI50
aI50
aI50
aI50
aI50
aI42
aI50
aI50
aI50
aI50
aI50
aI50
aI39
aI50
aI50
aI50
aI50
aI50
aI50
aI31
aI48
aI50
aI50
aI50
aI50
aI50
aI50
aI50
aI50
aI50
aI40
aI50
aI50
aI50
aI37
aI16
aI18
aI22
aI28
aI50
aI30
aI50
aI22
aI50
aI50
aI50
aI50
aI38
aI50
aI50
aI26
aI50
aI50
aI50
aI50
aI50
aI50
aI50
aI50
aI50
aI46
aI50
aI50
aI36
aI50
aI50
aI50
aI50
aI50
aI42
aI50
aI50
aI50
aI50
aI50
aI50
aI50
aI27
aI37
aI50
aI50
aI50
aI50
aI50
aI50
aI16
aI50
aI50
aI50
aI50
aI50
aI50
aI41
aI50
aI50
aI47
aI50
aI50
aI21
aI50
aI32
aI23
aI50
aI32
aI50
aI50
aI50
aI50
aI50
aI30
aI50
aI17
aI16
aI31
aI50
aI50
aI50
aI50
aI50
aI50
aI50
aI50
aI50
aI50
aI50
aI50
aI50
aI50
aI50
aI42
aI50
aI50
aI50
aI50
aI50
aI50
aI50
aI50
aI50
aI50
aI50
aI50
aI44
aI15
aI14
aI50
aI50
aI50
aI50
aI45
aI50
aI50
aI50
aI50
aI50
aI50
aI50
aI26
aI50
aI50
aI17
aI50
aI22
aI50
aI50
aI50
aI50
aI50
aI50
aI50
aI50
aI50
aI28
aI50
aI50
aI50
aI50
aI50
aI50
aI50
aI50
aI50
aI50
aI50
aI50
aI50
aI40
aI50
aI50
aI50
aI50
aI50
aI50
aI50
aI50
aI50
aI50
aI50
aI50
aI50
aI50
aI17
aI50
aI45
aI50
aI50
aI44
aI35
aI50
aI50
aI50
aI50
aI50
aI50
aI50
aI50
aI50
aI19
aI50
aI50
aI22
aI50
aI50
aI50
aI50
aI50
aI50
aI50
aI50
aI50
aI50
aI50
aI50
aI50
aI50
aI50
aI20
aI50
aI50
aI50
aI50
aI50
aI50
aI18
aI49
aI50
aI50
aI50
aI15
aI16
aI50
aI50
aI50
aI50
aI50
aI35
aI50
aI50
aI50
aI50
aI50
aI50
aI17
aI50
aI50
aI17
aI50
aI50
aI50
aI14
aI50
aI50
aI50
aI50
aI50
aI50
aI50
aI50
aI50
aI50
aI50
aI48
aI50
aI50
aI50
aI20
aI15
aI50
aI50
aI50
aI50
aI50
aI39
aI50
aI50
aI50
aI50
aI18
aI50
aI50
aI50
aI50
aI50
aI50
aI50
aI50
aI50
aI50
aI50
aI50
aI50
aI50
aI50
aI50
aI50
aI50
aI50
aI50
aI50
aI50
aI50
aI44
aI50
aI50
aI50
aI48
aI50
aI50
aI50
aI50
aI50
aI50
aI50
aI50
aI50
aI50
aI50
aI50
aI34
aI39
aI50
aI50
aI50
aI50
aI50
aI50
aI50
aI50
aI50
aI42
aI50
aI50
aI50
aI50
aI29
aI50
aI50
aI50
aI49
aI50
aI29
aI50
aI50
aI50
aI50
aI50
aI50
aI28
aI50
aI50
aI50
aI50
aI40
aI47
aI23
aI50
aI50
aI50
aI50
aI50
aI50
aI38
aI44
aI50
aI50
aI50
aI36
aI40
aI50
aI50
aI50
aI48
aI50
aI50
aI50
aI35
aI27
aI50
aI27
aI50
aI16
aI21
aI50
aI50
aI50
aI50
aI50
aI50
aI14
aI50
aI50
aI50
aI50
aI50
aI41
aI17
aI50
aI50
aI50
aI50
aI50
aI50
aI50
aI50
aI50
aI34
aI50
aI50
aI50
aI50
aI50
aI50
aI50
aI50
aI50
aI50
aI34
aI50
aI50
aI17
aI50
aI50
aI42
aI50
aI50
aI50
aI50
aI50
aI50
aI39
aI50
aI50
aI50
aI50
aI50
aI50
aI50
aI50
aI50
aI50
aI45
aI50
aI50
aI50
aI50
aI50
aI50
aI50
aI50
aI35
aI50
aI50
aI50
aI50
aI39
aI38
aI50
aI50
aI50
aI50
aI50
aI24
aI50
aI50
aI50
aI50
aI50
aI50
aI50
aI50
aI50
aI50
aI50
aI50
aI49
aI50
aI18
aI30
aI50
aI47
aI50
aI50
aI50
aI50
aI50
aI50
aI50
aI50
aI50
aI50
aI46
aI38
aI34
aI50
aI50
aI50
aI50
aI50
aI50
aI50
aI34
aI50
aI23
aI46
aI50
aI50
aI50
aI50
aI50
aI50
aI50
aI50
aI50
aI15
aI50
aI50
aI42
aI50
aI49
aI39
aI50
aI50
aI50
aI50
aI50
aI50
aI50
aI50
aI50
aI50
aI43
aI50
aI50
aI50
aI50
aI50
aI50
aI25
aI50
aI50
aI50
aI50
aI50
aI50
aI50
aI50
aI47
aI50
aI50
aI50
aI50
aI50
aI50
aI50
aI50
aI50
aI50
aI50
aI50
aI23
aI50
aI26
aI50
aI50
aI50
aI50
aI50
aI50
aI50
aI50
aI50
aI50
aI50
aI50
aI50
aI50
aI50
aI50
aI50
aI50
aI50
aI50
aI50
aI50
aI36
aI50
aI50
aI17
aI34
aI25
aI50
aI47
aI50
aI50
aI50
aI50
aI50
aI50
aI37
aI50
aI50
aI50
aI23
aI50
aI50
aI50
aI50
aI50
aI50
aI50
aI49
aI50
aI50
aI50
aI26
aI50
aI50
aI50
aI50
aI50
aI50
aI50
aI50
aI50
aI50
aI50
aI50
aI50
aI14
aI50
aI50
aI50
aI50
aI50
aI35
aI50
aI50
aI50
aI50
aI50
aI50
aI16
aI14
aI22
aI50
aI50
aI50
aI50
aI50
aI50
aI50
aI50
aI50
aI44
aI50
aI50
aI50
aI47
aI50
aI50
aI49
aI50
aI17
aI50
aI50
aI50
aI45
aI50
aI50
aI50
aI50
aI42
aI50
aI50
aI50
aI50
aI50
aI50
aI50
aI50
aI50
aI50
aI26
aI47
aI50
aI50
aI50
aI50
aI50
aI50
aI50
aI50
aI50
aI50
aI50
aI50
aI50
aI50
aI30
aI50
aI50
aI50
aI50
aI50
aI50
aI50
aI50
aI50
aI50
aI50
aI50
aI50
aI50
aI50
aI50
aI48
aI50
aI50
aI50
aI50
aI50
aI50
aI50
aI50
aI47
aI46
aI50
aI50
aI50
aI50
aI50
aI50
aI50
aI50
aI50
aI50
aI50
aI50
aI50
aI50
aI24
aI50
aI40
aI50
aI50
aI50
aI50
aI50
aI50
aI50
aI50
aI40
aI50
aI50
aI34
aI50
aI50
aI33
aI50
aI46
aI50
aI50
aI50
aI27
aI50
aI50
aI50
aI50
aI50
aI50
aI50
aI50
aI50
aI50
aI50
aI50
aI47
aI50
aI18
aI32
aI50
aI46
aI50
aI50
aI50
aI50
aI50
aI50
aI50
aI50
aI50
aI50
aI50
aI50
aI50
aI50
aI50
aI50
aI50
aI50
aI50
aI50
aI50
aI50
aI50
aI50
aI50
aI50
aI50
aI50
aI23
aI50
aI50
aI50
aI50
aI50
aI19
aI50
aI50
aI48
aI50
aI50
aI35
aI50
aI50
aI50
aI50
aI36
aI50
aI17
aI19
aI50
aI27
aI50
aI50
aI50
aI50
aI50
aI50
aI50
aI50
aI50
aI50
aI46
aI50
aI50
aI50
aI21
aI50
aI50
aI50
aI38
aI50
aI50
aI45
aI50
aI50
aI34
aI50
aI50
aI50
aI50
aI50
aI50
aI50
aI50
aI50
aI50
aI50
aI50
aI50
aI50
aI47
aI50
aI50
aI50
aI50
aI50
aI50
aI50
aI50
aI50
aI50
aI44
aI50
aI50
aI50
aI50
aI50
aI50
aI50
aI44
aI50
aI50
aI50
aI50
aI50
aI50
aI50
aI50
aI50
aI50
aI50
aI50
aI50
aI50
aI50
aI50
aI50
aI50
aI18
aI50
aI50
aI50
aI21
aI50
aI26
aI50
aI50
aI50
aI50
aI50
aI50
aI50
aI50
aI44
aI50
aI38
aI50
aI28
aI14
aI21
aI50
aI50
aI50
aI50
aI50
aI50
aI50
aI50
aI50
aI50
aI50
aI50
aI50
aI19
aI18
aI50
aI50
aI50
aI50
aI18
aI50
aI17
aI50
aI50
aI18
aI14
aI50
aI50
aI50
aI50
aI50
aI50
aI50
aI50
aI50
aI50
aI50
aI50
aI50
aI50
aI31
aI50
aI50
aI17
aI44
aI50
aI50
aI50
aI50
aI50
aI50
aI50
aI50
aI50
aI50
aI50
aI50
aI50
aI32
aI50
aI50
aI50
aI50
aI50
aI49
aI50
aI50
aI50
aI50
aI50
aI50
aI50
aI50
aI39
aI50
aI50
aI50
aI50
aI50
aI50
aI50
aI50
aI50
aI50
aI18
aI50
aI50
aI45
aI50
aI18
aI18
aI50
aI50
aI50
aI50
aI50
aI50
aI50
aI50
aI50
aI50
aI50
aI50
aI50
aI50
aI50
aI50
aI50
aI50
aI50
aI50
aI50
aI50
aI50
aI50
aI50
aI16
aI50
aI50
aI50
aI50
aI50
aI50
aI50
aI50
aI50
aI33
aI50
aI50
aI50
aI50
aI45
aI50
aI50
aI30
aI50
aI50
aI50
aI50
aI50
aI50
aI50
aI50
aI50
aI50
aI20
aI50
aI19
aI50
aI19
aI18
aI50
aI50
aI18
aI50
aI28
aI26
aI50
aI50
aI40
aI50
aI50
aI50
aI50
aI50
aI43
aI50
aI50
aI39
aI33
aI50
aI50
aI50
aI50
aI44
aI50
aI50
aI50
aI50
aI50
aI50
aI50
aI50
aI50
aI50
aI50
aI50
aI50
aI50
aI50
aI50
aI50
aI50
aI50
aI50
aI43
aI48
aI19
aI50
aI50
aI50
aI50
aI36
aI37
aI50
aI50
aI50
aI50
aI50
aI50
aI50
aI50
aI50
aI50
aI50
aI42
aI20
aI50
aI50
aI32
aI26
aI31
aI50
aI50
aI50
aI50
aI38
aI50
aI50
aI50
aI50
aI50
aI50
aI50
aI50
aI50
aI50
aI50
aI50
aI50
aI50
aI50
aI19
aI50
aI41
aI50
aI29
aI50
aI50
aI50
aI50
aI50
aI37
aI50
aI50
aI50
aI50
aI50
aI31
aI50
aI50
aI50
aI50
aI50
aI50
aI50
aI50
aI50
aI50
aI50
aI50
aI50
aI50
aI47
aI50
aI50
aI50
aI50
aI50
aI44
aI50
aI50
aI50
aI50
aI37
aI23
aI50
aI50
aI50
aI50
aI50
aI50
aI50
aI50
aI50
aI50
aI50
aI50
aI50
aI50
aI30
aI50
aI50
aI50
aI14
aI50
aI50
aI50
aI50
aI50
aI19
aI50
aI50
aI50
aI50
aI50
aI50
aI50
aI50
aI50
aI50
aI47
aI50
aI50
aI50
aI50
aI50
aI50
aI50
aI50
aI50
aI50
aI50
aI50
aI50
aI29
aI20
aI50
aI50
aI50
aI50
aI50
aI42
aI50
aI50
aI50
aI50
aI50
aI50
aI50
aI50
aI50
aI50
aI50
aI46
aI50
aI50
aI50
aI50
aI50
aI50
aI50
aI50
aI33
aI50
aI21
aI50
aI50
aI50
aI48
aI50
aI50
aI50
aI50
aI50
aI50
aI50
aI50
aI50
aI50
aI33
aI18
aI50
aI45
aI50
aI21
aI36
aI38
aI50
aI50
aI50
aI50
aI50
aI50
aI50
aI37
aI50
aI50
aI50
aI42
aI48
aI32
aI50
aI50
aI33
aI50
aI38
aI50
aI50
aI50
aI20
aI21
aI50
aI44
aI50
aI50
aI50
aI25
aI50
aI16
aI50
aI16
aI36
aI50
aI50
aI15
aI43
aI50
aI50
aI15
aI50
aI23
aI50
aI50
aI50
aI50
aI50
aI26
aI50
aI50
aI50
aI50
aI50
aI50
aI16
aI50
aI32
aI33
aI50
aI50
aI50
aI50
aI50
aI50
aI36
aI50
aI50
aI26
aI50
aI50
aI50
aI50
aI39
aI42
aI28
aI50
aI50
aI50
aI50
aI50
aI50
aI50
aI50
aI50
aI50
aI19
aI30
aI50
aI41
aI50
aI50
aI50
aI41
aI50
aI50
aI50
aI50
aI50
aI50
aI50
aI50
aI50
aI15
aI50
aI21
aI50
aI50
aI50
aI50
aI50
aI50
aI50
aI50
aI50
aI50
aI50
aI24
aI50
aI43
aI50
aI50
aI50
aI50
aI50
aI50
aI50
aI38
aI35
aI50
aI50
aI37
aI50
aI50
aI50
aI50
aI50
aI50
aI50
aI50
aI24
aI27
aI20
aI50
aI27
aI46
aI50
aI20
aI23
aI42
aI34
aI29
aI50
aI18
aI30
aI18
aI50
aI27
aI50
aI42
aI34
aI50
aI20
aI50
aI33
aI50
aI49
aI50
aI28
aI22
aI50
aI50
aI50
aI28
aI32
aI50
aI50
aI50
aI50
aI50
aI50
aI50
aI50
aI50
aI50
aI25
aI50
aI50
aI50
aI50
aI50
aI50
aI50
aI50
aI20
aI32
aI46
aI19
aI28
aI50
aI50
aI50
aI50
aI50
aI36
aI50
aI45
aI50
aI18
aI18
aI14
aI50
aI50
aI46
aI16
aI50
aI50
aI34
aI31
aI14
aI50
aI50
aI44
aI50
aI50
aI40
aI50
aI25
aI25
aI49
aI26
aI50
aI50
aI32
aI16
aI50
aI50
aI15
aI50
aI48
aI50
aI50
aI46
aI21
aI50
aI50
aI50
aI50
aI50
aI50
aI50
aI35
aI50
aI50
aI50
aI50
aI21
aI30
aI50
aI50
aI50
aI48
aI18
aI34
aI50
aI50
aI50
aI50
aI50
aI50
aI50
aI50
aI50
aI50
aI50
aI50
aI17
aI22
aI50
aI22
aI14
aI50
aI50
aI30
aI22
aI30
aI20
aI49
aI50
aI19
aI50
aI50
aI31
aI31
aI24
aI40
aI50
aI44
aI50
aI50
aI18
aI44
aI50
aI50
aI45
aI50
aI50
aI50
aI50
aI50
aI50
aI50
aI50
aI50
aI50
aI50
aI50
aI14
aI50
aI50
aI50
aI50
aI50
aI50
aI50
aI50
aI50
aI50
aI18
aI50
aI50
aI50
aI50
aI50
aI50
aI50
aI50
aI50
aI28
aI50
aI50
aI50
aI50
aI15
aI50
aI50
aI42
aI50
aI50
aI50
aI50
aI50
aI50
aI50
aI50
aI50
aI50
aI50
aI22
aI50
aI50
aI50
aI23
aI50
aI28
aI50
aI15
aI30
aI50
aI46
aI50
aI50
aI15
aI50
aI50
aI27
aI50
aI50
aI50
aI50
aI50
aI50
aI50
aI50
aI50
aI16
aI14
aI50
aI50
aI15
aI50
aI50
aI16
aI50
aI50
aI50
aI50
aI50
aI50
aI50
aI50
aI50
aI50
aI50
aI50
aI50
aI50
aI50
aI50
aI42
aI50
aI50
aI50
aI50
aI50
aI29
aI33
aI43
aI50
aI50
aI50
aI50
aI19
aI17
aI50
aI50
aI50
aI49
aI50
aI36
aI50
aI50
aI50
aI50
aI50
aI14
aI50
aI50
aI50
aI50
aI50
aI33
aI50
aI50
aI50
aI50
aI50
aI50
aI18
aI50
aI18
aI26
aI50
aI50
aI50
aI50
aI50
aI50
aI50
aI50
aI50
aI50
aI50
aI50
aI50
aI50
aI50
aI50
aI26
aI50
aI22
aI50
aI50
aI50
aI50
aI50
aI50
aI50
aI50
aI50
aI50
aI50
aI50
aI50
aI50
aI50
aI30
aI50
aI50
aI22
aI50
aI50
aI49
aI33
aI16
aI50
aI50
aI50
aI50
aI50
aI50
aI50
aI50
aI35
aI50
aI38
aI50
aI50
aI24
aI26
aI50
aI50
aI50
aI50
aI50
aI50
aI50
aI50
aI32
aI50
aI44
aI50
aI50
aI50
aI50
aI50
aI50
aI50
aI24
aI50
aI50
aI50
aI50
aI50
aI28
aI38
aI50
aI50
aI50
aI50
aI50
aI50
aI50
aI50
aI50
aI50
aI50
aI36
aI14
aI50
aI50
aI50
aI23
aI50
aI37
aI42
aI14
aI16
aI19
aI50
aI19
aI50
aI39
aI46
aI15
aI50
aI17
aI50
aI50
aI17
aI39
aI16
aI36
aI50
aI50
aI46
aI50
aI50
aI50
aI50
aI50
aI50
aI50
aI50
aI50
aI50
aI50
aI50
aI26
aI41
aI28
aI35
aI50
aI50
aI50
aI34
aI50
aI36
aI50
aI44
aI50
aI50
aI29
aI19
aI50
aI50
aI48
aI50
aI50
aI50
aI50
aI50
aI50
aI50
aI50
aI50
aI50
aI50
aI50
aI50
aI50
aI50
aI50
aI50
aI50
aI49
aI24
aI50
aI20
aI50
aI50
aI20
aI31
aI25
aI50
aI50
aI46
aI41
aI50
aI26
aI50
aI21
aI44
aI44
aI50
aI38
aI15
aI50
aI50
aI50
aI50
aI50
aI20
aI50
aI50
aI50
aI50
aI50
aI50
aI50
aI42
aI50
aI25
aI50
aI50
aI23
aI50
aI50
aI50
aI50
aI15
aI50
aI16
aI50
aI50
aI50
aI50
aI50
aI50
aI50
aI50
aI50
aI50
aI50
aI20
aI50
aI40
aI50
aI26
aI16
aI48
aI20
aI30
aI25
aI50
aI50
aI47
aI50
aI26
aI27
aI50
aI31
aI49
aI39
aI38
aI22
aI27
aI50
aI30
aI50
aI50
aI22
aI50
aI50
aI50
aI19
aI50
aI50
aI50
aI50
aI50
aI50
aI50
aI50
aI34
aI50
aI33
aI50
aI21
aI50
aI26
aI50
aI50
aI50
aI50
aI50
aI42
aI21
aI50
aI48
aI50
aI50
aI50
aI50
aI50
aI50
aI50
aI34
aI50
aI50
aI50
aI50
aI40
aI50
aI48
aI20
aI50
aI50
aI50
aI43
aI28
aI20
aI50
aI50
aI38
aI43
aI50
aI50
aI50
aI18
aI18
aI14
aI25
aI33
aI34
aI21
aI15
aI50
aI39
aI30
aI42
aI50
aI50
aI50
aI33
aI50
aI50
aI50
aI50
aI38
aI50
aI50
aI50
aI50
aI50
aI50
aI50
aI50
aI50
aI50
aI50
aI50
aI50
aI50
aI50
aI50
aI26
aI50
aI50
aI17
aI50
aI15
aI50
aI50
aI18
aI44
aI50
aI50
aI50
aI50
aI50
aI50
aI50
aI50
aI50
aI16
aI32
aI50
aI50
aI50
aI37
aI20
aI50
aI48
aI50
aI50
aI35
aI50
aI50
aI50
aI50
aI50
aI50
aI50
aI47
aI50
aI29
aI38
aI15
aI15
aI27
aI50
aI19
aI20
aI50
aI50
aI50
aI50
aI50
aI47
aI50
aI40
aI50
aI28
aI50
aI50
aI47
aI50
aI50
aI50
aI50
aI43
aI50
aI50
aI50
aI50
aI50
aI50
aI50
aI50
aI50
aI50
aI39
aI50
aI50
aI49
aI17
aI17
aI50
aI29
aI50
aI50
aI50
aI50
aI50
aI50
aI50
aI50
aI50
aI50
aI50
aI42
aI50
aI50
aI14
aI50
aI50
aI42
aI50
aI25
aI50
aI19
aI50
aI50
aI50
aI50
aI34
aI50
aI50
aI50
aI50
aI50
aI50
aI50
aI50
aI50
aI47
aI50
aI48
aI29
aI50
aI35
aI50
aI50
aI50
aI50
aI25
aI16
aI36
aI29
aI50
aI43
aI50
aI50
aI50
aI50
aI50
aI50
aI50
aI50
aI50
aI42
aI50
aI50
aI50
aI50
aI50
aI30
aI50
aI37
aI50
aI50
aI50
aI50
aI50
aI50
aI50
aI50
aI50
aI50
aI50
aI17
aI18
aI39
aI42
aI50
aI50
aI42
aI22
aI50
aI15
aI50
aI50
aI35
aI45
aI50
aI50
aI50
aI50
aI50
aI50
aI50
aI17
aI25
aI43
aI27
aI50
aI50
aI50
aI50
aI50
aI50
aI50
aI50
aI50
aI32
aI50
aI21
aI50
aI50
aI30
aI50
aI50
aI50
aI50
aI49
aI15
aI50
aI50
aI26
aI41
aI50
aI50
aI50
aI50
aI40
aI50
aI23
aI18
aI31
aI14
aI50
aI16
aI24
aI24
aI18
aI50
aI50
aI50
aI50
aI22
aI39
aI50
aI37
aI50
aI50
aI50
aI50
aI46
aI50
aI21
aI50
aI14
aI50
aI21
aI50
aI19
aI50
aI46
aI27
aI15
aI20
aI50
aI50
aI21
aI50
aI50
aI19
aI50
aI50
aI32
aI50
aI48
aI33
aI50
aI50
aI21
aI50
aI50
aI46
aI50
aI50
aI50
aI50
aI50
aI50
aI50
aI50
aI50
aI50
aI50
aI50
aI50
aI50
aI50
aI38
aI50
aI50
aI50
aI50
aI50
aI39
aI40
aI50
aI27
aI31
aI50
aI50
aI50
aI50
aI50
aI50
aI41
aI50
aI50
aI18
aI50
aI50
aI50
aI28
aI50
aI50
aI50
aI27
aI24
aI39
aI50
aI15
aI50
aI50
aI50
aI50
aI50
aI50
aI50
aI50
aI50
aI33
aI21
aI37
aI50
aI50
aI50
aI50
aI50
aI20
aI21
aI50
aI50
aI50
aI45
aI50
aI50
aI50
aI50
aI50
aI16
aI22
aI50
aI50
aI50
aI14
aI50
aI50
aI43
aI50
aI50
aI50
aI50
aI50
aI50
aI50
aI50
aI50
aI50
aI22
aI50
aI50
aI50
aI34
aI50
aI50
aI50
aI50
aI50
aI50
aI48
aI17
aI50
aI50
aI33
aI18
aI20
aI50
aI35
aI50
aI43
aI33
aI49
aI50
aI30
aI16
aI50
aI50
aI19
aI21
aI42
aI50
aI50
aI50
aI50
aI37
aI50
aI50
aI50
aI50
aI50
aI50
aI50
aI16
aI36
aI29
aI50
aI50
aI50
aI50
aI50
aI50
aI50
aI50
aI50
aI50
aI50
aI50
aI50
aI50
aI50
aI43
aI50
aI50
aI50
aI38
aI45
aI50
aI50
aI45
aI50
aI50
aI25
aI26
aI34
aI50
aI45
aI50
aI30
aI42
aI31
aI33
aI50
aI50
aI50
aI50
aI50
aI50
aI50
aI50
aI50
aI50
aI50
aI50
aI50
aI50
aI50
aI50
aI50
aI50
aI50
aI50
aI50
aI14
aI50
aI19
aI33
aI50
aI23
aI20
aI44
aI28
aI14
aI50
aI50
aI49
aI50
aI50
aI42
aI50
aI50
aI50
aI18
aI50
aI24
aI50
aI50
aI50
aI50
aI22
aI50
aI50
aI50
aI50
aI50
aI35
aI50
aI50
aI50
aI50
aI50
aI50
aI50
aI50
aI50
aI50
aI50
aI50
aI50
aI45
aI50
aI25
aI33
aI50
aI50
aI43
aI50
aI17
aI30
aI50
aI50
aI50
aI49
aI50
aI50
aI50
aI50
aI50
aI50
aI50
aI50
aI50
aI50
aI50
aI50
aI44
aI50
aI27
aI50
aI50
aI50
aI15
aI19
aI14
aI18
aI23
aI24
aI50
aI50
aI30
aI50
aI50
aI50
aI41
aI16
aI23
aI32
aI50
aI50
aI50
aI50
aI50
aI50
aI50
aI40
aI46
aI25
aI21
aI50
aI50
aI24
aI50
aI50
aI17
aI17
aI50
aI49
aI16
aI14
aI50
aI49
aI26
aI50
aI50
aI50
aI50
aI50
aI50
aI50
aI50
aI50
aI50
aI50
aI50
aI50
aI50
aI50
aI50
aI50
aI50
aI22
aI50
aI50
aI50
aI50
aI50
aI50
aI50
aI50
aI50
aI50
aI50
aI50
aI50
aI50
aI47
aI15
aI50
aI50
aI50
aI50
aI50
aI50
aI50
aI50
aI50
aI50
aI50
aI50
aI50
aI50
aI50
aI50
aI50
aI50
aI50
aI46
aI45
aI18
aI17
aI19
aI42
aI19
aI50
aI20
aI50
aI50
aI50
aI22
aI50
aI50
aI38
aI50
aI46
aI50
aI20
aI50
aI43
aI34
aI38
aI50
aI27
aI50
aI26
aI29
aI27
aI49
aI50
aI31
aI50
aI50
aI50
aI50
aI38
aI19
aI23
aI29
aI45
aI23
aI15
aI50
aI50
aI14
aI50
aI21
aI36
aI50
aI50
aI50
aI50
aI50
aI50
aI50
aI50
aI50
aI50
aI50
aI50
aI50
aI50
aI50
aI50
aI50
aI42
aI50
aI50
aI50
aI50
aI50
aI50
aI50
aI50
aI50
aI50
aI50
aI36
aI27
aI50
aI17
aI50
aI50
aI40
aI32
aI50
aI50
aI16
aI50
aI18
aI29
aI21
aI50
aI21
aI17
aI33
aI45
aI30
aI50
aI21
aI19
aI50
aI43
aI35
aI50
aI23
aI50
aI50
aI50
aI50
aI50
aI50
aI50
aI50
aI50
aI44
aI50
aI50
aI50
aI28
aI36
aI43
aI36
aI50
aI34
aI41
aI50
aI40
aI50
aI24
aI50
aI14
aI50
aI50
aI45
aI50
aI27
aI31
aI48
aI50
aI50
aI50
aI50
aI50
aI50
aI50
aI50
aI50
aI50
aI50
aI24
aI50
aI35
aI15
aI50
aI50
aI50
aI50
aI50
aI50
aI50
aI19
aI16
aI48
aI50
aI21
aI50
aI50
aI50
aI22
aI50
aI20
aI50
aI25
aI28
aI50
aI50
aI28
aI28
aI18
aI50
aI50
aI23
aI50
aI50
aI34
aI50
aI50
aI50
aI50
aI19
aI18
aI50
aI30
aI15
aI18
aI18
aI19
aI22
aI37
aI50
aI45
aI50
aI50
aI50
aI50
aI50
aI50
aI50
aI50
aI50
aI50
aI50
aI50
aI50
aI45
aI50
aI38
aI25
aI50
aI50
aI48
aI14
aI16
aI17
aI17
aI50
aI50
aI36
aI50
aI50
aI50
aI50
aI50
aI50
aI50
aI50
aI44
aI50
aI50
aI50
aI50
aI50
aI50
aI20
aI50
aI50
aI50
aI50
aI36
aI50
aI37
aI23
aI25
aI50
aI50
aI50
aI50
aI49
aI50
aI43
aI50
aI50
aI25
aI50
aI50
aI50
aI16
aI19
aI50
aI50
aI50
aI50
aI50
aI50
aI50
aI50
aI50
aI50
aI50
aI50
aI50
aI50
aI50
aI50
aI50
aI34
aI50
aI50
aI38
aI50
aI50
aI50
aI50
aI28
aI47
aI16
aI23
aI48
aI45
aI50
aI50
aI21
aI50
aI50
aI50
aI50
aI50
aI50
aI50
aI50
aI50
aI50
aI50
aI50
aI50
aI46
aI50
aI50
aI50
aI46
aI15
aI50
aI21
aI21
aI50
aI50
aI50
aI50
aI30
aI50
aI50
aI50
aI50
aI50
aI50
aI50
aI50
aI23
aI14
aI26
aI50
aI50
aI50
aI50
aI14
aI28
aI50
aI50
aI27
aI47
aI36
aI29
aI50
aI50
aI50
aI50
aI50
aI34
aI41
aI37
aI50
aI40
aI50
aI31
aI50
aI40
aI27
aI50
aI50
aI50
aI25
aI50
aI31
aI50
aI50
aI50
aI15
aI19
aI15
aI24
aI50
aI38
aI50
aI26
aI23
aI19
aI50
aI50
aI50
aI50
aI21
aI50
aI50
aI50
aI50
aI50
aI50
aI50
aI50
aI50
aI50
aI50
aI47
aI50
aI42
aI39
aI50
aI47
aI26
aI50
aI40
aI50
aI25
aI14
aI50
aI31
aI20
aI50
aI16
aI18
aI16
aI40
aI50
aI50
aI50
aI50
aI19
aI24
aI50
aI50
aI50
aI39
aI50
aI33
aI22
aI24
aI50
aI50
aI50
aI50
aI47
aI50
aI50
aI50
aI50
aI32
aI35
aI50
aI50
aI50
aI21
aI14
aI50
aI50
aI47
aI32
aI28
aI50
aI36
aI50
aI24
aI16
aI50
aI50
aI21
aI49
aI24
aI25
aI25
aI50
aI15
aI50
aI50
aI50
aI50
aI50
aI32
aI29
aI27
aI22
aI50
aI50
aI50
aI50
aI50
aI50
aI50
aI20
aI50
aI50
aI50
aI41
aI46
aI50
aI49
aI50
aI50
aI37
aI46
aI50
aI50
aI50
aI15
aI50
aI50
aI14
aI17
aI19
aI21
aI22
aI50
aI50
aI50
aI50
aI50
aI50
aI29
aI50
aI50
aI50
aI33
aI38
aI50
aI50
aI50
aI50
aI50
aI50
aI50
aI50
aI50
aI50
aI42
aI50
aI49
aI50
aI50
aI15
aI20
aI50
aI50
aI28
aI50
aI44
aI15
aI50
aI50
aI45
aI26
aI50
aI50
aI28
aI50
aI16
aI50
aI40
aI50
aI46
aI47
aI34
aI26
aI50
aI50
aI20
aI50
aI50
aI17
aI36
aI41
aI38
aI28
aI39
aI42
aI25
aI40
aI50
aI32
aI21
aI30
aI43
aI48
aI45
aI24
aI22
aI50
aI15
aI32
aI19
aI48
aI29
aI34
aI15
aI19
aI14
aI50
aI28
aI50
aI50
aI27
aI23
aI50
aI41
aI50
aI50
aI50
aI50
aI50
aI50
aI50
aI50
aI50
aI50
aI50
aI50
aI50
aI50
aI50
aI50
aI50
aI50
aI50
aI50
aI50
aI48
aI50
aI50
aI34
aI35
aI44
aI47
aI20
aI50
aI27
aI25
aI22
aI19
aI28
aI26
aI37
aI50
aI50
aI50
aI24
aI37
aI50
aI44
aI50
aI50
aI40
aI50
aI48
aI28
aI19
aI50
aI50
aI50
aI50
aI29
aI43
aI50
aI41
aI50
aI25
aI50
aI50
aI25
aI49
aI50
aI50
aI50
aI50
aI23
aI50
aI50
aI50
aI50
aI50
aI50
aI50
aI50
aI50
aI50
aI50
aI50
aI50
aI50
aI50
aI50
aI25
aI14
aI30
aI50
aI50
aI49
aI50
aI50
aI50
aI36
aI50
aI20
aI50
aI45
aI33
aI17
aI50
aI50
aI50
aI50
aI50
aI50
aI50
aI24
aI25
aI50
aI45
aI17
aI50
aI15
aI50
aI32
aI16
aI32
aI39
aI26
aI50
aI26
aI50
aI50
aI50
aI50
aI50
aI50
aI50
aI50
aI17
aI50
aI50
aI27
aI50
aI21
aI50
aI50
aI50
aI50
aI50
aI50
aI50
aI21
aI18
aI36
aI23
aI30
aI38
aI50
aI50
aI48
aI50
aI50
aI50
aI50
aI50
aI50
aI50
aI50
aI50
aI50
aI50
aI50
aI50
aI50
aI50
aI50
aI44
aI50
aI24
aI18
aI50
aI50
aI50
aI19
aI16
aI14
aI50
aI50
aI50
aI50
aI50
aI50
aI50
aI50
aI50
aI50
aI50
aI50
aI50
aI50
aI50
aI50
aI50
aI50
aI50
aI50
aI50
aI34
aI50
aI19
aI50
aI16
aI50
aI39
aI50
aI50
aI32
aI18
aI21
aI43
aI50
aI50
aI50
aI50
aI50
aI50
aI50
aI50
aI50
aI50
aI50
aI50
aI50
aI50
aI50
aI50
aI38
aI50
aI16
aI50
aI50
aI50
aI28
aI20
aI50
aI48
aI50
aI50
aI50
aI49
aI19
aI32
aI28
aI34
aI32
aI50
aI35
aI50
aI22
aI50
aI50
aI50
aI37
aI31
aI50
aI50
aI38
aI50
aI50
aI50
aI50
aI50
aI50
aI50
aI50
aI50
aI50
aI50
aI50
aI50
aI50
aI45
aI50
aI50
aI50
aI47
aI50
aI18
aI14
aI48
aI50
aI50
aI32
aI50
aI50
aI50
aI50
aI50
aI19
aI31
aI35
aI50
aI50
aI44
aI25
aI50
aI50
aI50
aI50
aI50
aI50
aI50
aI50
aI50
aI50
aI50
aI50
aI50
aI50
aI50
aI50
aI44
aI50
aI50
aI17
aI50
aI50
aI50
aI44
aI50
aI50
aI50
aI50
aI50
aI50
aI50
aI50
aI50
aI50
aI50
aI50
aI50
aI50
aI50
aI50
aI31
aI45
aI16
aI19
aI37
aI17
aI50
aI14
aI50
aI29
aI50
aI31
aI50
aI50
aI50
aI50
aI50
aI29
aI50
aI50
aI25
aI50
aI31
aI50
aI50
aI50
aI50
aI42
aI50
aI50
aI50
aI50
aI50
aI50
aI50
aI50
aI18
aI25
aI14
aI50
aI50
aI18
aI50
aI50
aI19
aI44
aI50
aI50
aI50
aI50
aI50
aI50
aI50
aI50
aI50
aI50
aI50
aI50
aI30
aI50
aI50
aI50
aI23
aI16
aI15
aI23
aI50
aI25
aI30
aI16
aI50
aI48
aI42
aI50
aI30
aI17
aI15
aI50
aI50
aI50
aI50
aI50
aI50
aI50
aI50
aI50
aI50
aI48
aI42
aI50
aI14
aI32
aI50
aI39
aI32
aI21
aI43
aI36
aI17
aI22
aI25
aI50
aI50
aI50
aI50
aI50
aI50
aI50
aI50
aI32
aI21
aI50
aI50
aI50
aI50
aI50
aI50
aI50
aI50
aI50
aI50
aI50
aI34
aI50
aI50
aI50
aI50
aI30
aI50
aI36
aI17
aI50
aI49
aI50
aI28
aI50
aI50
aI50
aI50
aI50
aI50
aI50
aI50
aI50
aI50
aI39
aI20
aI50
aI50
aI32
aI50
aI37
aI50
aI50
aI50
aI39
aI50
aI50
aI50
aI50
aI50
aI50
aI50
aI31
aI50
aI16
aI50
aI50
aI33
aI32
aI50
aI21
aI50
aI16
aI50
aI50
aI28
aI37
aI50
aI50
aI50
aI50
aI50
aI50
aI50
aI50
aI50
aI50
aI50
aI50
aI50
aI50
aI37
aI50
aI46
aI50
aI27
aI15
aI50
aI50
aI50
aI49
aI50
aI22
aI19
aI50
aI50
aI20
aI50
aI21
aI50
aI24
aI38
aI36
aI35
aI23
aI35
aI50
aI32
aI16
aI36
aI50
aI50
aI31
aI50
aI50
aI33
aI50
aI29
aI25
aI50
aI28
aI50
aI50
aI50
aI50
aI50
aI50
aI50
aI50
aI50
aI50
aI50
aI50
aI50
aI50
aI50
aI50
aI50
aI20
aI50
aI50
aI50
aI14
aI36
aI21
aI50
aI50
aI34
aI18
aI30
aI50
aI50
aI50
aI50
aI50
aI50
aI32
aI40
aI50
aI50
aI50
aI27
aI30
aI43
aI38
aI50
aI50
aI50
aI50
aI14
aI17
aI50
aI50
aI50
aI42
aI50
aI50
aI50
aI50
aI50
aI50
aI50
aI50
aI50
aI50
aI50
aI50
aI50
aI50
aI50
aI46
aI50
aI50
aI35
aI20
aI50
aI50
aI37
aI22
aI16
aI50
aI37
aI24
aI26
aI37
aI34
aI50
aI18
aI50
aI26
aI19
aI48
aI26
aI43
aI50
aI50
aI50
aI50
aI50
aI50
aI50
aI15
aI16
aI50
aI50
aI50
aI50
aI50
aI50
aI50
aI50
aI50
aI50
aI50
aI50
aI50
aI50
aI20
aI50
aI50
aI50
aI39
aI31
aI14
aI16
aI17
aI25
aI48
aI20
aI48
aI44
aI37
aI31
aI50
aI25
aI40
aI50
aI50
aI50
aI50
aI40
aI50
aI50
aI24
aI50
aI33
aI50
aI50
aI36
aI50
aI20
aI50
aI50
aI14
aI50
aI50
aI50
aI50
aI44
aI45
aI50
aI50
aI50
aI50
aI46
aI50
aI50
aI27
aI50
aI50
aI50
aI50
aI50
aI50
aI50
aI50
aI50
aI50
aI50
aI50
aI50
aI50
aI50
aI21
aI24
aI50
aI50
aI50
aI50
aI47
aI25
aI50
aI50
aI50
aI49
aI14
aI22
aI21
aI36
aI50
aI50
aI50
aI17
aI14
aI50
aI24
aI50
aI50
aI50
aI50
aI16
aI50
aI50
aI50
aI50
aI50
aI50
aI50
aI50
aI50
aI50
aI50
aI50
aI50
aI50
aI41
aI50
aI15
aI16
aI28
aI50
aI44
aI24
aI50
aI50
aI31
aI50
aI36
aI34
aI50
aI50
aI31
aI15
aI50
aI38
aI50
aI39
aI28
aI38
aI50
aI50
aI18
aI50
aI34
aI20
aI50
aI29
aI50
aI43
aI45
aI50
aI50
aI50
aI50
aI50
aI24
aI50
aI50
aI50
aI19
aI50
aI34
aI50
aI50
aI50
aI50
aI50
aI50
aI50
aI50
aI50
aI50
aI50
aI50
aI50
aI46
aI50
aI50
aI50
aI50
aI49
aI50
aI50
aI16
aI14
aI50
aI50
aI50
aI50
aI47
aI22
aI50
aI33
aI50
aI50
aI50
aI50
aI21
aI48
aI31
aI50
aI50
aI50
aI32
aI16
aI20
aI50
aI50
aI42
aI32
aI40
aI50
aI50
aI50
aI19
aI46
aI34
aI50
aI34
aI50
aI50
aI22
aI32
aI50
aI50
aI50
aI50
aI50
aI50
aI50
aI50
aI50
aI50
aI50
aI50
aI50
aI48
aI50
aI43
aI50
aI50
aI50
aI35
aI45
aI50
aI50
aI50
aI50
aI50
aI50
aI50
aI50
aI50
aI50
aI50
aI50
aI50
aI45
aI50
aI23
aI35
aI15
aI50
aI30
aI28
aI47
aI31
aI31
aI50
aI19
aI21
aI20
aI50
aI20
aI50
aI50
aI46
aI50
aI50
aI38
aI14
aI33
aI50
aI50
aI45
aI50
aI50
aI43
aI34
aI24
aI41
aI50
aI50
aI50
aI50
aI50
aI34
aI50
aI50
aI26
aI50
aI18
aI16
aI50
aI31
aI21
aI50
aI50
aI50
aI50
aI50
aI50
aI50
aI50
aI50
aI50
aI50
aI50
aI50
aI50
aI50
aI50
aI50
aI50
aI50
aI50
aI50
aI50
aI15
aI50
aI50
aI20
aI50
aI50
aI50
aI50
aI50
aI16
aI25
aI50
aI36
aI50
aI50
aI50
aI27
aI15
aI19
aI50
aI50
aI39
aI30
aI50
aI37
aI50
aI50
aI50
aI50
aI50
aI50
aI50
aI50
aI50
aI24
aI50
aI50
aI47
aI50
aI25
aI33
aI50
aI50
aI50
aI50
aI50
aI50
aI50
aI50
aI50
aI50
aI50
aI35
aI49
aI50
aI50
aI50
aI47
aI50
aI46
aI50
aI50
aI23
aI29
aI49
aI18
aI50
aI14
aI19
aI29
aI20
aI50
aI50
aI50
aI14
aI15
aI14
aI20
aI50
aI50
aI19
aI15
aI50
aI50
aI50
aI50
aI26
aI50
aI30
aI28
aI27
aI20
aI50
aI50
aI50
aI38
aI23
aI27
aI50
aI39
aI49
aI20
aI37
aI50
aI50
aI42
aI50
aI50
aI50
aI23
aI14
aI50
aI50
aI50
aI50
aI50
aI50
aI50
aI37
aI50
aI50
aI50
aI50
aI50
aI50
aI50
aI50
aI50
aI50
aI50
aI50
aI50
aI50
aI50
aI50
aI50
aI17
aI19
aI18
aI50
aI17
aI20
aI50
aI38
aI50
aI50
aI22
aI46
aI36
aI19
aI24
aI50
aI50
aI15
aI50
aI40
aI48
aI32
aI50
aI26
aI38
aI50
aI44
aI50
aI32
aI29
aI50
aI50
aI34
aI23
aI50
aI22
aI50
aI26
aI50
aI50
aI50
aI50
aI50
aI48
aI50
aI50
aI50
aI50
aI50
aI50
aI50
aI50
aI50
aI50
aI50
aI50
aI50
aI50
aI38
aI50
aI18
aI50
aI50
aI50
aI18
aI50
aI50
aI50
aI50
aI50
aI50
aI50
aI50
aI50
aI50
aI50
aI50
aI50
aI50
aI50
aI50
aI45
aI18
aI50
aI50
aI50
aI49
aI19
aI36
aI50
aI15
aI18
aI34
aI50
aI50
aI50
aI36
aI32
aI50
aI29
aI50
aI50
aI27
aI15
aI50
aI50
aI50
aI23
aI28
aI22
aI42
aI14
aI47
aI50
aI50
aI50
aI50
aI28
aI17
aI50
aI27
aI28
aI50
aI50
aI50
aI50
aI50
aI50
aI50
aI50
aI50
aI50
aI50
aI50
aI50
aI49
aI50
aI30
aI50
aI38
aI50
aI33
aI46
aI50
aI48
aI50
aI31
aI50
aI33
aI26
aI50
aI50
aI50
aI50
aI50
aI50
aI50
aI32
aI50
aI50
aI50
aI50
aI50
aI50
aI50
aI50
aI50
aI50
aI50
aI50
aI50
aI50
aI50
aI50
aI32
aI50
aI50
aI16
aI50
aI46
aI24
aI45
aI50
aI50
aI50
aI26
aI28
aI27
aI30
aI50
aI29
aI50
aI48
aI22
aI50
aI27
aI46
aI30
aI50
aI50
aI50
aI23
aI20
aI50
aI48
aI50
aI50
aI50
aI42
aI17
aI35
aI20
aI50
aI50
aI14
aI50
aI21
aI50
aI50
aI50
aI50
aI50
aI39
aI50
aI50
aI50
aI50
aI39
aI50
aI50
aI50
aI50
aI50
aI50
aI50
aI26
aI40
aI50
aI24
aI14
aI16
aI19
aI50
aI50
aI50
aI50
aI50
aI50
aI18
aI50
aI36
aI50
aI50
aI50
aI50
aI40
aI50
aI31
aI27
aI16
aI32
aI50
aI48
aI14
aI50
aI36
aI30
aI15
aI50
aI50
aI27
aI36
aI43
aI50
aI50
aI15
aI14
aI35
aI22
aI50
aI36
aI50
aI50
aI50
aI50
aI50
aI50
aI50
aI50
aI50
aI50
aI50
aI50
aI50
aI16
aI18
aI32
aI44
aI22
aI43
aI50
aI50
aI16
aI50
aI50
aI50
aI50
aI50
aI50
aI50
aI50
aI50
aI50
aI50
aI50
aI50
aI50
aI50
aI50
aI43
aI50
aI50
aI50
aI50
aI50
aI50
aI50
aI50
aI50
aI50
aI29
aI35
aI30
aI40
aI50
aI32
aI50
aI14
aI50
aI50
aI36
aI50
aI22
aI50
aI50
aI50
aI50
aI18
aI50
aI50
aI50
aI50
aI50
aI50
aI50
aI50
aI50
aI50
aI50
aI50
aI50
aI50
aI50
aI24
aI50
aI50
aI50
aI50
aI27
aI16
aI44
aI26
aI50
aI50
aI20
aI50
aI50
aI47
aI50
aI50
aI50
aI33
aI45
aI50
aI50
aI28
aI25
aI25
aI31
aI50
aI50
aI50
aI14
aI18
aI34
aI50
aI50
aI50
aI14
aI50
aI50
aI50
aI50
aI50
aI50
aI21
aI50
aI36
aI50
aI43
aI50
aI50
aI50
aI50
aI23
aI50
aI15
aI50
aI50
aI34
aI50
aI50
aI42
aI50
aI50
aI50
aI50
aI34
aI17
aI24
aI30
aI18
aI15
aI16
aI14
aI15
aI50
aI50
aI50
aI14
aI22
aI50
aI50
aI50
aI36
aI18
aI20
aI50
aI50
aI50
aI34
aI18
aI48
aI28
aI14
aI31
aI50
aI50
aI41
aI50
aI42
aI50
aI40
aI50
aI24
aI50
aI41
aI50
aI22
aI28
aI50
aI48
aI44
aI40
aI50
aI50
aI40
aI50
aI37
aI50
aI50
aI49
aI50
aI50
aI34
aI14
aI44
aI50
aI50
aI45
aI36
aI34
aI17
aI50
aI29
aI50
aI50
aI30
aI50
aI42
aI50
aI50
aI50
aI48
aI50
aI34
aI50
aI50
aI39
aI34
aI50
aI43
aI20
aI50
aI47
aI50
aI23
aI44
aI50
aI50
aI50
aI36
aI36
aI39
aI30
aI16
aI49
aI34
aI50
aI50
aI50
aI20
aI50
aI22
aI50
aI38
aI50
aI50
aI50
aI19
aI45
aI20
aI50
aI50
aI42
aI23
aI50
aI47
aI43
aI38
aI50
aI50
aI50
aI16
aI50
aI42
aI15
aI50
aI48
aI50
aI50
aI36
aI50
aI50
aI14
aI20
aI50
aI50
aI50
aI48
aI50
aI50
aI40
aI50
aI50
aI50
aI50
aI15
aI42
aI50
aI50
aI29
aI43
aI14
aI19
aI22
aI45
aI16
aI18
aI21
aI29
aI50
aI27
aI50
aI50
aI50
aI50
aI50
aI50
aI18
aI50
aI50
aI50
aI33
aI50
aI50
aI50
aI50
aI50
aI50
aI50
aI50
aI50
aI50
aI50
aI50
aI50
aI50
aI35
aI50
aI50
aI50
aI50
aI18
aI50
aI46
aI33
aI45
aI50
aI50
aI50
aI50
aI16
aI50
aI15
aI50
aI15
aI50
aI21
aI16
aI50
aI50
aI50
aI50
aI50
aI32
aI50
aI32
aI50
aI50
aI50
aI50
aI40
aI50
aI22
aI16
aI34
aI50
aI50
aI50
aI33
aI39
aI19
aI50
aI50
aI50
aI50
aI50
aI50
aI50
aI50
aI31
aI30
aI50
aI50
aI46
aI50
aI50
aI50
aI19
aI50
aI50
aI50
aI50
aI50
aI50
aI50
aI50
aI50
aI50
aI50
aI50
aI50
aI38
aI19
aI50
aI50
aI50
aI22
aI50
aI50
aI50
aI40
aI50
aI21
aI50
aI27
aI50
aI15
aI26
aI44
aI50
aI50
aI43
aI50
aI48
aI30
aI36
aI50
aI50
aI16
aI50
aI50
aI50
aI50
aI43
aI50
aI50
aI50
aI50
aI50
aI23
aI50
aI50
aI50
aI50
aI50
aI50
aI50
aI50
aI46
aI29
aI50
aI44
aI47
aI50
aI50
aI50
aI50
aI50
aI50
aI50
aI50
aI50
aI50
aI50
aI50
aI50
aI42
aI50
aI50
aI50
aI50
aI50
aI50
aI50
aI50
aI50
aI50
aI50
aI50
aI26
aI50
aI50
aI48
aI50
aI46
aI50
aI36
aI35
aI46
aI28
aI50
aI50
aI50
aI36
aI14
aI50
aI15
aI19
aI24
aI50
aI50
aI50
aI50
aI50
aI50
aI50
aI50
aI50
aI50
aI50
aI50
aI50
aI50
aI50
aI50
aI36
aI50
aI50
aI49
aI43
aI27
aI50
aI50
aI15
aI33
aI45
aI15
aI50
aI50
aI32
aI30
aI41
aI17
aI50
aI50
aI45
aI50
aI50
aI21
aI50
aI50
aI50
aI50
aI18
aI33
aI50
aI37
aI50
aI26
aI50
aI50
aI50
aI23
aI50
aI50
aI50
aI42
aI18
aI50
aI50
aI50
aI50
aI50
aI50
aI50
aI50
aI50
aI50
aI50
aI43
aI15
aI47
aI27
aI44
aI22
aI19
aI37
aI50
aI44
aI50
aI50
aI47
aI50
aI50
aI32
aI50
aI50
aI50
aI50
aI50
aI15
aI50
aI50
aI50
aI50
aI50
aI50
aI50
aI50
aI50
aI50
aI44
aI50
aI50
aI50
aI18
aI34
aI50
aI50
aI50
aI50
aI50
aI50
aI50
aI22
aI50
aI50
aI50
aI50
aI50
aI15
aI18
aI50
aI50
aI50
aI29
aI47
aI50
aI50
aI50
aI50
aI50
aI50
aI50
aI50
aI50
aI37
aI50
aI50
aI50
aI50
aI50
aI50
aI50
aI50
aI36
aI50
aI50
aI50
aI23
aI29
aI23
aI50
aI50
aI50
aI28
aI17
aI15
aI26
aI50
aI50
aI32
aI50
aI50
aI50
aI50
aI50
aI50
aI50
aI50
aI36
aI50
aI26
aI48
aI50
aI50
aI50
aI17
aI22
aI14
aI50
aI50
aI50
aI50
aI50
aI50
aI25
aI50
aI45
aI47
aI36
aI21
aI30
aI15
aI19
aI50
aI16
aI19
aI33
aI16
aI50
aI50
aI44
aI50
aI50
aI50
aI50
aI50
aI50
aI50
aI50
aI50
aI50
aI50
aI21
aI29
aI16
aI35
aI16
aI34
aI50
aI34
aI50
aI43
aI50
aI50
aI50
aI19
aI49
aI38
aI46
aI18
aI14
aI50
aI40
aI50
aI50
aI14
aI14
aI50
aI14
aI50
aI50
aI19
aI50
aI50
aI50
aI50
aI43
aI14
aI41
aI32
aI50
aI30
aI30
aI21
aI37
aI50
aI50
aI50
aI50
aI50
aI50
aI50
aI50
aI50
aI50
aI50
aI50
aI50
aI50
aI50
aI50
aI50
aI50
aI50
aI50
aI50
aI50
aI50
aI50
aI50
aI50
aI50
aI50
aI50
aI37
aI19
aI14
aI27
aI50
aI48
aI34
aI30
aI26
aI42
aI50
aI31
aI14
aI15
aI41
aI43
aI50
aI50
aI50
aI50
aI50
aI50
aI50
aI37
aI50
aI50
aI50
aI49
aI50
aI18
aI50
aI50
aI50
aI50
aI50
aI48
aI17
aI50
aI44
aI50
aI50
aI50
aI50
aI31
aI25
aI50
aI50
aI50
aI49
aI19
aI19
aI22
aI50
aI50
aI45
aI50
aI50
aI50
aI50
aI40
aI50
aI25
aI50
aI50
aI50
aI18
aI50
aI23
aI22
aI50
aI26
aI50
aI50
aI50
aI16
aI50
aI50
aI50
aI50
aI22
aI50
aI45
aI50
aI26
aI25
aI50
aI15
aI47
aI50
aI50
aI50
aI50
aI15
aI50
aI50
aI50
aI50
aI50
aI50
aI50
aI29
aI50
aI50
aI50
aI31
aI22
aI50
aI17
aI14
aI50
aI50
aI50
aI50
aI50
aI35
aI17
aI50
aI50
aI50
aI50
aI22
aI50
aI50
aI50
aI33
aI50
aI50
aI50
aI50
aI50
aI50
aI50
aI39
aI50
aI50
aI16
aI50
aI50
aI32
aI26
aI27
aI46
aI26
aI50
aI21
aI25
aI50
aI50
aI50
aI50
aI50
aI50
aI50
aI50
aI50
aI50
aI50
aI17
aI23
aI50
aI50
aI50
aI50
aI50
aI50
aI50
aI50
aI50
aI50
aI50
aI50
aI50
aI50
aI50
aI35
aI50
aI50
aI50
aI50
aI50
aI50
aI50
aI50
aI27
aI18
aI50
aI50
aI50
aI50
aI50
aI50
aI46
aI15
aI50
aI50
aI50
aI50
aI41
aI37
aI50
aI50
aI50
aI50
aI50
aI50
aI50
aI50
aI50
aI50
aI50
aI50
aI50
aI19
aI50
aI50
aI24
aI50
aI50
aI18
aI50
aI50
aI50
aI50
aI50
aI50
aI50
aI50
aI50
aI50
aI50
aI50
aI50
aI50
aI50
aI50
aI50
aI50
aI50
aI19
aI23
aI50
aI38
aI50
aI50
aI50
aI50
aI50
aI50
aI50
aI50
aI50
aI50
aI50
aI50
aI50
aI50
aI50
aI50
aI50
aI50
aI50
aI50
aI50
aI50
aI50
aI50
aI50
aI50
aI50
aI50
aI50
aI50
aI50
aI50
aI50
aI50
aI50
aI50
aI50
aI50
aI50
aI50
aI50
aI27
aI50
aI50
aI50
aI50
aI50
aI50
aI50
aI50
aI50
aI50
aI50
aI50
aI50
aI50
aI50
aI50
aI50
aI50
aI50
aI17
aI20
aI50
aI50
aI50
aI50
aI50
aI50
aI50
aI50
aI50
aI50
aI50
aI50
aI37
aI41
aI50
aI50
aI50
aI50
aI50
aI24
aI50
aI50
aI50
aI50
aI50
aI34
aI50
aI50
aI50
aI50
aI50
aI50
aI50
aI50
aI50
aI50
aI50
aI14
aI50
aI50
aI50
aI50
aI50
aI50
aI50
aI50
aI41
aI36
aI50
aI50
aI50
aI50
aI50
aI50
aI50
aI50
aI50
aI50
aI50
aI50
aI14
aI50
aI43
aI14
aI50
aI50
aI50
aI50
aI50
aI50
aI50
aI50
aI50
aI50
aI50
aI50
aI27
aI50
aI50
aI20
aI50
aI50
aI20
aI50
aI50
aI31
aI32
aI45
aI48
aI50
aI50
aI50
aI50
aI15
aI33
aI19
aI50
aI50
aI50
aI50
aI50
aI50
aI50
aI50
aI50
aI50
aI50
aI50
aI50
aI36
aI16
aI33
aI50
aI50
aI50
aI50
aI50
aI50
aI50
aI50
aI50
aI50
aI50
aI50
aI50
aI50
aI50
aI50
aI50
aI50
aI50
aI50
aI50
aI50
aI50
aI50
aI39
aI50
aI50
aI50
aI50
aI50
aI50
aI50
aI50
aI50
aI50
aI50
aI50
aI50
aI50
aI50
aI50
aI50
aI50
aI50
aI50
aI50
aI50
aI20
aI50
aI50
aI50
aI50
aI21
aI50
aI50
aI50
aI50
aI50
aI50
aI41
aI50
aI50
aI50
aI50
aI50
aI50
aI50
aI50
aI50
aI50
aI50
aI50
aI50
aI50
aI50
aI50
aI50
aI50
aI50
aI50
aI50
aI50
aI50
aI50
aI50
aI50
aI50
aI50
aI50
aI50
aI50
aI50
aI50
aI50
aI50
aI50
aI49
aI50
aI50
aI50
aI50
aI50
aI50
aI50
aI50
aI50
aI50
aI50
aI50
aI50
aI50
aI50
aI50
aI50
aI50
aI50
aI50
aI50
aI50
aI50
aI50
aI50
aI50
aI50
aI50
aI50
aI50
aI50
aI50
aI50
aI50
aI50
aI50
aI50
aI50
aI50
aI50
aI50
aI26
aI20
aI50
aI50
aI50
aI50
aI50
aI50
aI50
aI50
aI50
aI50
aI50
aI50
aI50
aI24
aI50
aI50
aI50
aI50
aI50
aI50
aI50
aI50
aI50
aI50
aI50
aI50
aI49
aI50
aI50
aI50
aI27
aI50
aI27
aI50
aI50
aI50
aI39
aI43
aI50
aI50
aI50
aI50
aI50
aI50
aI50
aI50
aI50
aI46
aI50
aI50
aI50
aI50
aI35
aI50
aI50
aI50
aI14
aI50
aI50
aI50
aI50
aI50
aI50
aI50
aI50
aI50
aI50
aI50
aI18
aI50
aI50
aI50
aI50
aI50
aI32
aI50
aI50
aI50
aI50
aI50
aI50
aI50
aI50
aI50
aI50
aI50
aI50
aI50
aI50
aI50
aI50
aI50
aI50
aI50
aI50
aI50
aI50
aI50
aI50
aI50
aI50
aI50
aI50
aI50
aI34
aI50
aI50
aI50
aI50
aI50
aI50
aI50
aI50
aI50
aI50
aI50
aI16
aI50
aI50
aI50
aI50
aI50
aI45
aI50
aI50
aI48
aI43
aI50
aI50
aI50
aI50
aI50
aI30
aI36
aI15
aI26
aI22
aI50
aI50
aI50
aI50
aI50
aI50
aI19
aI26
aI35
aI50
aI50
aI50
aI19
aI50
aI33
aI16
aI50
aI50
aI45
aI50
aI50
aI50
aI47
aI50
aI50
aI50
aI50
aI50
aI50
aI50
aI50
aI50
aI50
aI50
aI50
aI20
aI50
aI50
aI50
aI50
aI50
aI41
aI19
aI50
aI50
aI50
aI50
aI50
aI50
aI50
aI50
aI50
aI50
aI50
aI50
aI50
aI50
aI50
aI50
aI50
aI50
aI50
aI50
aI50
aI50
aI48
aI50
aI50
aI50
aI50
aI50
aI50
aI35
aI17
aI50
aI50
aI50
aI50
aI50
aI16
aI50
aI15
aI25
aI44
aI41
aI14
aI50
aI28
aI14
aI50
aI50
aI32
aI50
aI50
aI50
aI50
aI50
aI50
aI14
aI50
aI24
aI50
aI23
aI50
aI50
aI50
aI50
aI50
aI50
aI50
aI50
aI50
aI50
aI50
aI50
aI50
aI50
aI38
aI50
aI23
aI50
aI15
aI50
aI50
aI50
aI50
aI50
aI50
aI50
aI50
aI50
aI50
aI50
aI50
aI50
aI50
aI50
aI50
aI50
aI50
aI50
aI50
aI50
aI19
aI50
aI50
aI50
aI50
aI50
aI50
aI50
aI50
aI50
aI50
aI50
aI50
aI50
aI37
aI18
aI29
aI17
aI50
aI50
aI50
aI46
aI19
aI50
aI50
aI50
aI50
aI50
aI50
aI50
aI50
aI50
aI50
aI50
aI50
aI50
aI50
aI50
aI50
aI50
aI50
aI50
aI50
aI50
aI50
aI50
aI50
aI50
aI50
aI50
aI50
aI50
aI50
aI50
aI50
aI50
aI50
aI50
aI50
aI50
aI50
aI41
aI50
aI50
aI50
aI50
aI50
aI24
aI16
aI50
aI50
aI50
aI50
aI50
aI50
aI50
aI50
aI50
aI50
aI50
aI50
aI50
aI50
aI50
aI36
aI50
aI15
aI18
aI50
aI46
aI50
aI48
aI50
aI38
aI50
aI50
aI50
aI50
aI50
aI50
aI50
aI50
aI28
aI50
aI50
aI38
aI50
aI50
aI50
aI50
aI50
aI50
aI50
aI50
aI50
aI50
aI50
aI50
aI50
aI50
aI50
aI28
aI20
aI50
aI50
aI50
aI50
aI50
aI17
aI26
aI50
aI17
aI50
aI50
aI50
aI50
aI50
aI50
aI50
aI50
aI50
aI50
aI50
aI50
aI47
aI50
aI50
aI50
aI50
aI50
aI34
aI49
aI50
aI50
aI50
aI50
aI50
aI30
aI50
aI16
aI50
aI50
aI50
aI50
aI50
aI50
aI14
aI23
aI50
aI50
aI50
aI50
aI50
aI50
aI50
aI50
aI50
aI37
aI50
aI16
aI50
aI50
aI39
aI50
aI50
aI50
aI50
aI50
aI50
aI50
aI50
aI50
aI50
aI50
aI50
aI50
aI50
aI50
aI50
aI50
aI50
aI50
aI50
aI47
aI16
aI38
aI50
aI50
aI15
aI50
aI50
aI50
aI50
aI50
aI50
aI50
aI50
aI50
aI50
aI29
aI42
aI50
aI23
aI15
aI50
aI50
aI50
aI50
aI50
aI50
aI42
aI16
aI38
aI44
aI50
aI50
aI50
aI50
aI30
aI50
aI50
aI50
aI14
aI50
aI50
aI50
aI50
aI50
aI50
aI50
aI50
aI50
aI50
aI50
aI50
aI50
aI19
aI19
aI27
aI46
aI34
aI50
aI27
aI14
aI50
aI50
aI50
aI25
aI50
aI50
aI50
aI45
aI50
aI50
aI50
aI49
aI33
aI50
aI50
aI50
aI43
aI50
aI43
aI19
aI50
aI50
aI50
aI50
aI50
aI50
aI50
aI50
aI50
aI50
aI50
aI50
aI50
aI50
aI50
aI50
aI50
aI50
aI50
aI50
aI50
aI37
aI19
aI46
aI50
aI25
aI50
aI50
aI18
aI50
aI50
aI50
aI50
aI50
aI46
aI50
aI50
aI50
aI50
aI50
aI50
aI50
aI50
aI50
aI50
aI50
aI50
aI50
aI50
aI50
aI22
aI50
aI50
aI34
aI43
aI44
aI42
aI50
aI50
aI50
aI50
aI50
aI29
aI50
aI50
aI50
aI15
aI29
aI50
aI50
aI14
aI50
aI50
aI50
aI50
aI50
aI50
aI50
aI50
aI50
aI50
aI50
aI50
aI50
aI50
aI50
aI50
aI50
aI50
aI50
aI50
aI50
aI50
aI50
aI50
aI14
aI50
aI50
aI50
aI27
aI28
aI28
aI50
aI50
aI45
aI50
aI14
aI50
aI50
aI50
aI42
aI50
aI50
aI46
aI50
aI50
aI50
aI14
aI50
aI50
aI50
aI50
aI50
aI50
aI50
aI50
aI50
aI50
aI50
aI50
aI50
aI50
aI50
aI50
aI37
aI50
aI44
aI50
aI50
aI50
aI50
aI50
aI50
aI50
aI50
aI50
aI50
aI50
aI14
aI14
aI50
aI50
aI20
aI50
aI50
aI31
aI50
aI50
aI50
aI41
aI50
aI43
aI50
aI50
aI50
aI15
aI50
aI50
aI50
aI50
aI50
aI47
aI17
aI50
aI50
aI32
aI50
aI50
aI50
aI50
aI33
aI50
aI50
aI50
aI50
aI19
aI50
aI50
aI50
aI50
aI50
aI50
aI50
aI50
aI50
aI50
aI50
aI50
aI50
aI50
aI50
aI50
aI50
aI50
aI50
aI50
aI50
aI50
aI50
aI50
aI45
aI50
aI50
aI50
aI50
aI50
aI50
aI50
aI50
aI50
aI50
aI27
aI50
aI50
aI50
aI50
aI48
aI50
aI50
aI50
aI50
aI50
aI50
aI50
aI50
aI50
aI50
aI50
aI50
aI50
aI36
aI50
aI50
aI50
aI50
aI50
aI50
aI50
aI50
aI50
aI50
aI18
aI50
aI50
aI50
aI50
aI50
aI50
aI50
aI50
aI50
aI50
aI37
aI16
aI15
aI23
aI50
aI50
aI50
aI50
aI50
aI50
aI50
aI50
aI50
aI50
aI50
aI50
aI50
aI50
aI50
aI50
aI50
aI50
aI50
aI50
aI50
aI50
aI50
aI50
aI50
aI50
aI50
aI50
aI50
aI50
aI50
aI37
aI50
aI50
aI50
aI50
aI50
aI50
aI50
aI50
aI50
aI50
aI50
aI50
aI50
aI50
aI50
aI50
aI50
aI50
aI45
aI50
aI46
aI50
aI50
aI50
aI50
aI50
aI31
aI25
aI50
aI22
aI32
aI50
aI50
aI50
aI48
aI18
aI50
aI50
aI50
aI49
aI50
aI50
aI50
aI50
aI50
aI50
aI50
aI50
aI50
aI50
aI50
aI50
aI50
aI50
aI50
aI16
aI50
aI50
aI50
aI46
aI50
aI50
aI50
aI50
aI50
aI50
aI50
aI50
aI50
aI50
aI50
aI50
aI50
aI50
aI50
aI50
aI50
aI50
aI50
aI20
aI50
aI50
aI50
aI50
aI50
aI34
aI50
aI50
aI50
aI50
aI50
aI50
aI50
aI50
aI50
aI50
aI50
aI50
aI50
aI50
aI50
aI50
aI50
aI50
aI50
aI50
aI50
aI50
aI50
aI50
aI46
aI50
aI50
aI43
aI50
aI50
aI20
aI14
aI50
aI50
aI50
aI50
aI50
aI18
aI42
aI50
aI50
aI50
aI50
aI50
aI50
aI50
aI50
aI50
aI27
aI50
aI50
aI50
aI18
aI50
aI50
aI50
aI50
aI50
aI50
aI50
aI50
aI41
aI16
aI50
aI50
aI50
aI50
aI44
aI50
aI50
aI50
aI50
aI50
aI50
aI50
aI50
aI31
aI41
aI50
aI50
aI50
aI50
aI50
aI50
aI50
aI50
aI50
aI50
aI50
aI50
aI50
aI50
aI50
aI50
aI50
aI50
aI50
aI50
aI15
aI50
aI50
aI50
aI50
aI50
aI50
aI50
aI50
aI50
aI35
aI50
aI50
aI50
aI50
aI40
aI50
aI50
aI50
aI50
aI50
aI50
aI50
aI50
aI50
aI50
aI50
aI50
aI50
aI50
aI50
aI50
aI50
aI50
aI50
aI50
aI50
aI50
aI50
aI50
aI50
aI50
aI50
aI50
aI50
aI50
aI50
aI50
aI50
aI50
aI50
aI50
aI50
aI50
aI50
aI50
aI50
aI50
aI50
aI50
aI42
aI50
aI50
aI50
aI50
aI50
aI50
aI50
aI50
aI50
aI50
aI50
aI50
aI50
aI50
aI50
aI36
aI24
aI26
aI44
aI50
aI20
aI50
aI50
aI50
aI50
aI50
aI50
aI50
aI50
aI50
aI50
aI14
aI20
aI50
aI50
aI50
aI50
aI50
aI50
aI50
aI50
aI50
aI17
aI50
aI50
aI50
aI50
aI50
aI50
aI50
aI50
aI50
aI50
aI50
aI50
aI50
aI50
aI50
aI50
aI50
aI50
aI22
aI50
aI50
aI50
aI50
aI43
aI50
aI50
aI50
aI50
aI50
aI50
aI16
aI50
aI27
aI50
aI50
aI50
aI50
aI50
aI50
aI50
aI50
aI50
aI50
aI50
aI50
aI50
aI50
aI50
aI50
aI50
aI50
aI24
aI35
aI49
aI36
aI50
aI31
aI50
aI16
aI19
aI23
aI22
aI50
aI29
aI50
aI33
aI29
aI50
aI50
aI50
aI50
aI50
aI50
aI50
aI50
aI50
aI22
aI50
aI50
aI50
aI50
aI50
aI50
aI50
aI50
aI50
aI50
aI50
aI50
aI50
aI50
aI50
aI50
aI50
aI50
aI50
aI50
aI23
aI50
aI50
aI47
aI18
aI50
aI34
aI50
aI50
aI50
aI42
aI50
aI50
aI50
aI50
aI50
aI50
aI50
aI50
aI50
aI50
aI50
aI50
aI33
aI50
aI50
aI50
aI50
aI50
aI50
aI50
aI50
aI50
aI50
aI50
aI50
aI50
aI50
aI50
aI50
aI14
aI17
aI50
aI50
aI50
aI50
aI50
aI50
aI50
aI50
aI50
aI50
aI50
aI50
aI50
aI50
aI50
aI50
aI50
aI50
aI50
aI36
aI16
aI50
aI15
aI50
aI48
aI50
aI50
aI50
aI50
aI25
aI50
aI44
aI42
aI50
aI50
aI50
aI50
aI33
aI19
aI50
aI50
aI44
aI50
aI46
aI50
aI33
aI50
aI50
aI50
aI50
aI50
aI50
aI50
aI50
aI50
aI50
aI50
aI33
aI50
aI42
aI23
aI50
aI50
aI50
aI50
aI50
aI50
aI50
aI50
aI50
aI50
aI50
aI50
aI50
aI50
aI50
aI50
aI50
aI50
aI50
aI50
aI50
aI50
aI50
aI50
aI16
aI50
aI28
aI29
aI50
aI50
aI34
aI50
aI49
aI50
aI50
aI32
aI50
aI50
aI38
aI50
aI50
aI50
aI50
aI50
aI50
aI50
aI50
aI50
aI50
aI39
aI50
aI50
aI46
aI50
aI28
aI46
aI50
aI50
aI40
aI37
aI50
aI50
aI50
aI50
aI50
aI50
aI50
aI50
aI50
aI50
aI50
aI50
aI50
aI50
aI50
aI50
aI50
aI50
aI50
aI50
aI50
aI50
aI50
aI50
aI50
aI50
aI50
aI50
aI50
aI50
aI50
aI50
aI50
aI50
aI50
aI50
aI50
aI50
aI50
aI50
aI50
aI49
aI50
aI45
aI40
aI50
aI50
aI41
aI50
aI50
aI50
aI50
aI50
aI50
aI50
aI50
aI50
aI50
aI50
aI50
aI50
aI50
aI50
aI50
aI21
aI50
aI50
aI50
aI50
aI50
aI50
aI50
aI50
aI50
aI50
aI50
aI50
aI50
aI50
aI50
aI50
aI43
aI50
aI50
aI33
aI27
aI29
aI50
aI50
aI42
aI43
aI50
aI50
aI50
aI50
aI50
aI50
aI50
aI50
aI50
aI50
aI50
aI25
aI16
aI50
aI50
aI50
aI50
aI50
aI50
aI50
aI50
aI50
aI50
aI50
aI50
aI50
aI50
aI50
aI50
aI50
aI50
aI50
aI50
aI50
aI50
aI50
aI50
aI50
aI50
aI50
aI16
aI38
aI50
aI50
aI36
aI16
aI50
aI50
aI50
aI38
aI32
aI24
aI50
aI50
aI50
aI50
aI50
aI42
aI50
aI50
aI50
aI50
aI50
aI50
aI50
aI50
aI50
aI50
aI50
aI50
aI50
aI50
aI50
aI50
aI50
aI50
aI50
aI50
aI23
aI50
aI50
aI50
aI50
aI50
aI50
aI50
aI50
aI50
aI50
aI50
aI50
aI50
aI50
aI50
aI50
aI50
aI19
aI35
aI50
aI50
aI45
aI14
aI50
aI46
aI46
aI32
aI50
aI50
aI50
aI50
aI50
aI50
aI50
aI50
aI50
aI50
aI50
aI50
aI50
aI50
aI50
aI50
aI50
aI50
aI50
aI50
aI50
aI50
aI50
aI50
aI50
aI50
aI50
aI50
aI50
aI50
aI50
aI50
aI50
aI50
aI50
aI50
aI50
aI50
aI50
aI50
aI50
aI28
aI50
aI30
aI28
aI32
aI28
aI50
aI33
aI50
aI50
aI23
aI18
aI50
aI50
aI50
aI50
aI50
aI50
aI50
aI50
aI50
aI50
aI50
aI33
aI50
aI50
aI50
aI50
aI50
aI50
aI50
aI50
aI50
aI50
aI19
aI22
aI50
aI50
aI50
aI50
aI50
aI50
aI50
aI50
aI50
aI50
aI50
aI50
aI50
aI50
aI20
aI36
aI18
aI50
aI50
aI50
aI50
aI50
aI50
aI47
aI50
aI50
aI50
aI50
aI50
aI50
aI50
aI50
aI50
aI50
aI50
aI50
aI50
aI50
aI50
aI50
aI50
aI50
aI50
aI50
aI50
aI50
aI50
aI50
aI50
aI50
aI50
aI50
aI50
aI50
aI50
aI50
aI50
aI50
aI50
aI50
aI21
aI50
aI50
aI50
aI50
aI50
aI50
aI50
aI50
aI50
aI50
aI50
aI50
aI50
aI50
aI50
aI50
aI50
aI50
aI50
aI50
aI50
aI50
aI50
aI50
aI50
aI50
aI50
aI50
aI50
aI50
aI50
aI50
aI50
aI50
aI50
aI50
aI50
aI50
aI50
aI50
aI17
aI50
aI41
aI50
aI22
aI50
aI38
aI50
aI50
aI50
aI50
aI50
aI50
aI50
aI50
aI50
aI14
aI50
aI50
aI50
aI50
aI50
aI50
aI50
aI50
aI50
aI50
aI50
aI50
aI50
aI50
aI50
aI50
aI50
aI50
aI50
aI50
aI50
aI50
aI50
aI50
aI50
aI36
aI50
aI50
aI50
aI50
aI50
aI50
aI50
aI50
aI50
aI50
aI50
aI50
aI50
aI50
aI50
aI20
aI50
aI50
aI50
aI50
aI50
aI50
aI50
aI50
aI27
aI50
aI50
aI50
aI50
aI50
aI50
aI50
aI50
aI50
aI34
aI50
aI50
aI31
aI50
aI50
aI50
aI50
aI50
aI50
aI50
aI50
aI50
aI50
aI50
aI50
aI50
aI50
aI50
aI50
aI50
aI50
aI50
aI50
aI50
aI50
aI50
aI50
aI50
aI50
aI50
aI50
aI50
aI50
aI50
aI50
aI50
aI50
aI15
aI50
aI50
aI30
aI50
aI50
aI50
aI50
aI50
aI50
aI50
aI50
aI50
aI50
aI50
aI50
aI50
aI50
aI50
aI50
aI50
aI21
aI50
aI49
aI50
aI50
aI50
aI50
aI50
aI18
aI50
aI50
aI50
aI50
aI50
aI50
aI50
aI50
aI50
aI50
aI50
aI50
aI50
aI50
aI41
aI50
aI50
aI50
aI50
aI50
aI50
aI50
aI50
aI50
aI50
aI50
aI50
aI50
aI50
aI50
aI41
aI50
aI50
aI50
aI50
aI50
aI50
aI50
aI50
aI50
aI50
aI50
aI50
aI50
aI50
aI14
aI33
aI50
aI50
aI50
aI50
aI50
aI50
aI50
aI50
aI50
aI50
aI50
aI50
aI50
aI50
aI50
aI50
aI50
aI50
aI50
aI50
aI50
aI50
aI50
aI50
aI21
aI50
aI50
aI50
aI50
aI15
aI50
aI50
aI50
aI50
aI50
aI50
aI50
aI50
aI50
aI50
aI50
aI50
aI50
aI38
aI50
aI26
aI50
aI50
aI50
aI50
aI50
aI50
aI50
aI50
aI50
aI50
aI50
aI50
aI50
aI47
aI50
aI50
aI50
aI39
aI50
aI38
aI50
aI50
aI30
aI50
aI50
aI50
aI50
aI50
aI50
aI50
aI41
aI50
aI42
aI50
aI50
aI50
aI50
aI50
aI50
aI50
aI50
aI50
aI50
aI50
aI50
aI50
aI50
aI50
aI50
aI50
aI50
aI50
aI50
aI50
aI50
aI50
aI50
aI50
aI50
aI50
aI50
aI50
aI50
aI50
aI50
aI50
aI50
aI50
aI50
aI50
aI50
aI50
aI50
aI50
aI50
aI50
aI50
aI50
aI50
aI50
aI27
aI50
aI50
aI42
aI50
aI50
aI50
aI50
aI50
aI50
aI50
aI50
aI50
aI50
aI50
aI50
aI50
aI50
aI50
aI50
aI50
aI50
aI50
aI50
aI50
aI50
aI50
aI39
aI18
aI50
aI50
aI50
aI50
aI50
aI50
aI50
aI50
aI50
aI50
aI50
aI50
aI50
aI50
aI50
aI50
aI50
aI50
aI50
aI50
aI50
aI50
aI50
aI50
aI50
aI50
aI50
aI50
aI50
aI50
aI50
aI50
aI50
aI50
aI50
aI50
aI50
aI50
aI20
aI50
aI50
aI50
aI50
aI50
aI50
aI50
aI50
aI50
aI50
aI50
aI23
aI32
aI50
aI50
aI50
aI50
aI50
aI50
aI50
aI50
aI50
aI50
aI50
aI50
aI50
aI50
aI50
aI50
aI50
aI50
aI50
aI50
aI50
aI50
aI50
aI50
aI50
aI50
aI50
aI50
aI50
aI50
aI50
aI50
aI50
aI50
aI50
aI50
aI50
aI50
aI50
aI50
aI50
aI21
aI50
aI50
aI50
aI50
aI50
aI50
aI50
aI50
aI50
aI50
aI50
aI50
aI14
aI50
aI50
aI50
aI48
aI50
aI50
aI50
aI50
aI50
aI50
aI50
aI50
aI50
aI50
aI50
aI50
aI50
aI50
aI50
aI50
aI50
aI25
aI50
aI50
aI50
aI50
aI50
aI50
aI50
aI50
aI50
aI50
aI50
aI50
aI49
aI50
aI50
aI50
aI50
aI50
aI50
aI50
aI27
aI21
aI50
aI50
aI50
aI50
aI43
aI50
aI50
aI50
aI16
aI50
aI50
aI50
aI50
aI50
aI50
aI50
aI50
aI50
aI50
aI50
aI50
aI31
aI50
aI50
aI50
aI50
aI50
aI50
aI50
aI50
aI50
aI50
aI50
aI50
aI50
aI50
aI50
aI50
aI50
aI50
aI50
aI50
aI50
aI50
aI50
aI50
aI50
aI50
aI50
aI50
aI50
aI50
aI50
aI50
aI50
aI50
aI50
aI50
aI50
aI46
aI16
aI16
aI20
aI50
aI50
aI50
aI50
aI50
aI50
aI47
aI50
aI48
aI16
aI20
aI46
aI14
aI14
aI14
aI14
aI14
aI24
aI50
aI50
aI41
aI16
aI20
aI50
aI50
aI50
aI44
aI21
aI16
aI50
aI50
aI50
aI50
aI50
aI21
aI50
aI50
aI50
aI24
aI32
aI16
aI16
aI50
aI50
aI26
aI50
aI50
aI50
aI50
aI50
aI50
aI50
aI47
aI50
aI50
aI50
aI50
aI14
aI50
aI50
aI50
aI50
aI50
aI16
aI18
aI16
aI50
aI50
aI16
aI17
aI50
aI14
aI21
aI50
aI50
aI50
aI50
aI50
aI50
aI50
aI50
aI50
aI50
aI50
aI50
aI50
aI50
aI50
aI50
aI50
aI50
aI50
aI50
aI50
aI27
aI50
aI50
aI48
aI50
aI50
aI50
aI50
aI50
aI50
aI33
aI46
aI50
aI27
aI50
aI50
aI50
aI15
aI16
aI15
aI50
aI50
aI50
aI50
aI50
aI50
aI16
aI16
aI16
aI16
aI16
aI16
aI16
aI20
aI50
aI50
aI16
aI16
aI16
aI16
aI50
aI50
aI50
aI16
aI16
aI20
aI50
aI22
aI17
aI17
aI21
aI20
aI50
aI50
aI50
aI50
aI50
aI17
aI50
aI46
aI14
aI50
aI16
aI20
aI50
aI23
aI50
aI50
aI50
aI32
aI50
aI50
aI50
aI50
aI50
aI50
aI50
aI50
aI50
aI50
aI50
aI50
aI50
aI50
aI50
aI50
aI50
aI50
aI50
aI50
aI50
aI26
aI50
aI50
aI50
aI50
aI50
aI50
aI50
aI50
aI50
aI50
aI50
aI50
aI50
aI50
aI50
aI50
aI50
aI50
aI50
aI50
aI50
aI50
aI50
aI50
aI50
aI50
aI50
aI50
aI50
aI50
aI28
aI50
aI16
aI16
aI20
aI50
aI50
aI50
aI22
aI20
aI50
aI50
aI27
aI50
aI34
aI16
aI16
aI16
aI24
aI16
aI20
aI50
aI44
aI38
aI50
aI50
aI50
aI40
aI50
aI22
aI14
aI14
aI14
aI14
aI14
aI14
aI14
aI14
aI14
aI14
aI50
aI22
aI17
aI17
aI17
aI17
aI30
aI46
aI16
aI16
aI16
aI16
aI16
aI16
aI16
aI19
aI16
aI16
aI31
aI16
aI20
aI50
aI28
aI46
aI50
aI50
aI50
aI50
aI23
aI50
aI50
aI16
aI16
aI16
aI16
aI20
aI50
aI50
aI50
aI30
aI48
aI16
aI14
aI30
aI41
aI16
aI16
aI16
aI16
aI18
aI50
aI50
aI50
aI16
aI50
aI36
aI16
aI16
aI50
aI46
aI23
aI50
aI50
aI50
aI23
aI50
aI16
aI16
aI16
aI16
aI21
aI18
aI20
aI44
aI50
aI46
aI14
aI14
aI14
aI50
aI14
aI14
aI22
aI14
aI26
aI14
aI50
aI32
aI14
aI14
aI17
aI14
aI18
aI14
aI14
aI14
aI14
aI14
aI14
aI50
aI14
aI14
aI18
aI14
aI14
aI14
aI14
aI16
aI50
aI50
aI50
aI21
aI17
aI17
aI37
aI50
aI14
aI14
aI14
aI14
aI14
aI14
aI50
aI17
aI17
aI17
aI18
aI17
aI14
aI17
aI21
aI50
aI14
aI50
aI50
aI50
aI50
aI21
aI16
aI19
aI50
aI14
aI14
aI14
aI14
aI14
aI14
aI16
aI18
aI14
aI14
aI50
aI44
aI50
aI29
aI22
aI14
aI17
aI50
aI14
aI14
aI14
aI14
aI14
aI14
aI14
aI14
aI14
aI14
aI14
aI50
aI25
aI16
aI16
aI50
aI41
aI50
aI50
aI50
aI14
aI16
aI22
aI50
aI21
aI50
aI50
aI14
aI50
aI50
aI50
aI50
aI50
aI50
aI50
aI50
aI50
aI50
aI50
aI50
aI50
aI50
aI50
aI50
aI50
aI50
aI50
aI50
aI50
aI50
aI50
aI50
aI50
aI50
aI50
aI50
aI50
aI50
aI50
aI50
aI50
aI50
aI50
aI50
aI50
aI50
aI50
aI50
aI50
aI50
aI50
aI50
aI50
aI50
aI50
aI50
aI50
aI50
aI50
aI26
aI16
aI20
aI30
aI14
aI14
aI14
aI14
aI14
aI14
aI14
aI14
aI14
aI14
aI14
aI16
aI14
aI14
aI14
aI14
aI14
aI50
aI50
aI50
aI50
aI50
aI50
aI50
aI41
aI16
aI16
aI16
aI16
aI18
aI16
aI14
aI25
aI50
aI50
aI50
aI50
aI50
aI50
aI50
aI50
aI50
aI50
aI48
aI14
aI16
aI34
aI23
aI16
aI50
aI41
aI21
aI26
aI14
aI14
aI14
aI14
aI14
aI14
aI14
aI14
aI15
aI14
aI14
aI14
aI14
aI14
aI14
aI14
aI14
aI14
aI50
aI35
aI23
aI14
aI14
aI14
aI14
aI32
aI50
aI50
aI50
aI50
aI50
aI50
aI50
aI50
aI50
aI50
aI50
aI50
aI50
aI50
aI50
aI50
aI50
aI50
aI50
aI50
aI50
aI50
aI50
aI50
aI50
aI50
aI50
aI50
aI50
aI50
aI50
aI50
aI50
aI50
aI50
aI50
aI50
aI50
aI50
aI50
aI50
aI50
aI50
aI50
aI50
aI36
aI50
aI50
aI50
aI50
aI50
aI50
aI50
aI50
aI50
aI50
aI50
aI50
aI50
aI50
aI20
aI24
aI16
aI16
aI16
aI16
aI16
aI16
aI16
aI16
aI16
aI16
aI42
aI27
aI26
aI16
aI30
aI16
aI41
aI50
aI50
aI50
aI24
aI14
aI14
aI14
aI14
aI14
aI14
aI14
aI14
aI14
aI14
aI14
aI14
aI14
aI14
aI14
aI15
aI14
aI14
aI14
aI14
aI32
aI50
aI50
aI50
aI50
aI18
aI50
aI50
aI50
aI50
aI50
aI50
aI28
aI50
aI50
aI14
aI14
aI14
aI14
aI14
aI14
aI14
aI14
aI14
aI14
aI50
aI50
aI50
aI50
aI25
aI22
aI43
aI50
aI50
aI50
aI50
aI14
aI50
aI50
aI50
aI50
aI50
aI50
aI50
aI50
aI50
aI50
aI50
aI50
aI50
aI50
aI50
aI50
aI50
aI50
aI50
aI50
aI50
aI50
aI50
aI50
aI50
aI50
aI50
aI50
aI50
aI50
aI50
aI50
aI50
aI50
aI50
aI50
aI50
aI50
aI50
aI50
aI50
aI50
aI50
aI50
aI50
aI50
aI30
aI24
aI14
aI50
aI50
aI15
aI15
aI15
aI15
aI15
aI15
aI15
aI15
aI50
aI50
aI23
aI14
aI50
aI21
aI50
aI28
aI14
aI14
aI14
aI18
aI14
aI14
aI22
aI14
aI14
aI14
aI14
aI14
aI20
aI50
aI50
aI50
aI50
aI50
aI50
aI50
aI22
aI24
aI30
aI50
aI50
aI22
aI26
aI26
aI50
aI50
aI50
aI50
aI50
aI50
aI24
aI14
aI14
aI14
aI14
aI14
aI14
aI43
aI50
aI50
aI50
aI50
aI50
aI50
aI50
aI39
aI50
aI26
aI44
aI14
aI50
aI50
aI50
aI50
aI50
aI50
aI50
aI50
aI50
aI50
aI41
aI50
aI50
aI50
aI50
aI50
aI50
aI41
aI50
aI50
aI50
aI50
aI50
aI50
aI14
aI14
aI14
aI14
aI14
aI43
aI14
aI50
aI50
aI50
aI50
aI50
aI14
aI44
aI22
aI23
aI25
aI19
aI19
aI19
aI19
aI22
aI14
aI14
aI18
aI50
aI50
aI50
aI14
aI50
aI50
aI36
aI15
aI15
aI15
aI15
aI16
aI15
aI14
aI15
aI15
aI15
aI15
aI15
aI15
aI15
aI15
aI15
aI15
aI15
aI15
aI15
aI19
aI15
aI15
aI19
aI15
aI15
aI15
aI15
aI16
aI45
aI14
aI50
aI14
aI14
aI14
aI14
aI16
aI14
aI50
aI50
aI34
aI14
aI14
aI14
aI14
aI35
aI14
aI14
aI14
aI14
aI14
aI14
aI26
aI14
aI14
aI14
aI14
aI14
aI16
aI14
aI14
aI14
aI14
aI14
aI14
aI14
aI14
aI15
aI16
aI14
aI14
aI14
aI14
aI14
aI14
aI14
aI14
aI14
aI14
aI14
aI14
aI14
aI14
aI14
aI14
aI50
aI24
aI14
aI44
aI50
aI50
aI50
aI26
aI23
aI14
aI14
aI14
aI14
aI14
aI14
aI14
aI14
aI14
aI14
aI14
aI14
aI14
aI14
aI14
aI14
aI14
aI14
aI14
aI14
aI14
aI14
aI50
aI50
aI50
aI50
aI50
aI50
aI50
aI50
aI50
aI50
aI50
aI50
aI50
aI50
aI50
aI50
aI50
aI50
aI50
aI50
aI50
aI50
aI50
aI50
aI50
aI50
aI44
aI50
aI50
aI50
aI50
aI50
aI50
aI50
aI50
aI50
aI50
aI50
aI50
aI50
aI50
aI50
aI50
aI50
aI50
aI50
aI50
aI50
aI16
aI50
aI50
aI50
aI50
aI18
aI18
aI18
aI50
aI50
aI50
aI50
aI50
aI49
aI14
aI14
aI14
aI14
aI14
aI14
aI14
aI14
aI14
aI14
aI21
aI50
aI50
aI50
aI50
aI50
aI50
aI50
aI50
aI50
aI31
aI50
aI49
aI18
aI50
aI50
aI42
aI50
aI50
aI50
aI50
aI50
aI50
aI50
aI50
aI50
aI50
aI50
aI50
aI50
aI47
aI50
aI50
aI50
aI50
aI50
aI50
aI50
aI50
aI50
aI50
aI50
aI50
aI50
aI50
aI50
aI50
aI50
aI50
aI50
aI50
aI50
aI50
aI50
aI14
aI14
aI14
aI14
aI14
aI14
aI50
aI50
aI50
aI50
aI50
aI50
aI24
aI14
aI14
aI14
aI14
aI14
aI14
aI15
aI14
aI16
aI16
aI16
aI16
aI16
aI16
aI16
aI16
aI16
aI16
aI16
aI16
aI16
aI16
aI16
aI16
aI16
aI16
aI16
aI16
aI16
aI50
aI50
aI50
aI50
aI50
aI50
aI50
aI50
aI38
aI14
aI14
aI14
aI14
aI14
aI14
aI14
aI14
aI14
aI14
aI14
aI14
aI14
aI14
aI14
aI14
aI14
aI14
aI14
aI14
aI14
aI14
aI14
aI14
aI14
aI14
aI14
aI14
aI14
aI14
aI14
aI14
aI14
aI14
aI14
aI14
aI14
aI14
aI14
aI14
aI14
aI14
aI14
aI14
aI14
aI14
aI14
aI14
aI14
aI14
aI14
aI14
aI14
aI14
aI14
aI14
aI14
aI14
aI14
aI50
aI50
aI14
aI14
aI14
aI14
aI14
aI18
aI14
aI14
aI14
aI14
aI14
aI14
aI14
aI14
aI14
aI14
aI14
aI14
aI14
aI14
aI14
aI14
aI14
aI14
aI14
aI14
aI14
aI14
aI14
aI14
aI14
aI14
aI14
aI14
aI14
aI14
aI14
aI14
aI14
aI14
aI14
aI14
aI14
aI14
aI14
aI14
aI14
aI14
a.